Component: ARM Compiler 6.12 Tool: armlink [5d624300]

==============================================================================

Section Cross References

    startup_cmsdk_cm0plus.o(STACK) refers (Special) to heapauxi.o(.text) for __use_two_region_memory
    startup_cmsdk_cm0plus.o(HEAP) refers (Special) to heapauxi.o(.text) for __use_two_region_memory
    startup_cmsdk_cm0plus.o(RESET) refers (Special) to heapauxi.o(.text) for __use_two_region_memory
    startup_cmsdk_cm0plus.o(RESET) refers to startup_cmsdk_cm0plus.o(STACK) for __initial_sp
    startup_cmsdk_cm0plus.o(RESET) refers to startup_cmsdk_cm0plus.o(.text) for Reset_Handler
    startup_cmsdk_cm0plus.o(RESET) refers to at6010_irq.o(.text) for NMI_Handler
    startup_cmsdk_cm0plus.o(.text) refers (Special) to heapauxi.o(.text) for __use_two_region_memory
    startup_cmsdk_cm0plus.o(.text) refers to system_cmsdk_cm0plus.o(.text) for SystemInit
    startup_cmsdk_cm0plus.o(.text) refers to __main.o(!!!main) for __main
    startup_cmsdk_cm0plus.o(.text) refers to startup_cmsdk_cm0plus.o(HEAP) for Heap_Mem
    startup_cmsdk_cm0plus.o(.text) refers to startup_cmsdk_cm0plus.o(STACK) for Stack_Mem
    retarget.o(.text) refers (Special) to use_no_semi_2.o(.text) for __use_no_semihosting
    retarget.o(.text) refers to at6010_uart.o(.text) for uart_send_byte
    retarget.o(.text) refers to hal_dualtimer.o(.text) for hal_dualtimer_delay_us
    retarget.o(.ARM.exidx) refers (Special) to use_no_semi_2.o(.text) for __use_no_semihosting
    retarget.o(.ARM.exidx) refers to retarget.o(.text) for [Anonymous Symbol]
    retarget.o(.bss.__stdout) refers (Special) to use_no_semi_2.o(.text) for __use_no_semihosting
    retarget.o(.bss.__stdin) refers (Special) to use_no_semi_2.o(.text) for __use_no_semihosting
    retarget.o(.bss.__stderr) refers (Special) to use_no_semi_2.o(.text) for __use_no_semihosting
    range_fft_base_main.o(.text) refers (Special) to _printf_d.o(.ARM.Collect$$_printf_percent$$00000009) for _printf_d
    range_fft_base_main.o(.text) refers (Special) to _printf_f.o(.ARM.Collect$$_printf_percent$$00000003) for _printf_f
    range_fft_base_main.o(.text) refers (Special) to printf1.o(x$fpl$printf1) for _printf_fp_dec
    range_fft_base_main.o(.text) refers (Special) to _printf_dec.o(.text) for _printf_int_dec
    range_fft_base_main.o(.text) refers (Special) to _printf_percent.o(.ARM.Collect$$_printf_percent$$00000000) for _printf_percent
    range_fft_base_main.o(.text) refers to puts.o(.text) for puts
    range_fft_base_main.o(.text) refers to output_config.o(.text) for output_port_send_data
    range_fft_base_main.o(.text) refers to at6010_clock.o(.text) for sys_clk_disable_radar
    range_fft_base_main.o(.text) refers to hal_uart.o(.text) for hal_uart_init
    range_fft_base_main.o(.text) refers to hal_dualtimer.o(.text) for hal_dualtimer_init
    range_fft_base_main.o(.text) refers to frame_header.o(.text) for write_data_frame_header
    range_fft_base_main.o(.text) refers to hal_fft.o(.text) for hal_fft_init
    range_fft_base_main.o(.text) refers to radar_cfg_hal.o(.text) for radar_fmcw_cfg
    range_fft_base_main.o(.text) refers to at6010_radar_frame.o(.text.radar_frame_trigger_mode_set) for radar_frame_trigger_mode_set
    range_fft_base_main.o(.text) refers to at6010_radar_frame.o(.text.radar_frame_start) for radar_frame_start
    range_fft_base_main.o(.text) refers to cpu-at601x.o(.ram_region) for critical_section_end
    range_fft_base_main.o(.text) refers to dflti.o(.text) for __aeabi_i2d
    range_fft_base_main.o(.text) refers to dmul.o(.text) for __aeabi_dmul
    range_fft_base_main.o(.text) refers to dcmp.o(i._dls) for __aeabi_dcmplt
    range_fft_base_main.o(.text) refers to noretval__2printf.o(.text) for __2printf
    range_fft_base_main.o(.text) refers to range_fft_base_main.o(.radar_mem) for [Anonymous Symbol]
    range_fft_base_main.o(.text) refers to range_fft_base_main.o(.bss.range_fft_buffer) for [Anonymous Symbol]
    range_fft_base_main.o(.text) refers to range_fft_base_main.o(.rodata..L__const.adc_fft_win_cfg.win_cfg) for [Anonymous Symbol]
    range_fft_base_main.o(.text) refers to range_fft_base_main.o(.bss.fifo_state) for [Anonymous Symbol]
    range_fft_base_main.o(.text) refers to range_fft_base_main.o(.rodata.str1.1) for .L.str.2
    range_fft_base_main.o(.text) refers to daddsub.o(.text) for __aeabi_dadd
    range_fft_base_main.o(.text) refers to sqrt.o(i.sqrt) for sqrt
    range_fft_base_main.o(.text) refers to dcmp.o(i._dleq) for __aeabi_dcmple
    range_fft_base_main.o(.text) refers to dcmp.o(i._dgr) for __aeabi_dcmpgt
    range_fft_base_main.o(.ARM.exidx) refers (Special) to _printf_d.o(.ARM.Collect$$_printf_percent$$00000009) for _printf_d
    range_fft_base_main.o(.ARM.exidx) refers (Special) to _printf_f.o(.ARM.Collect$$_printf_percent$$00000003) for _printf_f
    range_fft_base_main.o(.ARM.exidx) refers (Special) to printf1.o(x$fpl$printf1) for _printf_fp_dec
    range_fft_base_main.o(.ARM.exidx) refers (Special) to _printf_dec.o(.text) for _printf_int_dec
    range_fft_base_main.o(.ARM.exidx) refers (Special) to _printf_percent.o(.ARM.Collect$$_printf_percent$$00000000) for _printf_percent
    range_fft_base_main.o(.ARM.exidx) refers to range_fft_base_main.o(.text) for [Anonymous Symbol]
    range_fft_base_main.o(.data.fileData_temp) refers (Special) to _printf_d.o(.ARM.Collect$$_printf_percent$$00000009) for _printf_d
    range_fft_base_main.o(.data.fileData_temp) refers (Special) to _printf_f.o(.ARM.Collect$$_printf_percent$$00000003) for _printf_f
    range_fft_base_main.o(.data.fileData_temp) refers (Special) to printf1.o(x$fpl$printf1) for _printf_fp_dec
    range_fft_base_main.o(.data.fileData_temp) refers (Special) to _printf_dec.o(.text) for _printf_int_dec
    range_fft_base_main.o(.data.fileData_temp) refers (Special) to _printf_percent.o(.ARM.Collect$$_printf_percent$$00000000) for _printf_percent
    range_fft_base_main.o(.radar_mem) refers (Special) to _printf_d.o(.ARM.Collect$$_printf_percent$$00000009) for _printf_d
    range_fft_base_main.o(.radar_mem) refers (Special) to _printf_f.o(.ARM.Collect$$_printf_percent$$00000003) for _printf_f
    range_fft_base_main.o(.radar_mem) refers (Special) to printf1.o(x$fpl$printf1) for _printf_fp_dec
    range_fft_base_main.o(.radar_mem) refers (Special) to _printf_dec.o(.text) for _printf_int_dec
    range_fft_base_main.o(.radar_mem) refers (Special) to _printf_percent.o(.ARM.Collect$$_printf_percent$$00000000) for _printf_percent
    range_fft_base_main.o(.bss.range_fft_buffer) refers (Special) to _printf_d.o(.ARM.Collect$$_printf_percent$$00000009) for _printf_d
    range_fft_base_main.o(.bss.range_fft_buffer) refers (Special) to _printf_f.o(.ARM.Collect$$_printf_percent$$00000003) for _printf_f
    range_fft_base_main.o(.bss.range_fft_buffer) refers (Special) to printf1.o(x$fpl$printf1) for _printf_fp_dec
    range_fft_base_main.o(.bss.range_fft_buffer) refers (Special) to _printf_dec.o(.text) for _printf_int_dec
    range_fft_base_main.o(.bss.range_fft_buffer) refers (Special) to _printf_percent.o(.ARM.Collect$$_printf_percent$$00000000) for _printf_percent
    range_fft_base_main.o(.bss.fifo_state) refers (Special) to _printf_d.o(.ARM.Collect$$_printf_percent$$00000009) for _printf_d
    range_fft_base_main.o(.bss.fifo_state) refers (Special) to _printf_f.o(.ARM.Collect$$_printf_percent$$00000003) for _printf_f
    range_fft_base_main.o(.bss.fifo_state) refers (Special) to printf1.o(x$fpl$printf1) for _printf_fp_dec
    range_fft_base_main.o(.bss.fifo_state) refers (Special) to _printf_dec.o(.text) for _printf_int_dec
    range_fft_base_main.o(.bss.fifo_state) refers (Special) to _printf_percent.o(.ARM.Collect$$_printf_percent$$00000000) for _printf_percent
    range_fft_base_main.o(.rodata.str1.1) refers (Special) to _printf_d.o(.ARM.Collect$$_printf_percent$$00000009) for _printf_d
    range_fft_base_main.o(.rodata.str1.1) refers (Special) to _printf_f.o(.ARM.Collect$$_printf_percent$$00000003) for _printf_f
    range_fft_base_main.o(.rodata.str1.1) refers (Special) to printf1.o(x$fpl$printf1) for _printf_fp_dec
    range_fft_base_main.o(.rodata.str1.1) refers (Special) to _printf_dec.o(.text) for _printf_int_dec
    range_fft_base_main.o(.rodata.str1.1) refers (Special) to _printf_percent.o(.ARM.Collect$$_printf_percent$$00000000) for _printf_percent
    range_fft_base_main.o(.fft_win_mem) refers (Special) to _printf_d.o(.ARM.Collect$$_printf_percent$$00000009) for _printf_d
    range_fft_base_main.o(.fft_win_mem) refers (Special) to _printf_f.o(.ARM.Collect$$_printf_percent$$00000003) for _printf_f
    range_fft_base_main.o(.fft_win_mem) refers (Special) to printf1.o(x$fpl$printf1) for _printf_fp_dec
    range_fft_base_main.o(.fft_win_mem) refers (Special) to _printf_dec.o(.text) for _printf_int_dec
    range_fft_base_main.o(.fft_win_mem) refers (Special) to _printf_percent.o(.ARM.Collect$$_printf_percent$$00000000) for _printf_percent
    range_fft_base_main.o(.rodata..L__const.adc_fft_win_cfg.win_cfg) refers (Special) to _printf_d.o(.ARM.Collect$$_printf_percent$$00000009) for _printf_d
    range_fft_base_main.o(.rodata..L__const.adc_fft_win_cfg.win_cfg) refers (Special) to _printf_f.o(.ARM.Collect$$_printf_percent$$00000003) for _printf_f
    range_fft_base_main.o(.rodata..L__const.adc_fft_win_cfg.win_cfg) refers (Special) to printf1.o(x$fpl$printf1) for _printf_fp_dec
    range_fft_base_main.o(.rodata..L__const.adc_fft_win_cfg.win_cfg) refers (Special) to _printf_dec.o(.text) for _printf_int_dec
    range_fft_base_main.o(.rodata..L__const.adc_fft_win_cfg.win_cfg) refers (Special) to _printf_percent.o(.ARM.Collect$$_printf_percent$$00000000) for _printf_percent
    range_fft_base_main.o(.rodata..L__const.adc_fft_win_cfg.win_cfg) refers to range_fft_base_main.o(.fft_win_mem) for [Anonymous Symbol]
    range_fft_base_main.o(.ARM.use_no_argv) refers (Special) to _printf_d.o(.ARM.Collect$$_printf_percent$$00000009) for _printf_d
    range_fft_base_main.o(.ARM.use_no_argv) refers (Special) to _printf_f.o(.ARM.Collect$$_printf_percent$$00000003) for _printf_f
    range_fft_base_main.o(.ARM.use_no_argv) refers (Special) to printf1.o(x$fpl$printf1) for _printf_fp_dec
    range_fft_base_main.o(.ARM.use_no_argv) refers (Special) to _printf_dec.o(.text) for _printf_int_dec
    range_fft_base_main.o(.ARM.use_no_argv) refers (Special) to _printf_percent.o(.ARM.Collect$$_printf_percent$$00000000) for _printf_percent
    system_cmsdk_cm0plus.o(.text) refers to system_cmsdk_cm0plus.o(.data.SystemCoreClock) for SystemCoreClock
    system_cmsdk_cm0plus.o(.text) refers to at6010_cache.o(.text.cache_init) for cache_init
    system_cmsdk_cm0plus.o(.text) refers to startup_cmsdk_cm0plus.o(RESET) for __Vectors
    system_cmsdk_cm0plus.o(.ARM.exidx) refers to system_cmsdk_cm0plus.o(.text) for [Anonymous Symbol]
    hal_clock.o(.text) refers to at6010_clock.o(.text) for clock_init
    hal_clock.o(.text) refers to hal_clock.o(.bss.m_clk_inst.1) for [Anonymous Symbol]
    hal_clock.o(.text) refers to hal_clock.o(.bss.m_clk_inst.2) for [Anonymous Symbol]
    hal_clock.o(.text) refers to hal_clock.o(.data.m_clk_inst.0.0) for [Anonymous Symbol]
    hal_clock.o(.text) refers to hal_clock.o(.data.m_clk_inst.0.1) for [Anonymous Symbol]
    hal_clock.o(.text) refers to aeabi_sdiv.o(.text) for __aeabi_uidiv
    hal_clock.o(.ARM.exidx) refers to hal_clock.o(.text) for [Anonymous Symbol]
    hal_uart.o(.text) refers to at6010_gpio.o(.text) for gpio_init
    hal_uart.o(.text) refers to at6010_uart.o(.text) for uart_rx_fifo_clr
    hal_uart.o(.text) refers to at6010_clock.o(.text) for sys_clk_enable_uart0
    hal_uart.o(.text) refers to hal_uart.o(.bss.m_uart_state) for [Anonymous Symbol]
    hal_uart.o(.text) refers to hal_dma.o(.text) for hal_dma_start_it
    hal_uart.o(.ARM.exidx) refers to hal_uart.o(.text) for [Anonymous Symbol]
    hal_fft.o(.text) refers to at6010_fft.o(.text.fft_dev_init) for fft_dev_init
    hal_fft.o(.text) refers to at6010_fft.o(.text.fft_irq_callback_set) for fft_irq_callback_set
    hal_fft.o(.text) refers to hal_fft.o(.bss._fft_handle) for [Anonymous Symbol]
    hal_fft.o(.text) refers to at6010_fft.o(.text.fft_adc_fft_addr_set) for fft_adc_fft_addr_set
    hal_fft.o(.text) refers to at6010_fft.o(.text.fft_adc_rdat_addr_set) for fft_adc_rdat_addr_set
    hal_fft.o(.text) refers to at6010_fft.o(.text.fft_dev_deinit) for fft_dev_deinit
    hal_fft.o(.text) refers to at6010_fft.o(.text.fft_user_win_enable) for fft_user_win_enable
    hal_fft.o(.text) refers to at6010_fft.o(.text.fft_user_win_cfg) for fft_user_win_cfg
    hal_fft.o(.text) refers to at6010_fft.o(.text.fft_input_data_type_set) for fft_input_data_type_set
    hal_fft.o(.text) refers to at6010_fft.o(.text.fft_user_fft_cfg) for fft_user_fft_cfg
    hal_fft.o(.text) refers to at6010_fft.o(.text.fft_irq_enable) for fft_irq_enable
    hal_fft.o(.text) refers to at6010_fft.o(.text.fft_adc_win_enable) for fft_adc_win_enable
    hal_fft.o(.text) refers to at6010_fft.o(.text.fft_adc_win_cfg) for fft_adc_win_cfg
    hal_fft.o(.text) refers to at6010_cfar.o(.text.cfar_vel_dim_cfg) for cfar_vel_dim_cfg
    hal_fft.o(.text) refers to at6010_cfar.o(.text.cfar_range_dim_cfg) for cfar_range_dim_cfg
    hal_fft.o(.text) refers to at6010_cfar.o(.text.cfar_abs_threshold_cfg) for cfar_abs_threshold_cfg
    hal_fft.o(.text) refers to at6010_cfar.o(.text.cfar_det_bmap_addr_cfg) for cfar_det_bmap_addr_cfg
    hal_fft.o(.text) refers to at6010_fft.o(.text.fft_adc_rdat_cfg) for fft_adc_rdat_cfg
    hal_fft.o(.text) refers to at6010_fft.o(.text.fft_adc_rdat_enable) for fft_adc_rdat_enable
    hal_fft.o(.text) refers to at6010_fft.o(.text.fft_dc_cut_enable) for fft_dc_cut_enable
    hal_fft.o(.text) refers to at6010_fft.o(.text.fft_adc_1d_fft_cfg) for fft_adc_1d_fft_cfg
    hal_fft.o(.text) refers to at6010_fft.o(.text.fft_adc_1d_fft_enable) for fft_adc_1d_fft_enable
    hal_fft.o(.text) refers to at6010_fft.o(.text.fft_adc_2d_fft_cfg) for fft_adc_2d_fft_cfg
    hal_fft.o(.text) refers to at6010_cfar.o(.text.cfar_enable) for cfar_enable
    hal_fft.o(.text) refers to at6010_cfar.o(.text.cfar_irq_enable) for cfar_irq_enable
    hal_fft.o(.text) refers to at6010_cfar.o(.text.cfar_irq_callback_set) for cfar_irq_callback_set
    hal_fft.o(.text) refers to at6010_fft.o(.text.fft_adc_2d_fft_enable) for fft_adc_2d_fft_enable
    hal_fft.o(.text) refers to at6010_fft.o(.text.fft_user_fft_start) for fft_user_fft_start
    hal_fft.o(.text) refers to fflti.o(.text) for __aeabi_ui2f
    hal_fft.o(.text) refers to fmul.o(x$fpl$fmul) for __aeabi_fmul
    hal_fft.o(.text) refers to fdiv.o(.text) for __aeabi_fdiv
    hal_fft.o(.text) refers to f2d.o(.text) for __aeabi_f2d
    hal_fft.o(.text) refers to daddsub.o(.text) for __aeabi_dadd
    hal_fft.o(.text) refers to dfixui.o(.text) for __aeabi_d2uiz
    hal_fft.o(.ARM.exidx) refers to hal_fft.o(.text) for [Anonymous Symbol]
    radar_cfg_hal.o(.text) refers to rt_memcpy.o(.emb_text) for __aeabi_memcpy4
    radar_cfg_hal.o(.text) refers to hal_radar.o(.text) for hal_radar_init
    radar_cfg_hal.o(.text) refers to puts.o(.text) for puts
    radar_cfg_hal.o(.text) refers to radar_cfg_hal.o(.rodata..L__const.radar_fmcw_cfg.profile) for [Anonymous Symbol]
    radar_cfg_hal.o(.ARM.exidx) refers to radar_cfg_hal.o(.text) for [Anonymous Symbol]
    hal_radar.o(.text) refers to at6010_clock.o(.text) for sys_clk_enable_radar
    hal_radar.o(.text) refers to rt_memcpy.o(.text) for __aeabi_memcpy
    hal_radar.o(.text) refers to at6010_radar.o(.text.radar_init) for radar_init
    hal_radar.o(.text) refers to at6010_radar_frame.o(.text.radar_tx_profile_config) for radar_tx_profile_config
    hal_radar.o(.text) refers to at6010_radar_frame.o(.text.radar_chirp_profile_config) for radar_chirp_profile_config
    hal_radar.o(.text) refers to at6010_radar_frame.o(.text.radar_subframe_profile_config) for radar_subframe_profile_config
    hal_radar.o(.text) refers to at6010_radar_frame.o(.text.radar_frame_config) for radar_frame_config
    hal_radar.o(.text) refers to at6010_radar_frame.o(.text.radar_faston_time_set) for radar_faston_time_set
    hal_radar.o(.text) refers to at6010_radar_adc.o(.text.radar_filter_cfg) for radar_filter_cfg
    hal_radar.o(.text) refers to at6010_radar_adc.o(.text.radar_filter_dma_cfg) for radar_filter_dma_cfg
    hal_radar.o(.text) refers to at6010_radar.o(.text.radar_burst_init) for radar_burst_init
    hal_radar.o(.text) refers to at6010_radar_frame.o(.text.radar_frame_stop) for radar_frame_stop
    hal_radar.o(.text) refers to at6010_radar.o(.text.radar_rf_pwr_off) for radar_rf_pwr_off
    hal_radar.o(.text) refers to at6010_radar.o(.text.radar_rf_pwr_on) for radar_rf_pwr_on
    hal_radar.o(.text) refers to at6010_radar_frame.o(.text.radar_frame_start) for radar_frame_start
    hal_radar.o(.text) refers to at6010_radar.o(.text.radar_lp_timer_get) for radar_lp_timer_get
    hal_radar.o(.text) refers to hal_timer.o(.text) for hal_timer_get_free
    hal_radar.o(.text) refers to at6010_radar.o(.text.radar_lp_init) for radar_lp_init
    hal_radar.o(.text) refers to at6010_radar.o(.text.radar_lp_pause) for radar_lp_pause
    hal_radar.o(.text) refers to at6010_radar.o(.text.radar_ulp_init) for radar_ulp_init
    hal_radar.o(.text) refers to at6010_radar.o(.text.radar_ulp_deinit) for radar_ulp_deinit
    hal_radar.o(.text) refers to hal_radar.o(.rodata.radar_param_func) for [Anonymous Symbol]
    hal_radar.o(.ARM.exidx) refers to hal_radar.o(.text) for [Anonymous Symbol]
    hal_radar.o(.rodata.radar_param_func) refers to at6010_radar.o(.text.radar_ant_rx_num_set) for radar_ant_rx_num_set
    hal_radar.o(.rodata.radar_param_func) refers to at6010_radar.o(.text.radar_ant_rx_num_get) for radar_ant_rx_num_get
    hal_radar.o(.rodata.radar_param_func) refers to at6010_radar.o(.text.radar_param_hpf1_gain_set) for radar_param_hpf1_gain_set
    hal_radar.o(.rodata.radar_param_func) refers to at6010_radar.o(.text.radar_param_hpf1_gain_get) for radar_param_hpf1_gain_get
    hal_radar.o(.rodata.radar_param_func) refers to at6010_radar.o(.text.radar_param_hpf1_freq_set) for radar_param_hpf1_freq_set
    hal_radar.o(.rodata.radar_param_func) refers to at6010_radar.o(.text.radar_param_hpf1_freq_get) for radar_param_hpf1_freq_get
    hal_radar.o(.rodata.radar_param_func) refers to at6010_radar.o(.text.radar_param_hpf2_gain_set) for radar_param_hpf2_gain_set
    hal_radar.o(.rodata.radar_param_func) refers to at6010_radar.o(.text.radar_param_hpf2_gain_get) for radar_param_hpf2_gain_get
    hal_radar.o(.rodata.radar_param_func) refers to at6010_radar.o(.text.radar_param_hpf2_freq_set) for radar_param_hpf2_freq_set
    hal_radar.o(.rodata.radar_param_func) refers to at6010_radar.o(.text.radar_param_hpf2_freq_get) for radar_param_hpf2_freq_get
    hal_radar.o(.rodata.radar_param_func) refers to at6010_radar.o(.text.radar_param_lpf_gain_set) for radar_param_lpf_gain_set
    hal_radar.o(.rodata.radar_param_func) refers to at6010_radar.o(.text.radar_param_lpf_gain_get) for radar_param_lpf_gain_get
    hal_radar.o(.rodata.radar_param_func) refers to at6010_radar.o(.text.radar_param_lpf_freq_set) for radar_param_lpf_freq_set
    hal_radar.o(.rodata.radar_param_func) refers to at6010_radar.o(.text.radar_param_lpf_freq_get) for radar_param_lpf_freq_get
    hal_radar.o(.rodata.radar_param_func) refers to at6010_radar_frame.o(.text.radar_frame_repeat_times_set) for radar_frame_repeat_times_set
    hal_radar.o(.rodata.radar_param_func) refers to at6010_radar_frame.o(.text.radar_frame_repeat_times_get) for radar_frame_repeat_times_get
    hal_radar.o(.rodata.radar_param_func) refers to at6010_radar_frame.o(.text.radar_frame_interval_set) for radar_frame_interval_set
    hal_radar.o(.rodata.radar_param_func) refers to at6010_radar_frame.o(.text.radar_frame_interval_get) for radar_frame_interval_get
    hal_timer.o(.text) refers to at6010_clock.o(.text) for sys_clk_enable_timer0
    hal_timer.o(.text) refers to at6010_timer.o(.text) for timer_init
    hal_timer.o(.text) refers to hal_timer.o(.bss.m_timer_cfg) for [Anonymous Symbol]
    hal_timer.o(.text) refers to hal_clock.o(.text) for hal_get_system_clk
    hal_timer.o(.text) refers to aeabi_sdiv.o(.text) for __aeabi_uidiv
    hal_timer.o(.ARM.exidx) refers to hal_timer.o(.text) for [Anonymous Symbol]
    hal_dualtimer.o(.text) refers to at6010_dualtimer.o(.text) for dualtimer_init
    hal_dualtimer.o(.text) refers to at6010_clock.o(.text) for clk_mcu_get
    hal_dualtimer.o(.text) refers to aeabi_sdiv.o(.text) for __aeabi_uidiv
    hal_dualtimer.o(.ARM.exidx) refers to hal_dualtimer.o(.text) for [Anonymous Symbol]
    hal_dma.o(.text) refers (Special) to _printf_d.o(.ARM.Collect$$_printf_percent$$00000009) for _printf_d
    hal_dma.o(.text) refers (Special) to _printf_dec.o(.text) for _printf_int_dec
    hal_dma.o(.text) refers (Special) to _printf_percent.o(.ARM.Collect$$_printf_percent$$00000000) for _printf_percent
    hal_dma.o(.text) refers (Special) to _printf_s.o(.ARM.Collect$$_printf_percent$$00000014) for _printf_s
    hal_dma.o(.text) refers (Special) to _printf_str.o(.text) for _printf_str
    hal_dma.o(.text) refers to at6010_dma.o(.text.dma_disable_channel) for dma_disable_channel
    hal_dma.o(.text) refers to at6010_dma.o(.text.dma_is_active_channel) for dma_is_active_channel
    hal_dma.o(.text) refers to at6010_dma.o(.text.dma_set_int_en) for dma_set_int_en
    hal_dma.o(.text) refers to at6010_dma.o(.text.dma_disable_it_tfr) for dma_disable_it_tfr
    hal_dma.o(.text) refers to at6010_dma.o(.text.dma_disable_it_block) for dma_disable_it_block
    hal_dma.o(.text) refers to at6010_dma.o(.text.dma_disable_it_error) for dma_disable_it_error
    hal_dma.o(.text) refers to at6010_dma.o(.text.dma_disable_it_src_tran) for dma_disable_it_src_tran
    hal_dma.o(.text) refers to at6010_dma.o(.text.dma_disable_it_dst_tran) for dma_disable_it_dst_tran
    hal_dma.o(.text) refers to at6010_dma.o(.text.dma_clear_it_tfr) for dma_clear_it_tfr
    hal_dma.o(.text) refers to at6010_dma.o(.text.dma_clear_it_block) for dma_clear_it_block
    hal_dma.o(.text) refers to at6010_dma.o(.text.dma_clear_it_error) for dma_clear_it_error
    hal_dma.o(.text) refers to at6010_dma.o(.text.dma_clear_it_src_tran) for dma_clear_it_src_tran
    hal_dma.o(.text) refers to at6010_dma.o(.text.dma_clear_it_dst_tran) for dma_clear_it_dst_tran
    hal_dma.o(.text) refers to at6010_dma.o(.text.dma_set_linked_list_loc) for dma_set_linked_list_loc
    hal_dma.o(.text) refers to at6010_dma.o(.text.dma_set_src_linked_list_en) for dma_set_src_linked_list_en
    hal_dma.o(.text) refers to at6010_dma.o(.text.dma_set_dst_linked_list_en) for dma_set_dst_linked_list_en
    hal_dma.o(.text) refers to at6010_dma.o(.text.dma_set_src_realod_en) for dma_set_src_realod_en
    hal_dma.o(.text) refers to at6010_dma.o(.text.dma_set_dst_reload_en) for dma_set_dst_reload_en
    hal_dma.o(.text) refers to at6010_dma.o(.text.dma_set_src_tr_width) for dma_set_src_tr_width
    hal_dma.o(.text) refers to at6010_dma.o(.text.dma_set_dst_tr_width) for dma_set_dst_tr_width
    hal_dma.o(.text) refers to at6010_dma.o(.text.dma_set_src_addr_inc) for dma_set_src_addr_inc
    hal_dma.o(.text) refers to at6010_dma.o(.text.dma_set_dst_addr_inc) for dma_set_dst_addr_inc
    hal_dma.o(.text) refers to at6010_dma.o(.text.dma_set_src_burst_length) for dma_set_src_burst_length
    hal_dma.o(.text) refers to at6010_dma.o(.text.dma_set_dst_burst_length) for dma_set_dst_burst_length
    hal_dma.o(.text) refers to at6010_dma.o(.text.dma_set_src_gather_en) for dma_set_src_gather_en
    hal_dma.o(.text) refers to at6010_dma.o(.text.dma_set_src_gather_cnt) for dma_set_src_gather_cnt
    hal_dma.o(.text) refers to at6010_dma.o(.text.dma_set_src_gather_interval) for dma_set_src_gather_interval
    hal_dma.o(.text) refers to at6010_dma.o(.text.dma_set_dst_scatter_en) for dma_set_dst_scatter_en
    hal_dma.o(.text) refers to at6010_dma.o(.text.dma_set_dst_scatter_cnt) for dma_set_dst_scatter_cnt
    hal_dma.o(.text) refers to at6010_dma.o(.text.dma_set_dst_scatter_interval) for dma_set_dst_scatter_interval
    hal_dma.o(.text) refers to at6010_dma.o(.text.dma_set_flowctrl) for dma_set_flowctrl
    hal_dma.o(.text) refers to at6010_dma.o(.text.dma_set_channel_priority) for dma_set_channel_priority
    hal_dma.o(.text) refers to at6010_dma.o(.text.dma_set_src_handshake_type) for dma_set_src_handshake_type
    hal_dma.o(.text) refers to at6010_dma.o(.text.dma_set_dst_handshake_type) for dma_set_dst_handshake_type
    hal_dma.o(.text) refers to at6010_dma.o(.text.dma_set_src_handshake_if) for dma_set_src_handshake_if
    hal_dma.o(.text) refers to at6010_dma.o(.text.dma_set_src_handshake_polarity) for dma_set_src_handshake_polarity
    hal_dma.o(.text) refers to at6010_dma.o(.text.dma_set_dst_handshake_if) for dma_set_dst_handshake_if
    hal_dma.o(.text) refers to at6010_dma.o(.text.dma_set_dst_handshake_polarity) for dma_set_dst_handshake_polarity
    hal_dma.o(.text) refers to at6010_dma.o(.text.dma_set_src_status_update_en) for dma_set_src_status_update_en
    hal_dma.o(.text) refers to at6010_dma.o(.text.dma_set_dst_status_update_en) for dma_set_dst_status_update_en
    hal_dma.o(.text) refers to at6010_dma.o(.text.dma_set_src_status_addr) for dma_set_src_status_addr
    hal_dma.o(.text) refers to at6010_dma.o(.text.dma_set_dst_status_addr) for dma_set_dst_status_addr
    hal_dma.o(.text) refers to at6010_dma.o(.text.dma_set_fifo_mode) for dma_set_fifo_mode
    hal_dma.o(.text) refers to at6010_dma.o(.text.dma_set_flow_control_mode) for dma_set_flow_control_mode
    hal_dma.o(.text) refers to at6010_dma.o(.text.dma_enable_global) for dma_enable_global
    hal_dma.o(.text) refers to hal_dma.o(.rodata.str1.1) for .L__func__.hal_dma_init
    hal_dma.o(.text) refers to noretval__2printf.o(.text) for __2printf
    hal_dma.o(.text) refers to at6010_dma.o(.text.dma_set_src_addr) for dma_set_src_addr
    hal_dma.o(.text) refers to at6010_dma.o(.text.dma_set_dst_addr) for dma_set_dst_addr
    hal_dma.o(.text) refers to at6010_dma.o(.text.dma_set_block_transfer_size) for dma_set_block_transfer_size
    hal_dma.o(.text) refers to at6010_dma.o(.text.dma_set_protection_control) for dma_set_protection_control
    hal_dma.o(.text) refers to at6010_dma.o(.text.dma_set_lock_bus) for dma_set_lock_bus
    hal_dma.o(.text) refers to at6010_dma.o(.text.dma_set_lock_channel) for dma_set_lock_channel
    hal_dma.o(.text) refers to at6010_dma.o(.text.dma_set_lock_bus_level) for dma_set_lock_bus_level
    hal_dma.o(.text) refers to at6010_dma.o(.text.dma_set_lock_channel_level) for dma_set_lock_channel_level
    hal_dma.o(.text) refers to at6010_dma.o(.text.dma_set_channel_suspend) for dma_set_channel_suspend
    hal_dma.o(.text) refers to rt_memclr.o(.text) for __aeabi_memclr4
    hal_dma.o(.text) refers to at6010_dma.o(.text.dma_clear_block_done_flag) for dma_clear_block_done_flag
    hal_dma.o(.text) refers to at6010_dma.o(.text.dma_enable_channel) for dma_enable_channel
    hal_dma.o(.text) refers to at6010_dma.o(.text.dma_get_raw_tfr) for dma_get_raw_tfr
    hal_dma.o(.text) refers to at6010_dma.o(.text.dma_enable_it_error) for dma_enable_it_error
    hal_dma.o(.text) refers to at6010_dma.o(.text.dma_enable_it_block) for dma_enable_it_block
    hal_dma.o(.text) refers to at6010_dma.o(.text.dma_enable_it_tfr) for dma_enable_it_tfr
    hal_dma.o(.text) refers to at6010_dma.o(.text.dma_enable_it_src_tran) for dma_enable_it_src_tran
    hal_dma.o(.text) refers to at6010_dma.o(.text.dma_enable_it_dst_tran) for dma_enable_it_dst_tran
    hal_dma.o(.text) refers to at6010_dma.o(.text.dma_get_status_error) for dma_get_status_error
    hal_dma.o(.text) refers to at6010_dma.o(.text.dma_is_enabled_it_error) for dma_is_enabled_it_error
    hal_dma.o(.text) refers to at6010_dma.o(.text.dma_get_status_tfr) for dma_get_status_tfr
    hal_dma.o(.text) refers to at6010_dma.o(.text.dma_is_enabled_it_tfr) for dma_is_enabled_it_tfr
    hal_dma.o(.text) refers to at6010_dma.o(.text.dma_get_status_block) for dma_get_status_block
    hal_dma.o(.text) refers to at6010_dma.o(.text.dma_is_enabled_it_block) for dma_is_enabled_it_block
    hal_dma.o(.text) refers to at6010_dma.o(.text.dma_get_status_src_tran) for dma_get_status_src_tran
    hal_dma.o(.text) refers to at6010_dma.o(.text.dma_is_enabled_it_src_tran) for dma_is_enabled_it_src_tran
    hal_dma.o(.text) refers to at6010_dma.o(.text.dma_get_status_dst_tran) for dma_get_status_dst_tran
    hal_dma.o(.text) refers to at6010_dma.o(.text.dma_is_enabled_it_dst_tran) for dma_is_enabled_it_dst_tran
    hal_dma.o(.ARM.exidx) refers (Special) to _printf_d.o(.ARM.Collect$$_printf_percent$$00000009) for _printf_d
    hal_dma.o(.ARM.exidx) refers (Special) to _printf_dec.o(.text) for _printf_int_dec
    hal_dma.o(.ARM.exidx) refers (Special) to _printf_percent.o(.ARM.Collect$$_printf_percent$$00000000) for _printf_percent
    hal_dma.o(.ARM.exidx) refers (Special) to _printf_s.o(.ARM.Collect$$_printf_percent$$00000014) for _printf_s
    hal_dma.o(.ARM.exidx) refers (Special) to _printf_str.o(.text) for _printf_str
    hal_dma.o(.ARM.exidx) refers to hal_dma.o(.text) for [Anonymous Symbol]
    hal_dma.o(.rodata.str1.1) refers (Special) to _printf_d.o(.ARM.Collect$$_printf_percent$$00000009) for _printf_d
    hal_dma.o(.rodata.str1.1) refers (Special) to _printf_dec.o(.text) for _printf_int_dec
    hal_dma.o(.rodata.str1.1) refers (Special) to _printf_percent.o(.ARM.Collect$$_printf_percent$$00000000) for _printf_percent
    hal_dma.o(.rodata.str1.1) refers (Special) to _printf_s.o(.ARM.Collect$$_printf_percent$$00000014) for _printf_s
    hal_dma.o(.rodata.str1.1) refers (Special) to _printf_str.o(.text) for _printf_str
    hal_spi.o(.text) refers (Special) to _printf_d.o(.ARM.Collect$$_printf_percent$$00000009) for _printf_d
    hal_spi.o(.text) refers (Special) to _printf_dec.o(.text) for _printf_int_dec
    hal_spi.o(.text) refers (Special) to _printf_percent.o(.ARM.Collect$$_printf_percent$$00000000) for _printf_percent
    hal_spi.o(.text) refers (Special) to _printf_s.o(.ARM.Collect$$_printf_percent$$00000014) for _printf_s
    hal_spi.o(.text) refers (Special) to _printf_str.o(.text) for _printf_str
    hal_spi.o(.text) refers to at6010_spi.o(.text.spi_disable_it_all) for spi_disable_it_all
    hal_spi.o(.text) refers to at6010_spi.o(.text.spi_disable) for spi_disable
    hal_spi.o(.text) refers to at6010_spi.o(.text.spi_set_work_mode) for spi_set_work_mode
    hal_spi.o(.text) refers to at6010_spi.o(.text.spi_set_clock_polarity) for spi_set_clock_polarity
    hal_spi.o(.text) refers to at6010_spi.o(.text.spi_set_clock_phase) for spi_set_clock_phase
    hal_spi.o(.text) refers to at6010_spi.o(.text.spi_set_data_frame_size) for spi_set_data_frame_size
    hal_spi.o(.text) refers to at6010_spi.o(.text.spi_set_frame_protocol) for spi_set_frame_protocol
    hal_spi.o(.text) refers to at6010_spi.o(.text.spi_set_spi_frame_format) for spi_set_spi_frame_format
    hal_spi.o(.text) refers to at6010_spi.o(.text.spi_set_transfer_mode) for spi_set_transfer_mode
    hal_spi.o(.text) refers to at6010_clock.o(.text) for clk_mcu_get
    hal_spi.o(.text) refers to aeabi_sdiv.o(.text) for __aeabi_uidiv
    hal_spi.o(.text) refers to at6010_spi.o(.text.spi_set_sckdiv) for spi_set_sckdiv
    hal_spi.o(.text) refers to at6010_spi.o(.text.spi_set_slave_select_toggle_enable) for spi_set_slave_select_toggle_enable
    hal_spi.o(.text) refers to at6010_spi.o(.text.spi_tx_dma_enable) for spi_tx_dma_enable
    hal_spi.o(.text) refers to at6010_spi.o(.text.spi_set_tx_dma_data_lvl) for spi_set_tx_dma_data_lvl
    hal_spi.o(.text) refers to at6010_spi.o(.text.spi_rx_dma_enable) for spi_rx_dma_enable
    hal_spi.o(.text) refers to at6010_spi.o(.text.spi_set_rx_dma_data_lvl) for spi_set_rx_dma_data_lvl
    hal_spi.o(.text) refers to hal_spi.o(.rodata.str1.1) for .L__func__.hal_spi_init
    hal_spi.o(.text) refers to noretval__2printf.o(.text) for __2printf
    hal_spi.o(.text) refers to at6010_spi.o(.text.spi_disable_slave) for spi_disable_slave
    hal_spi.o(.text) refers to at6010_spi.o(.text.spi_is_enable) for spi_is_enable
    hal_spi.o(.text) refers to at6010_spi.o(.text.spi_enable) for spi_enable
    hal_spi.o(.text) refers to at6010_spi.o(.text.spi_enable_slave) for spi_enable_slave
    hal_spi.o(.text) refers to at6010_spi.o(.text.spi_write_data) for spi_write_data
    hal_spi.o(.text) refers to at6010_spi.o(.text.spi_get_status_tx_fifo_not_full) for spi_get_status_tx_fifo_not_full
    hal_spi.o(.text) refers to at6010_spi.o(.text.spi_get_status_busy) for spi_get_status_busy
    hal_spi.o(.text) refers to at6010_spi.o(.text.spi_set_number_of_data_frames) for spi_set_number_of_data_frames
    hal_spi.o(.text) refers to at6010_spi.o(.text.spi_get_status_rx_fifo_not_empty) for spi_get_status_rx_fifo_not_empty
    hal_spi.o(.text) refers to at6010_spi.o(.text.spi_read_data) for spi_read_data
    hal_spi.o(.text) refers to at6010_spi.o(.text.spi_enable_it_tx_fifo_empty) for spi_enable_it_tx_fifo_empty
    hal_spi.o(.text) refers to at6010_spi.o(.text.spi_enable_it_tx_fifo_overflow) for spi_enable_it_tx_fifo_overflow
    hal_spi.o(.text) refers to at6010_spi.o(.text.spi_enable_it_spi_tx_err) for spi_enable_it_spi_tx_err
    hal_spi.o(.text) refers to at6010_spi.o(.text.spi_disable_it_tx_fifo_empty) for spi_disable_it_tx_fifo_empty
    hal_spi.o(.text) refers to at6010_spi.o(.text.spi_disable_it_tx_fifo_overflow) for spi_disable_it_tx_fifo_overflow
    hal_spi.o(.text) refers to at6010_spi.o(.text.spi_enable_it_rx_fifo_full) for spi_enable_it_rx_fifo_full
    hal_spi.o(.text) refers to at6010_spi.o(.text.spi_enable_it_rx_fifo_overflow) for spi_enable_it_rx_fifo_overflow
    hal_spi.o(.text) refers to at6010_spi.o(.text.spi_enable_it_rx_fifo_underflow) for spi_enable_it_rx_fifo_underflow
    hal_spi.o(.text) refers to at6010_spi.o(.text.spi_disable_it_rx_fifo_full) for spi_disable_it_rx_fifo_full
    hal_spi.o(.text) refers to at6010_spi.o(.text.spi_disable_it_rx_fifo_overflow) for spi_disable_it_rx_fifo_overflow
    hal_spi.o(.text) refers to at6010_spi.o(.text.spi_disable_it_rx_fifo_underflow) for spi_disable_it_rx_fifo_underflow
    hal_spi.o(.text) refers to at6010_spi.o(.text.spi_disable_it) for spi_disable_it
    hal_spi.o(.text) refers to at6010_spi.o(.text.spi_get_dr_addr) for spi_get_dr_addr
    hal_spi.o(.text) refers to hal_dma.o(.text) for hal_dma_start_it
    hal_spi.o(.text) refers to at6010_spi.o(.text.spi_disable_it_spi_tx_err) for spi_disable_it_spi_tx_err
    hal_spi.o(.text) refers to at6010_spi.o(.text.spi_get_status) for spi_get_status
    hal_spi.o(.text) refers to at6010_spi.o(.text.spi_get_it_status) for spi_get_it_status
    hal_spi.o(.text) refers to at6010_spi.o(.text.spi_is_active_it) for spi_is_active_it
    hal_spi.o(.text) refers to at6010_spi.o(.text.spi_is_enable_it) for spi_is_enable_it
    hal_spi.o(.text) refers to at6010_spi.o(.text.spi_get_status_rx_fifo_full) for spi_get_status_rx_fifo_full
    hal_spi.o(.text) refers to at6010_spi.o(.text.spi_get_status_tx_fifo_empty) for spi_get_status_tx_fifo_empty
    hal_spi.o(.text) refers to at6010_spi.o(.text.spi_clear_rx_overflow) for spi_clear_rx_overflow
    hal_spi.o(.text) refers to at6010_spi.o(.text.spi_clear_rx_underflow) for spi_clear_rx_underflow
    hal_spi.o(.text) refers to at6010_spi.o(.text.spi_clear_it_tx_fifo_err) for spi_clear_it_tx_fifo_err
    hal_spi.o(.ARM.exidx) refers (Special) to _printf_d.o(.ARM.Collect$$_printf_percent$$00000009) for _printf_d
    hal_spi.o(.ARM.exidx) refers (Special) to _printf_dec.o(.text) for _printf_int_dec
    hal_spi.o(.ARM.exidx) refers (Special) to _printf_percent.o(.ARM.Collect$$_printf_percent$$00000000) for _printf_percent
    hal_spi.o(.ARM.exidx) refers (Special) to _printf_s.o(.ARM.Collect$$_printf_percent$$00000014) for _printf_s
    hal_spi.o(.ARM.exidx) refers (Special) to _printf_str.o(.text) for _printf_str
    hal_spi.o(.ARM.exidx) refers to hal_spi.o(.text) for [Anonymous Symbol]
    hal_spi.o(.rodata.str1.1) refers (Special) to _printf_d.o(.ARM.Collect$$_printf_percent$$00000009) for _printf_d
    hal_spi.o(.rodata.str1.1) refers (Special) to _printf_dec.o(.text) for _printf_int_dec
    hal_spi.o(.rodata.str1.1) refers (Special) to _printf_percent.o(.ARM.Collect$$_printf_percent$$00000000) for _printf_percent
    hal_spi.o(.rodata.str1.1) refers (Special) to _printf_s.o(.ARM.Collect$$_printf_percent$$00000014) for _printf_s
    hal_spi.o(.rodata.str1.1) refers (Special) to _printf_str.o(.text) for _printf_str
    at6010_uart.o(.text) refers to at6010_clock.o(.text) for clk_mcu_get
    at6010_uart.o(.text) refers to aeabi_sdiv.o(.text) for __aeabi_uidiv
    at6010_uart.o(.text) refers to at6010_uart.o(.rodata.m_uart_hwd) for [Anonymous Symbol]
    at6010_uart.o(.text) refers to at6010_uart.o(.bss.m_uart_hdl) for [Anonymous Symbol]
    at6010_uart.o(.ARM.exidx) refers to at6010_uart.o(.text) for [Anonymous Symbol]
    at6010_clock.o(.text) refers to at6010_clock.o(.bss.m_clk_mcu) for [Anonymous Symbol]
    at6010_clock.o(.text) refers to aeabi_sdiv.o(.text) for __aeabi_uidiv
    at6010_clock.o(.ARM.exidx) refers to at6010_clock.o(.text) for [Anonymous Symbol]
    at6010_irq.o(.text) refers to at6010_timer.o(.text) for timer_isr
    at6010_irq.o(.text) refers to at6010_dualtimer.o(.text) for dualtimer_hdl_proc
    at6010_irq.o(.text) refers to at6010_radar.o(.text.radar_isr) for radar_isr
    at6010_irq.o(.ARM.exidx) refers to at6010_irq.o(.text) for [Anonymous Symbol]
    at6010_gpio.o(.text) refers to at6010_gpio.o(.bss.m_gpio_hdl) for [Anonymous Symbol]
    at6010_gpio.o(.ARM.exidx) refers to at6010_gpio.o(.text) for [Anonymous Symbol]
    cpu-at601x.o(.ram_region) refers to cpu-at601x.o(.bss._irqs_disabled_counter) for [Anonymous Symbol]
    cpu-at601x.o(.ram_region) refers to cpu-at601x.o(.bss._irqs_disabled_flag) for [Anonymous Symbol]
    cpu-at601x.o(.ARM.exidx.ram_region) refers to cpu-at601x.o(.ram_region) for [Anonymous Symbol]
    at6010_timer.o(.text) refers to at6010_timer.o(.data.m_timer_dev) for [Anonymous Symbol]
    at6010_timer.o(.ARM.exidx) refers to at6010_timer.o(.text) for [Anonymous Symbol]
    at6010_dualtimer.o(.text) refers to at6010_clock.o(.text) for sys_clk_enable_dualtimer
    at6010_dualtimer.o(.text) refers to at6010_dualtimer.o(.data.m_dualtimer_dev) for [Anonymous Symbol]
    at6010_dualtimer.o(.ARM.exidx) refers to at6010_dualtimer.o(.text) for [Anonymous Symbol]
    output_config.o(.text) refers to hal_uart.o(.text) for hal_uart_init
    output_config.o(.text) refers to hal_dma.o(.text) for hal_dma_init_struct_init
    output_config.o(.text) refers to at6010_clock.o(.text) for sys_clk_disable_dma
    output_config.o(.text) refers to output_config.o(.bss.uart_handle) for [Anonymous Symbol]
    output_config.o(.text) refers to output_config.o(.bss.hdmax) for [Anonymous Symbol]
    output_config.o(.ARM.exidx) refers to output_config.o(.text) for [Anonymous Symbol]
    frame_header.o(.text) refers to rt_memclr.o(.text) for __aeabi_memclr
    frame_header.o(.ARM.exidx) refers to frame_header.o(.text) for [Anonymous Symbol]
    at6010_cache.o(.text.cache_init) refers to at6010_cache.o(.text.cache_flush) for cache_flush
    at6010_cache.o(.ARM.exidx.text.cache_init) refers to at6010_cache.o(.text.cache_init) for [Anonymous Symbol]
    at6010_cache.o(.ARM.exidx.text.cache_flush) refers to at6010_cache.o(.text.cache_flush) for [Anonymous Symbol]
    at6010_dma.o(.text.dma_set_src_addr) refers to at6010_dma.o(.rodata.cst8) for [Anonymous Symbol]
    at6010_dma.o(.ARM.exidx.text.dma_set_src_addr) refers to at6010_dma.o(.text.dma_set_src_addr) for [Anonymous Symbol]
    at6010_dma.o(.text.dma_get_src_addr) refers to at6010_dma.o(.rodata.cst8) for [Anonymous Symbol]
    at6010_dma.o(.ARM.exidx.text.dma_get_src_addr) refers to at6010_dma.o(.text.dma_get_src_addr) for [Anonymous Symbol]
    at6010_dma.o(.text.dma_set_dst_addr) refers to at6010_dma.o(.rodata.cst8) for [Anonymous Symbol]
    at6010_dma.o(.ARM.exidx.text.dma_set_dst_addr) refers to at6010_dma.o(.text.dma_set_dst_addr) for [Anonymous Symbol]
    at6010_dma.o(.text.dma_get_dst_addr) refers to at6010_dma.o(.rodata.cst8) for [Anonymous Symbol]
    at6010_dma.o(.ARM.exidx.text.dma_get_dst_addr) refers to at6010_dma.o(.text.dma_get_dst_addr) for [Anonymous Symbol]
    at6010_dma.o(.text.dma_set_linked_list_loc) refers to at6010_dma.o(.rodata.cst8) for [Anonymous Symbol]
    at6010_dma.o(.ARM.exidx.text.dma_set_linked_list_loc) refers to at6010_dma.o(.text.dma_set_linked_list_loc) for [Anonymous Symbol]
    at6010_dma.o(.text.dma_get_linked_list_loc) refers to at6010_dma.o(.rodata.cst8) for [Anonymous Symbol]
    at6010_dma.o(.ARM.exidx.text.dma_get_linked_list_loc) refers to at6010_dma.o(.text.dma_get_linked_list_loc) for [Anonymous Symbol]
    at6010_dma.o(.text.dma_set_src_linked_list_en) refers to at6010_dma.o(.rodata.cst8) for [Anonymous Symbol]
    at6010_dma.o(.ARM.exidx.text.dma_set_src_linked_list_en) refers to at6010_dma.o(.text.dma_set_src_linked_list_en) for [Anonymous Symbol]
    at6010_dma.o(.text.dma_get_src_linked_list_en) refers to at6010_dma.o(.rodata.cst8) for [Anonymous Symbol]
    at6010_dma.o(.ARM.exidx.text.dma_get_src_linked_list_en) refers to at6010_dma.o(.text.dma_get_src_linked_list_en) for [Anonymous Symbol]
    at6010_dma.o(.text.dma_set_dst_linked_list_en) refers to at6010_dma.o(.rodata.cst8) for [Anonymous Symbol]
    at6010_dma.o(.ARM.exidx.text.dma_set_dst_linked_list_en) refers to at6010_dma.o(.text.dma_set_dst_linked_list_en) for [Anonymous Symbol]
    at6010_dma.o(.text.dma_get_dst_linked_list_en) refers to at6010_dma.o(.rodata.cst8) for [Anonymous Symbol]
    at6010_dma.o(.ARM.exidx.text.dma_get_dst_linked_list_en) refers to at6010_dma.o(.text.dma_get_dst_linked_list_en) for [Anonymous Symbol]
    at6010_dma.o(.text.dma_clear_block_done_flag) refers to at6010_dma.o(.rodata.cst8) for [Anonymous Symbol]
    at6010_dma.o(.ARM.exidx.text.dma_clear_block_done_flag) refers to at6010_dma.o(.text.dma_clear_block_done_flag) for [Anonymous Symbol]
    at6010_dma.o(.text.dma_is_block_done) refers to at6010_dma.o(.rodata.cst8) for [Anonymous Symbol]
    at6010_dma.o(.ARM.exidx.text.dma_is_block_done) refers to at6010_dma.o(.text.dma_is_block_done) for [Anonymous Symbol]
    at6010_dma.o(.text.dma_set_block_transfer_size) refers to at6010_dma.o(.rodata.cst8) for [Anonymous Symbol]
    at6010_dma.o(.ARM.exidx.text.dma_set_block_transfer_size) refers to at6010_dma.o(.text.dma_set_block_transfer_size) for [Anonymous Symbol]
    at6010_dma.o(.text.dma_get_block_transfer_size) refers to at6010_dma.o(.rodata.cst8) for [Anonymous Symbol]
    at6010_dma.o(.ARM.exidx.text.dma_get_block_transfer_size) refers to at6010_dma.o(.text.dma_get_block_transfer_size) for [Anonymous Symbol]
    at6010_dma.o(.text.dma_set_flowctrl) refers to at6010_dma.o(.rodata.cst8) for [Anonymous Symbol]
    at6010_dma.o(.ARM.exidx.text.dma_set_flowctrl) refers to at6010_dma.o(.text.dma_set_flowctrl) for [Anonymous Symbol]
    at6010_dma.o(.text.dma_get_flowctrl) refers to at6010_dma.o(.rodata.cst8) for [Anonymous Symbol]
    at6010_dma.o(.ARM.exidx.text.dma_get_flowctrl) refers to at6010_dma.o(.text.dma_get_flowctrl) for [Anonymous Symbol]
    at6010_dma.o(.text.dma_set_src_burst_length) refers to at6010_dma.o(.rodata.cst8) for [Anonymous Symbol]
    at6010_dma.o(.ARM.exidx.text.dma_set_src_burst_length) refers to at6010_dma.o(.text.dma_set_src_burst_length) for [Anonymous Symbol]
    at6010_dma.o(.text.dma_get_src_burst_length) refers to at6010_dma.o(.rodata.cst8) for [Anonymous Symbol]
    at6010_dma.o(.ARM.exidx.text.dma_get_src_burst_length) refers to at6010_dma.o(.text.dma_get_src_burst_length) for [Anonymous Symbol]
    at6010_dma.o(.text.dma_set_dst_burst_length) refers to at6010_dma.o(.rodata.cst8) for [Anonymous Symbol]
    at6010_dma.o(.ARM.exidx.text.dma_set_dst_burst_length) refers to at6010_dma.o(.text.dma_set_dst_burst_length) for [Anonymous Symbol]
    at6010_dma.o(.text.dma_get_dst_burst_length) refers to at6010_dma.o(.rodata.cst8) for [Anonymous Symbol]
    at6010_dma.o(.ARM.exidx.text.dma_get_dst_burst_length) refers to at6010_dma.o(.text.dma_get_dst_burst_length) for [Anonymous Symbol]
    at6010_dma.o(.text.dma_set_src_addr_inc) refers to at6010_dma.o(.rodata.cst8) for [Anonymous Symbol]
    at6010_dma.o(.ARM.exidx.text.dma_set_src_addr_inc) refers to at6010_dma.o(.text.dma_set_src_addr_inc) for [Anonymous Symbol]
    at6010_dma.o(.text.dma_get_src_addr_inc) refers to at6010_dma.o(.rodata.cst8) for [Anonymous Symbol]
    at6010_dma.o(.ARM.exidx.text.dma_get_src_addr_inc) refers to at6010_dma.o(.text.dma_get_src_addr_inc) for [Anonymous Symbol]
    at6010_dma.o(.text.dma_set_dst_addr_inc) refers to at6010_dma.o(.rodata.cst8) for [Anonymous Symbol]
    at6010_dma.o(.ARM.exidx.text.dma_set_dst_addr_inc) refers to at6010_dma.o(.text.dma_set_dst_addr_inc) for [Anonymous Symbol]
    at6010_dma.o(.text.dma_get_dst_addr_inc) refers to at6010_dma.o(.rodata.cst8) for [Anonymous Symbol]
    at6010_dma.o(.ARM.exidx.text.dma_get_dst_addr_inc) refers to at6010_dma.o(.text.dma_get_dst_addr_inc) for [Anonymous Symbol]
    at6010_dma.o(.text.dma_set_src_tr_width) refers to at6010_dma.o(.rodata.cst8) for [Anonymous Symbol]
    at6010_dma.o(.ARM.exidx.text.dma_set_src_tr_width) refers to at6010_dma.o(.text.dma_set_src_tr_width) for [Anonymous Symbol]
    at6010_dma.o(.text.dma_get_src_tr_width) refers to at6010_dma.o(.rodata.cst8) for [Anonymous Symbol]
    at6010_dma.o(.ARM.exidx.text.dma_get_src_tr_width) refers to at6010_dma.o(.text.dma_get_src_tr_width) for [Anonymous Symbol]
    at6010_dma.o(.text.dma_set_dst_tr_width) refers to at6010_dma.o(.rodata.cst8) for [Anonymous Symbol]
    at6010_dma.o(.ARM.exidx.text.dma_set_dst_tr_width) refers to at6010_dma.o(.text.dma_set_dst_tr_width) for [Anonymous Symbol]
    at6010_dma.o(.text.dma_get_dst_tr_width) refers to at6010_dma.o(.rodata.cst8) for [Anonymous Symbol]
    at6010_dma.o(.ARM.exidx.text.dma_get_dst_tr_width) refers to at6010_dma.o(.text.dma_get_dst_tr_width) for [Anonymous Symbol]
    at6010_dma.o(.text.dma_set_int_en) refers to at6010_dma.o(.rodata.cst8) for [Anonymous Symbol]
    at6010_dma.o(.ARM.exidx.text.dma_set_int_en) refers to at6010_dma.o(.text.dma_set_int_en) for [Anonymous Symbol]
    at6010_dma.o(.text.dma_get_int_en) refers to at6010_dma.o(.rodata.cst8) for [Anonymous Symbol]
    at6010_dma.o(.ARM.exidx.text.dma_get_int_en) refers to at6010_dma.o(.text.dma_get_int_en) for [Anonymous Symbol]
    at6010_dma.o(.text.dma_set_src_gather_en) refers to at6010_dma.o(.rodata.cst8) for [Anonymous Symbol]
    at6010_dma.o(.ARM.exidx.text.dma_set_src_gather_en) refers to at6010_dma.o(.text.dma_set_src_gather_en) for [Anonymous Symbol]
    at6010_dma.o(.text.dma_get_src_gather_en) refers to at6010_dma.o(.rodata.cst8) for [Anonymous Symbol]
    at6010_dma.o(.ARM.exidx.text.dma_get_src_gather_en) refers to at6010_dma.o(.text.dma_get_src_gather_en) for [Anonymous Symbol]
    at6010_dma.o(.text.dma_set_src_gather_cnt) refers to at6010_dma.o(.rodata.cst8) for [Anonymous Symbol]
    at6010_dma.o(.ARM.exidx.text.dma_set_src_gather_cnt) refers to at6010_dma.o(.text.dma_set_src_gather_cnt) for [Anonymous Symbol]
    at6010_dma.o(.text.dma_get_src_gather_cnt) refers to at6010_dma.o(.rodata.cst8) for [Anonymous Symbol]
    at6010_dma.o(.ARM.exidx.text.dma_get_src_gather_cnt) refers to at6010_dma.o(.text.dma_get_src_gather_cnt) for [Anonymous Symbol]
    at6010_dma.o(.text.dma_set_src_gather_interval) refers to at6010_dma.o(.rodata.cst8) for [Anonymous Symbol]
    at6010_dma.o(.ARM.exidx.text.dma_set_src_gather_interval) refers to at6010_dma.o(.text.dma_set_src_gather_interval) for [Anonymous Symbol]
    at6010_dma.o(.text.dma_get_src_gather_interval) refers to at6010_dma.o(.rodata.cst8) for [Anonymous Symbol]
    at6010_dma.o(.ARM.exidx.text.dma_get_src_gather_interval) refers to at6010_dma.o(.text.dma_get_src_gather_interval) for [Anonymous Symbol]
    at6010_dma.o(.text.dma_set_dst_scatter_en) refers to at6010_dma.o(.rodata.cst8) for [Anonymous Symbol]
    at6010_dma.o(.ARM.exidx.text.dma_set_dst_scatter_en) refers to at6010_dma.o(.text.dma_set_dst_scatter_en) for [Anonymous Symbol]
    at6010_dma.o(.text.dma_get_dst_scatter_en) refers to at6010_dma.o(.rodata.cst8) for [Anonymous Symbol]
    at6010_dma.o(.ARM.exidx.text.dma_get_dst_scatter_en) refers to at6010_dma.o(.text.dma_get_dst_scatter_en) for [Anonymous Symbol]
    at6010_dma.o(.text.dma_set_dst_scatter_cnt) refers to at6010_dma.o(.rodata.cst8) for [Anonymous Symbol]
    at6010_dma.o(.ARM.exidx.text.dma_set_dst_scatter_cnt) refers to at6010_dma.o(.text.dma_set_dst_scatter_cnt) for [Anonymous Symbol]
    at6010_dma.o(.text.dma_get_dst_scatter_cnt) refers to at6010_dma.o(.rodata.cst8) for [Anonymous Symbol]
    at6010_dma.o(.ARM.exidx.text.dma_get_dst_scatter_cnt) refers to at6010_dma.o(.text.dma_get_dst_scatter_cnt) for [Anonymous Symbol]
    at6010_dma.o(.text.dma_set_dst_scatter_interval) refers to at6010_dma.o(.rodata.cst8) for [Anonymous Symbol]
    at6010_dma.o(.ARM.exidx.text.dma_set_dst_scatter_interval) refers to at6010_dma.o(.text.dma_set_dst_scatter_interval) for [Anonymous Symbol]
    at6010_dma.o(.text.dma_get_dst_scatter_interval) refers to at6010_dma.o(.rodata.cst8) for [Anonymous Symbol]
    at6010_dma.o(.ARM.exidx.text.dma_get_dst_scatter_interval) refers to at6010_dma.o(.text.dma_get_dst_scatter_interval) for [Anonymous Symbol]
    at6010_dma.o(.text.dma_set_src_status_update_en) refers to at6010_dma.o(.rodata.cst8) for [Anonymous Symbol]
    at6010_dma.o(.ARM.exidx.text.dma_set_src_status_update_en) refers to at6010_dma.o(.text.dma_set_src_status_update_en) for [Anonymous Symbol]
    at6010_dma.o(.text.dma_get_src_status_update_en) refers to at6010_dma.o(.rodata.cst8) for [Anonymous Symbol]
    at6010_dma.o(.ARM.exidx.text.dma_get_src_status_update_en) refers to at6010_dma.o(.text.dma_get_src_status_update_en) for [Anonymous Symbol]
    at6010_dma.o(.text.dma_set_src_status_addr) refers to at6010_dma.o(.rodata.cst8) for [Anonymous Symbol]
    at6010_dma.o(.ARM.exidx.text.dma_set_src_status_addr) refers to at6010_dma.o(.text.dma_set_src_status_addr) for [Anonymous Symbol]
    at6010_dma.o(.text.dma_get_src_status_addr) refers to at6010_dma.o(.rodata.cst8) for [Anonymous Symbol]
    at6010_dma.o(.ARM.exidx.text.dma_get_src_status_addr) refers to at6010_dma.o(.text.dma_get_src_status_addr) for [Anonymous Symbol]
    at6010_dma.o(.text.dma_get_src_status) refers to at6010_dma.o(.rodata.cst8) for [Anonymous Symbol]
    at6010_dma.o(.ARM.exidx.text.dma_get_src_status) refers to at6010_dma.o(.text.dma_get_src_status) for [Anonymous Symbol]
    at6010_dma.o(.text.dma_set_dst_status_update_en) refers to at6010_dma.o(.rodata.cst8) for [Anonymous Symbol]
    at6010_dma.o(.ARM.exidx.text.dma_set_dst_status_update_en) refers to at6010_dma.o(.text.dma_set_dst_status_update_en) for [Anonymous Symbol]
    at6010_dma.o(.text.dma_get_dst_status_update_en) refers to at6010_dma.o(.rodata.cst8) for [Anonymous Symbol]
    at6010_dma.o(.ARM.exidx.text.dma_get_dst_status_update_en) refers to at6010_dma.o(.text.dma_get_dst_status_update_en) for [Anonymous Symbol]
    at6010_dma.o(.text.dma_set_dst_status_addr) refers to at6010_dma.o(.rodata.cst8) for [Anonymous Symbol]
    at6010_dma.o(.ARM.exidx.text.dma_set_dst_status_addr) refers to at6010_dma.o(.text.dma_set_dst_status_addr) for [Anonymous Symbol]
    at6010_dma.o(.text.dma_get_dst_status_addr) refers to at6010_dma.o(.rodata.cst8) for [Anonymous Symbol]
    at6010_dma.o(.ARM.exidx.text.dma_get_dst_status_addr) refers to at6010_dma.o(.text.dma_get_dst_status_addr) for [Anonymous Symbol]
    at6010_dma.o(.text.dma_get_dst_status) refers to at6010_dma.o(.rodata.cst8) for [Anonymous Symbol]
    at6010_dma.o(.ARM.exidx.text.dma_get_dst_status) refers to at6010_dma.o(.text.dma_get_dst_status) for [Anonymous Symbol]
    at6010_dma.o(.text.dma_set_src_handshake_type) refers to at6010_dma.o(.rodata.cst8) for [Anonymous Symbol]
    at6010_dma.o(.ARM.exidx.text.dma_set_src_handshake_type) refers to at6010_dma.o(.text.dma_set_src_handshake_type) for [Anonymous Symbol]
    at6010_dma.o(.text.dma_get_src_handshake_type) refers to at6010_dma.o(.rodata.cst8) for [Anonymous Symbol]
    at6010_dma.o(.ARM.exidx.text.dma_get_src_handshake_type) refers to at6010_dma.o(.text.dma_get_src_handshake_type) for [Anonymous Symbol]
    at6010_dma.o(.text.dma_set_dst_handshake_type) refers to at6010_dma.o(.rodata.cst8) for [Anonymous Symbol]
    at6010_dma.o(.ARM.exidx.text.dma_set_dst_handshake_type) refers to at6010_dma.o(.text.dma_set_dst_handshake_type) for [Anonymous Symbol]
    at6010_dma.o(.text.dma_get_dst_handshake_type) refers to at6010_dma.o(.rodata.cst8) for [Anonymous Symbol]
    at6010_dma.o(.ARM.exidx.text.dma_get_dst_handshake_type) refers to at6010_dma.o(.text.dma_get_dst_handshake_type) for [Anonymous Symbol]
    at6010_dma.o(.text.dma_set_src_handshake_if) refers to at6010_dma.o(.rodata.cst8) for [Anonymous Symbol]
    at6010_dma.o(.ARM.exidx.text.dma_set_src_handshake_if) refers to at6010_dma.o(.text.dma_set_src_handshake_if) for [Anonymous Symbol]
    at6010_dma.o(.text.dma_get_src_handshake_if) refers to at6010_dma.o(.rodata.cst8) for [Anonymous Symbol]
    at6010_dma.o(.ARM.exidx.text.dma_get_src_handshake_if) refers to at6010_dma.o(.text.dma_get_src_handshake_if) for [Anonymous Symbol]
    at6010_dma.o(.text.dma_set_dst_handshake_if) refers to at6010_dma.o(.rodata.cst8) for [Anonymous Symbol]
    at6010_dma.o(.ARM.exidx.text.dma_set_dst_handshake_if) refers to at6010_dma.o(.text.dma_set_dst_handshake_if) for [Anonymous Symbol]
    at6010_dma.o(.text.dma_get_dst_handshake_if) refers to at6010_dma.o(.rodata.cst8) for [Anonymous Symbol]
    at6010_dma.o(.ARM.exidx.text.dma_get_dst_handshake_if) refers to at6010_dma.o(.text.dma_get_dst_handshake_if) for [Anonymous Symbol]
    at6010_dma.o(.text.dma_set_src_handshake_polarity) refers to at6010_dma.o(.rodata.cst8) for [Anonymous Symbol]
    at6010_dma.o(.ARM.exidx.text.dma_set_src_handshake_polarity) refers to at6010_dma.o(.text.dma_set_src_handshake_polarity) for [Anonymous Symbol]
    at6010_dma.o(.text.dma_get_src_handshake_polarity) refers to at6010_dma.o(.rodata.cst8) for [Anonymous Symbol]
    at6010_dma.o(.ARM.exidx.text.dma_get_src_handshake_polarity) refers to at6010_dma.o(.text.dma_get_src_handshake_polarity) for [Anonymous Symbol]
    at6010_dma.o(.text.dma_set_dst_handshake_polarity) refers to at6010_dma.o(.rodata.cst8) for [Anonymous Symbol]
    at6010_dma.o(.ARM.exidx.text.dma_set_dst_handshake_polarity) refers to at6010_dma.o(.text.dma_set_dst_handshake_polarity) for [Anonymous Symbol]
    at6010_dma.o(.text.dma_get_dst_handshake_polarity) refers to at6010_dma.o(.rodata.cst8) for [Anonymous Symbol]
    at6010_dma.o(.ARM.exidx.text.dma_get_dst_handshake_polarity) refers to at6010_dma.o(.text.dma_get_dst_handshake_polarity) for [Anonymous Symbol]
    at6010_dma.o(.text.dma_set_protection_control) refers to at6010_dma.o(.rodata.cst8) for [Anonymous Symbol]
    at6010_dma.o(.ARM.exidx.text.dma_set_protection_control) refers to at6010_dma.o(.text.dma_set_protection_control) for [Anonymous Symbol]
    at6010_dma.o(.text.dma_get_protection_control) refers to at6010_dma.o(.rodata.cst8) for [Anonymous Symbol]
    at6010_dma.o(.ARM.exidx.text.dma_get_protection_control) refers to at6010_dma.o(.text.dma_get_protection_control) for [Anonymous Symbol]
    at6010_dma.o(.text.dma_set_fifo_mode) refers to at6010_dma.o(.rodata.cst8) for [Anonymous Symbol]
    at6010_dma.o(.ARM.exidx.text.dma_set_fifo_mode) refers to at6010_dma.o(.text.dma_set_fifo_mode) for [Anonymous Symbol]
    at6010_dma.o(.text.dma_get_fifo_mode) refers to at6010_dma.o(.rodata.cst8) for [Anonymous Symbol]
    at6010_dma.o(.ARM.exidx.text.dma_get_fifo_mode) refers to at6010_dma.o(.text.dma_get_fifo_mode) for [Anonymous Symbol]
    at6010_dma.o(.text.dma_set_flow_control_mode) refers to at6010_dma.o(.rodata.cst8) for [Anonymous Symbol]
    at6010_dma.o(.ARM.exidx.text.dma_set_flow_control_mode) refers to at6010_dma.o(.text.dma_set_flow_control_mode) for [Anonymous Symbol]
    at6010_dma.o(.text.dma_get_flow_control_mode) refers to at6010_dma.o(.rodata.cst8) for [Anonymous Symbol]
    at6010_dma.o(.ARM.exidx.text.dma_get_flow_control_mode) refers to at6010_dma.o(.text.dma_get_flow_control_mode) for [Anonymous Symbol]
    at6010_dma.o(.text.dma_set_dst_reload_en) refers to at6010_dma.o(.rodata.cst8) for [Anonymous Symbol]
    at6010_dma.o(.ARM.exidx.text.dma_set_dst_reload_en) refers to at6010_dma.o(.text.dma_set_dst_reload_en) for [Anonymous Symbol]
    at6010_dma.o(.text.dma_get_dst_reload_en) refers to at6010_dma.o(.rodata.cst8) for [Anonymous Symbol]
    at6010_dma.o(.ARM.exidx.text.dma_get_dst_reload_en) refers to at6010_dma.o(.text.dma_get_dst_reload_en) for [Anonymous Symbol]
    at6010_dma.o(.text.dma_set_src_realod_en) refers to at6010_dma.o(.rodata.cst8) for [Anonymous Symbol]
    at6010_dma.o(.ARM.exidx.text.dma_set_src_realod_en) refers to at6010_dma.o(.text.dma_set_src_realod_en) for [Anonymous Symbol]
    at6010_dma.o(.text.dma_get_src_realod_en) refers to at6010_dma.o(.rodata.cst8) for [Anonymous Symbol]
    at6010_dma.o(.ARM.exidx.text.dma_get_src_realod_en) refers to at6010_dma.o(.text.dma_get_src_realod_en) for [Anonymous Symbol]
    at6010_dma.o(.text.dma_set_lock_bus) refers to at6010_dma.o(.rodata.cst8) for [Anonymous Symbol]
    at6010_dma.o(.ARM.exidx.text.dma_set_lock_bus) refers to at6010_dma.o(.text.dma_set_lock_bus) for [Anonymous Symbol]
    at6010_dma.o(.text.dma_get_lock_bus) refers to at6010_dma.o(.rodata.cst8) for [Anonymous Symbol]
    at6010_dma.o(.ARM.exidx.text.dma_get_lock_bus) refers to at6010_dma.o(.text.dma_get_lock_bus) for [Anonymous Symbol]
    at6010_dma.o(.text.dma_set_lock_channel) refers to at6010_dma.o(.rodata.cst8) for [Anonymous Symbol]
    at6010_dma.o(.ARM.exidx.text.dma_set_lock_channel) refers to at6010_dma.o(.text.dma_set_lock_channel) for [Anonymous Symbol]
    at6010_dma.o(.text.dma_get_lock_channel) refers to at6010_dma.o(.rodata.cst8) for [Anonymous Symbol]
    at6010_dma.o(.ARM.exidx.text.dma_get_lock_channel) refers to at6010_dma.o(.text.dma_get_lock_channel) for [Anonymous Symbol]
    at6010_dma.o(.text.dma_set_lock_bus_level) refers to at6010_dma.o(.rodata.cst8) for [Anonymous Symbol]
    at6010_dma.o(.ARM.exidx.text.dma_set_lock_bus_level) refers to at6010_dma.o(.text.dma_set_lock_bus_level) for [Anonymous Symbol]
    at6010_dma.o(.text.dma_get_lock_bus_level) refers to at6010_dma.o(.rodata.cst8) for [Anonymous Symbol]
    at6010_dma.o(.ARM.exidx.text.dma_get_lock_bus_level) refers to at6010_dma.o(.text.dma_get_lock_bus_level) for [Anonymous Symbol]
    at6010_dma.o(.text.dma_set_lock_channel_level) refers to at6010_dma.o(.rodata.cst8) for [Anonymous Symbol]
    at6010_dma.o(.ARM.exidx.text.dma_set_lock_channel_level) refers to at6010_dma.o(.text.dma_set_lock_channel_level) for [Anonymous Symbol]
    at6010_dma.o(.text.dma_get_lock_channel_level) refers to at6010_dma.o(.rodata.cst8) for [Anonymous Symbol]
    at6010_dma.o(.ARM.exidx.text.dma_get_lock_channel_level) refers to at6010_dma.o(.text.dma_get_lock_channel_level) for [Anonymous Symbol]
    at6010_dma.o(.text.dma_is_fifo_empty) refers to at6010_dma.o(.rodata.cst8) for [Anonymous Symbol]
    at6010_dma.o(.ARM.exidx.text.dma_is_fifo_empty) refers to at6010_dma.o(.text.dma_is_fifo_empty) for [Anonymous Symbol]
    at6010_dma.o(.text.dma_set_channel_suspend) refers to at6010_dma.o(.rodata.cst8) for [Anonymous Symbol]
    at6010_dma.o(.ARM.exidx.text.dma_set_channel_suspend) refers to at6010_dma.o(.text.dma_set_channel_suspend) for [Anonymous Symbol]
    at6010_dma.o(.text.dma_get_channel_suspend) refers to at6010_dma.o(.rodata.cst8) for [Anonymous Symbol]
    at6010_dma.o(.ARM.exidx.text.dma_get_channel_suspend) refers to at6010_dma.o(.text.dma_get_channel_suspend) for [Anonymous Symbol]
    at6010_dma.o(.text.dma_set_channel_priority) refers to at6010_dma.o(.rodata.cst8) for [Anonymous Symbol]
    at6010_dma.o(.ARM.exidx.text.dma_set_channel_priority) refers to at6010_dma.o(.text.dma_set_channel_priority) for [Anonymous Symbol]
    at6010_dma.o(.text.dma_get_channel_priority) refers to at6010_dma.o(.rodata.cst8) for [Anonymous Symbol]
    at6010_dma.o(.ARM.exidx.text.dma_get_channel_priority) refers to at6010_dma.o(.text.dma_get_channel_priority) for [Anonymous Symbol]
    at6010_dma.o(.text.dma_get_raw_tfr) refers to at6010_dma.o(.rodata.cst4) for [Anonymous Symbol]
    at6010_dma.o(.ARM.exidx.text.dma_get_raw_tfr) refers to at6010_dma.o(.text.dma_get_raw_tfr) for [Anonymous Symbol]
    at6010_dma.o(.text.dma_get_raw_block) refers to at6010_dma.o(.rodata.cst4) for [Anonymous Symbol]
    at6010_dma.o(.ARM.exidx.text.dma_get_raw_block) refers to at6010_dma.o(.text.dma_get_raw_block) for [Anonymous Symbol]
    at6010_dma.o(.text.dma_get_raw_src_tran) refers to at6010_dma.o(.rodata.cst4) for [Anonymous Symbol]
    at6010_dma.o(.ARM.exidx.text.dma_get_raw_src_tran) refers to at6010_dma.o(.text.dma_get_raw_src_tran) for [Anonymous Symbol]
    at6010_dma.o(.text.dma_get_raw_dst_tran) refers to at6010_dma.o(.rodata.cst4) for [Anonymous Symbol]
    at6010_dma.o(.ARM.exidx.text.dma_get_raw_dst_tran) refers to at6010_dma.o(.text.dma_get_raw_dst_tran) for [Anonymous Symbol]
    at6010_dma.o(.text.dma_get_raw_error) refers to at6010_dma.o(.rodata.cst4) for [Anonymous Symbol]
    at6010_dma.o(.ARM.exidx.text.dma_get_raw_error) refers to at6010_dma.o(.text.dma_get_raw_error) for [Anonymous Symbol]
    at6010_dma.o(.text.dma_get_status_tfr) refers to at6010_dma.o(.rodata.cst4) for [Anonymous Symbol]
    at6010_dma.o(.ARM.exidx.text.dma_get_status_tfr) refers to at6010_dma.o(.text.dma_get_status_tfr) for [Anonymous Symbol]
    at6010_dma.o(.text.dma_get_status_block) refers to at6010_dma.o(.rodata.cst4) for [Anonymous Symbol]
    at6010_dma.o(.ARM.exidx.text.dma_get_status_block) refers to at6010_dma.o(.text.dma_get_status_block) for [Anonymous Symbol]
    at6010_dma.o(.text.dma_get_status_src_tran) refers to at6010_dma.o(.rodata.cst4) for [Anonymous Symbol]
    at6010_dma.o(.ARM.exidx.text.dma_get_status_src_tran) refers to at6010_dma.o(.text.dma_get_status_src_tran) for [Anonymous Symbol]
    at6010_dma.o(.text.dma_get_status_dst_tran) refers to at6010_dma.o(.rodata.cst4) for [Anonymous Symbol]
    at6010_dma.o(.ARM.exidx.text.dma_get_status_dst_tran) refers to at6010_dma.o(.text.dma_get_status_dst_tran) for [Anonymous Symbol]
    at6010_dma.o(.text.dma_get_status_error) refers to at6010_dma.o(.rodata.cst4) for [Anonymous Symbol]
    at6010_dma.o(.ARM.exidx.text.dma_get_status_error) refers to at6010_dma.o(.text.dma_get_status_error) for [Anonymous Symbol]
    at6010_dma.o(.text.dma_enable_it_tfr) refers to at6010_dma.o(.rodata.cst4) for [Anonymous Symbol]
    at6010_dma.o(.ARM.exidx.text.dma_enable_it_tfr) refers to at6010_dma.o(.text.dma_enable_it_tfr) for [Anonymous Symbol]
    at6010_dma.o(.text.dma_disable_it_tfr) refers to at6010_dma.o(.rodata.cst4) for [Anonymous Symbol]
    at6010_dma.o(.ARM.exidx.text.dma_disable_it_tfr) refers to at6010_dma.o(.text.dma_disable_it_tfr) for [Anonymous Symbol]
    at6010_dma.o(.text.dma_is_enabled_it_tfr) refers to at6010_dma.o(.rodata.cst4) for [Anonymous Symbol]
    at6010_dma.o(.ARM.exidx.text.dma_is_enabled_it_tfr) refers to at6010_dma.o(.text.dma_is_enabled_it_tfr) for [Anonymous Symbol]
    at6010_dma.o(.text.dma_enable_it_block) refers to at6010_dma.o(.rodata.cst4) for [Anonymous Symbol]
    at6010_dma.o(.ARM.exidx.text.dma_enable_it_block) refers to at6010_dma.o(.text.dma_enable_it_block) for [Anonymous Symbol]
    at6010_dma.o(.text.dma_disable_it_block) refers to at6010_dma.o(.rodata.cst4) for [Anonymous Symbol]
    at6010_dma.o(.ARM.exidx.text.dma_disable_it_block) refers to at6010_dma.o(.text.dma_disable_it_block) for [Anonymous Symbol]
    at6010_dma.o(.text.dma_is_enabled_it_block) refers to at6010_dma.o(.rodata.cst4) for [Anonymous Symbol]
    at6010_dma.o(.ARM.exidx.text.dma_is_enabled_it_block) refers to at6010_dma.o(.text.dma_is_enabled_it_block) for [Anonymous Symbol]
    at6010_dma.o(.text.dma_enable_it_src_tran) refers to at6010_dma.o(.rodata.cst4) for [Anonymous Symbol]
    at6010_dma.o(.ARM.exidx.text.dma_enable_it_src_tran) refers to at6010_dma.o(.text.dma_enable_it_src_tran) for [Anonymous Symbol]
    at6010_dma.o(.text.dma_disable_it_src_tran) refers to at6010_dma.o(.rodata.cst4) for [Anonymous Symbol]
    at6010_dma.o(.ARM.exidx.text.dma_disable_it_src_tran) refers to at6010_dma.o(.text.dma_disable_it_src_tran) for [Anonymous Symbol]
    at6010_dma.o(.text.dma_is_enabled_it_src_tran) refers to at6010_dma.o(.rodata.cst4) for [Anonymous Symbol]
    at6010_dma.o(.ARM.exidx.text.dma_is_enabled_it_src_tran) refers to at6010_dma.o(.text.dma_is_enabled_it_src_tran) for [Anonymous Symbol]
    at6010_dma.o(.text.dma_enable_it_dst_tran) refers to at6010_dma.o(.rodata.cst4) for [Anonymous Symbol]
    at6010_dma.o(.ARM.exidx.text.dma_enable_it_dst_tran) refers to at6010_dma.o(.text.dma_enable_it_dst_tran) for [Anonymous Symbol]
    at6010_dma.o(.text.dma_disable_it_dst_tran) refers to at6010_dma.o(.rodata.cst4) for [Anonymous Symbol]
    at6010_dma.o(.ARM.exidx.text.dma_disable_it_dst_tran) refers to at6010_dma.o(.text.dma_disable_it_dst_tran) for [Anonymous Symbol]
    at6010_dma.o(.text.dma_is_enabled_it_dst_tran) refers to at6010_dma.o(.rodata.cst4) for [Anonymous Symbol]
    at6010_dma.o(.ARM.exidx.text.dma_is_enabled_it_dst_tran) refers to at6010_dma.o(.text.dma_is_enabled_it_dst_tran) for [Anonymous Symbol]
    at6010_dma.o(.text.dma_enable_it_error) refers to at6010_dma.o(.rodata.cst4) for [Anonymous Symbol]
    at6010_dma.o(.ARM.exidx.text.dma_enable_it_error) refers to at6010_dma.o(.text.dma_enable_it_error) for [Anonymous Symbol]
    at6010_dma.o(.text.dma_disable_it_error) refers to at6010_dma.o(.rodata.cst4) for [Anonymous Symbol]
    at6010_dma.o(.ARM.exidx.text.dma_disable_it_error) refers to at6010_dma.o(.text.dma_disable_it_error) for [Anonymous Symbol]
    at6010_dma.o(.text.dma_is_enabled_it_error) refers to at6010_dma.o(.rodata.cst4) for [Anonymous Symbol]
    at6010_dma.o(.ARM.exidx.text.dma_is_enabled_it_error) refers to at6010_dma.o(.text.dma_is_enabled_it_error) for [Anonymous Symbol]
    at6010_dma.o(.text.dma_clear_it_tfr) refers to at6010_dma.o(.rodata.cst4) for [Anonymous Symbol]
    at6010_dma.o(.ARM.exidx.text.dma_clear_it_tfr) refers to at6010_dma.o(.text.dma_clear_it_tfr) for [Anonymous Symbol]
    at6010_dma.o(.text.dma_clear_it_block) refers to at6010_dma.o(.rodata.cst4) for [Anonymous Symbol]
    at6010_dma.o(.ARM.exidx.text.dma_clear_it_block) refers to at6010_dma.o(.text.dma_clear_it_block) for [Anonymous Symbol]
    at6010_dma.o(.text.dma_clear_it_src_tran) refers to at6010_dma.o(.rodata.cst4) for [Anonymous Symbol]
    at6010_dma.o(.ARM.exidx.text.dma_clear_it_src_tran) refers to at6010_dma.o(.text.dma_clear_it_src_tran) for [Anonymous Symbol]
    at6010_dma.o(.text.dma_clear_it_dst_tran) refers to at6010_dma.o(.rodata.cst4) for [Anonymous Symbol]
    at6010_dma.o(.ARM.exidx.text.dma_clear_it_dst_tran) refers to at6010_dma.o(.text.dma_clear_it_dst_tran) for [Anonymous Symbol]
    at6010_dma.o(.text.dma_clear_it_error) refers to at6010_dma.o(.rodata.cst4) for [Anonymous Symbol]
    at6010_dma.o(.ARM.exidx.text.dma_clear_it_error) refers to at6010_dma.o(.text.dma_clear_it_error) for [Anonymous Symbol]
    at6010_dma.o(.ARM.exidx.text.dma_get_int_status) refers to at6010_dma.o(.text.dma_get_int_status) for [Anonymous Symbol]
    at6010_dma.o(.text.dma_src_sw_request) refers to at6010_dma.o(.rodata.cst4) for [Anonymous Symbol]
    at6010_dma.o(.ARM.exidx.text.dma_src_sw_request) refers to at6010_dma.o(.text.dma_src_sw_request) for [Anonymous Symbol]
    at6010_dma.o(.text.dma_dst_sw_request) refers to at6010_dma.o(.rodata.cst4) for [Anonymous Symbol]
    at6010_dma.o(.ARM.exidx.text.dma_dst_sw_request) refers to at6010_dma.o(.text.dma_dst_sw_request) for [Anonymous Symbol]
    at6010_dma.o(.text.dma_src_single_sw_request) refers to at6010_dma.o(.rodata.cst4) for [Anonymous Symbol]
    at6010_dma.o(.ARM.exidx.text.dma_src_single_sw_request) refers to at6010_dma.o(.text.dma_src_single_sw_request) for [Anonymous Symbol]
    at6010_dma.o(.text.dma_dst_single_sw_request) refers to at6010_dma.o(.rodata.cst4) for [Anonymous Symbol]
    at6010_dma.o(.ARM.exidx.text.dma_dst_single_sw_request) refers to at6010_dma.o(.text.dma_dst_single_sw_request) for [Anonymous Symbol]
    at6010_dma.o(.text.dma_src_last_sw_request) refers to at6010_dma.o(.rodata.cst4) for [Anonymous Symbol]
    at6010_dma.o(.ARM.exidx.text.dma_src_last_sw_request) refers to at6010_dma.o(.text.dma_src_last_sw_request) for [Anonymous Symbol]
    at6010_dma.o(.text.dma_dst_last_sw_request) refers to at6010_dma.o(.rodata.cst4) for [Anonymous Symbol]
    at6010_dma.o(.ARM.exidx.text.dma_dst_last_sw_request) refers to at6010_dma.o(.text.dma_dst_last_sw_request) for [Anonymous Symbol]
    at6010_dma.o(.ARM.exidx.text.dma_enable_global) refers to at6010_dma.o(.text.dma_enable_global) for [Anonymous Symbol]
    at6010_dma.o(.ARM.exidx.text.dma_is_enable_global) refers to at6010_dma.o(.text.dma_is_enable_global) for [Anonymous Symbol]
    at6010_dma.o(.ARM.exidx.text.dma_disable_global) refers to at6010_dma.o(.text.dma_disable_global) for [Anonymous Symbol]
    at6010_dma.o(.text.dma_enable_channel) refers to at6010_dma.o(.rodata.cst4) for [Anonymous Symbol]
    at6010_dma.o(.ARM.exidx.text.dma_enable_channel) refers to at6010_dma.o(.text.dma_enable_channel) for [Anonymous Symbol]
    at6010_dma.o(.text.dma_disable_channel) refers to at6010_dma.o(.rodata.cst4) for [Anonymous Symbol]
    at6010_dma.o(.ARM.exidx.text.dma_disable_channel) refers to at6010_dma.o(.text.dma_disable_channel) for [Anonymous Symbol]
    at6010_dma.o(.text.dma_is_active_channel) refers to at6010_dma.o(.rodata.cst4) for [Anonymous Symbol]
    at6010_dma.o(.ARM.exidx.text.dma_is_active_channel) refers to at6010_dma.o(.text.dma_is_active_channel) for [Anonymous Symbol]
    at6010_dma.o(.text.dma_get_free_channel) refers to at6010_dma.o(.rodata.cst4) for [Anonymous Symbol]
    at6010_dma.o(.ARM.exidx.text.dma_get_free_channel) refers to at6010_dma.o(.text.dma_get_free_channel) for [Anonymous Symbol]
    at6010_spi.o(.ARM.exidx.text.spi_set_work_mode) refers to at6010_spi.o(.text.spi_set_work_mode) for [Anonymous Symbol]
    at6010_spi.o(.ARM.exidx.text.spi_get_work_mode) refers to at6010_spi.o(.text.spi_get_work_mode) for [Anonymous Symbol]
    at6010_spi.o(.ARM.exidx.text.spi_set_dynamic_wait_state_enable) refers to at6010_spi.o(.text.spi_set_dynamic_wait_state_enable) for [Anonymous Symbol]
    at6010_spi.o(.ARM.exidx.text.spi_get_dynamic_wait_state_enable) refers to at6010_spi.o(.text.spi_get_dynamic_wait_state_enable) for [Anonymous Symbol]
    at6010_spi.o(.ARM.exidx.text.spi_set_spi_frame_format) refers to at6010_spi.o(.text.spi_set_spi_frame_format) for [Anonymous Symbol]
    at6010_spi.o(.ARM.exidx.text.spi_get_spi_frame_format) refers to at6010_spi.o(.text.spi_get_spi_frame_format) for [Anonymous Symbol]
    at6010_spi.o(.ARM.exidx.text.spi_set_control_frame_size) refers to at6010_spi.o(.text.spi_set_control_frame_size) for [Anonymous Symbol]
    at6010_spi.o(.ARM.exidx.text.spi_get_control_frame_size) refers to at6010_spi.o(.text.spi_get_control_frame_size) for [Anonymous Symbol]
    at6010_spi.o(.ARM.exidx.text.spi_set_slave_select_toggle_enable) refers to at6010_spi.o(.text.spi_set_slave_select_toggle_enable) for [Anonymous Symbol]
    at6010_spi.o(.ARM.exidx.text.spi_get_slave_select_toggle_enable) refers to at6010_spi.o(.text.spi_get_slave_select_toggle_enable) for [Anonymous Symbol]
    at6010_spi.o(.ARM.exidx.text.spi_set_slave_output_enable) refers to at6010_spi.o(.text.spi_set_slave_output_enable) for [Anonymous Symbol]
    at6010_spi.o(.ARM.exidx.text.spi_get_slave_output_enable) refers to at6010_spi.o(.text.spi_get_slave_output_enable) for [Anonymous Symbol]
    at6010_spi.o(.ARM.exidx.text.spi_set_transfer_mode) refers to at6010_spi.o(.text.spi_set_transfer_mode) for [Anonymous Symbol]
    at6010_spi.o(.ARM.exidx.text.spi_get_transfer_mode) refers to at6010_spi.o(.text.spi_get_transfer_mode) for [Anonymous Symbol]
    at6010_spi.o(.ARM.exidx.text.spi_set_clock_polarity) refers to at6010_spi.o(.text.spi_set_clock_polarity) for [Anonymous Symbol]
    at6010_spi.o(.ARM.exidx.text.spi_get_clock_polarity) refers to at6010_spi.o(.text.spi_get_clock_polarity) for [Anonymous Symbol]
    at6010_spi.o(.ARM.exidx.text.spi_set_clock_phase) refers to at6010_spi.o(.text.spi_set_clock_phase) for [Anonymous Symbol]
    at6010_spi.o(.ARM.exidx.text.spi_get_clock_phase) refers to at6010_spi.o(.text.spi_get_clock_phase) for [Anonymous Symbol]
    at6010_spi.o(.ARM.exidx.text.spi_set_frame_protocol) refers to at6010_spi.o(.text.spi_set_frame_protocol) for [Anonymous Symbol]
    at6010_spi.o(.ARM.exidx.text.spi_get_frame_protocol) refers to at6010_spi.o(.text.spi_get_frame_protocol) for [Anonymous Symbol]
    at6010_spi.o(.ARM.exidx.text.spi_set_data_frame_size) refers to at6010_spi.o(.text.spi_set_data_frame_size) for [Anonymous Symbol]
    at6010_spi.o(.ARM.exidx.text.spi_get_data_frame_size) refers to at6010_spi.o(.text.spi_get_data_frame_size) for [Anonymous Symbol]
    at6010_spi.o(.ARM.exidx.text.spi_set_number_of_data_frames) refers to at6010_spi.o(.text.spi_set_number_of_data_frames) for [Anonymous Symbol]
    at6010_spi.o(.ARM.exidx.text.spi_get_number_of_data_frames) refers to at6010_spi.o(.text.spi_get_number_of_data_frames) for [Anonymous Symbol]
    at6010_spi.o(.ARM.exidx.text.spi_enable) refers to at6010_spi.o(.text.spi_enable) for [Anonymous Symbol]
    at6010_spi.o(.ARM.exidx.text.spi_disable) refers to at6010_spi.o(.text.spi_disable) for [Anonymous Symbol]
    at6010_spi.o(.ARM.exidx.text.spi_is_enable) refers to at6010_spi.o(.text.spi_is_enable) for [Anonymous Symbol]
    at6010_spi.o(.ARM.exidx.text.spi_enable_slave) refers to at6010_spi.o(.text.spi_enable_slave) for [Anonymous Symbol]
    at6010_spi.o(.ARM.exidx.text.spi_disable_slave) refers to at6010_spi.o(.text.spi_disable_slave) for [Anonymous Symbol]
    at6010_spi.o(.ARM.exidx.text.spi_is_slave_enable) refers to at6010_spi.o(.text.spi_is_slave_enable) for [Anonymous Symbol]
    at6010_spi.o(.ARM.exidx.text.spi_set_sckdiv) refers to at6010_spi.o(.text.spi_set_sckdiv) for [Anonymous Symbol]
    at6010_spi.o(.ARM.exidx.text.spi_get_sckdiv) refers to at6010_spi.o(.text.spi_get_sckdiv) for [Anonymous Symbol]
    at6010_spi.o(.ARM.exidx.text.spi_set_tx_fifo_start_level) refers to at6010_spi.o(.text.spi_set_tx_fifo_start_level) for [Anonymous Symbol]
    at6010_spi.o(.ARM.exidx.text.spi_get_tx_fifo_start_level) refers to at6010_spi.o(.text.spi_get_tx_fifo_start_level) for [Anonymous Symbol]
    at6010_spi.o(.ARM.exidx.text.spi_set_tx_fifo_threshold) refers to at6010_spi.o(.text.spi_set_tx_fifo_threshold) for [Anonymous Symbol]
    at6010_spi.o(.ARM.exidx.text.spi_get_tx_fifo_threshold) refers to at6010_spi.o(.text.spi_get_tx_fifo_threshold) for [Anonymous Symbol]
    at6010_spi.o(.ARM.exidx.text.spi_set_rx_fifo_threshold) refers to at6010_spi.o(.text.spi_set_rx_fifo_threshold) for [Anonymous Symbol]
    at6010_spi.o(.ARM.exidx.text.spi_get_rx_fifo_threshold) refers to at6010_spi.o(.text.spi_get_rx_fifo_threshold) for [Anonymous Symbol]
    at6010_spi.o(.ARM.exidx.text.spi_set_rxd_sampling_edge) refers to at6010_spi.o(.text.spi_set_rxd_sampling_edge) for [Anonymous Symbol]
    at6010_spi.o(.ARM.exidx.text.spi_get_rxd_sampling_edge) refers to at6010_spi.o(.text.spi_get_rxd_sampling_edge) for [Anonymous Symbol]
    at6010_spi.o(.ARM.exidx.text.spi_set_rxd_sampling_delay) refers to at6010_spi.o(.text.spi_set_rxd_sampling_delay) for [Anonymous Symbol]
    at6010_spi.o(.ARM.exidx.text.spi_get_rxd_sampling_delay) refers to at6010_spi.o(.text.spi_get_rxd_sampling_delay) for [Anonymous Symbol]
    at6010_spi.o(.ARM.exidx.text.spi_set_wait_cycles) refers to at6010_spi.o(.text.spi_set_wait_cycles) for [Anonymous Symbol]
    at6010_spi.o(.ARM.exidx.text.spi_get_wait_cycles) refers to at6010_spi.o(.text.spi_get_wait_cycles) for [Anonymous Symbol]
    at6010_spi.o(.ARM.exidx.text.spi_set_instruction_length_bits) refers to at6010_spi.o(.text.spi_set_instruction_length_bits) for [Anonymous Symbol]
    at6010_spi.o(.ARM.exidx.text.spi_get_instruction_length_bits) refers to at6010_spi.o(.text.spi_get_instruction_length_bits) for [Anonymous Symbol]
    at6010_spi.o(.ARM.exidx.text.spi_set_addr_length) refers to at6010_spi.o(.text.spi_set_addr_length) for [Anonymous Symbol]
    at6010_spi.o(.ARM.exidx.text.spi_get_addr_length) refers to at6010_spi.o(.text.spi_get_addr_length) for [Anonymous Symbol]
    at6010_spi.o(.ARM.exidx.text.spi_set_trans_type) refers to at6010_spi.o(.text.spi_set_trans_type) for [Anonymous Symbol]
    at6010_spi.o(.ARM.exidx.text.spi_get_trans_type) refers to at6010_spi.o(.text.spi_get_trans_type) for [Anonymous Symbol]
    at6010_spi.o(.ARM.exidx.text.spi_get_tx_fifo_level) refers to at6010_spi.o(.text.spi_get_tx_fifo_level) for [Anonymous Symbol]
    at6010_spi.o(.ARM.exidx.text.spi_get_rx_fifo_level) refers to at6010_spi.o(.text.spi_get_rx_fifo_level) for [Anonymous Symbol]
    at6010_spi.o(.ARM.exidx.text.spi_get_status) refers to at6010_spi.o(.text.spi_get_status) for [Anonymous Symbol]
    at6010_spi.o(.ARM.exidx.text.spi_get_status_data_collision) refers to at6010_spi.o(.text.spi_get_status_data_collision) for [Anonymous Symbol]
    at6010_spi.o(.ARM.exidx.text.spi_get_status_tx_error) refers to at6010_spi.o(.text.spi_get_status_tx_error) for [Anonymous Symbol]
    at6010_spi.o(.ARM.exidx.text.spi_get_status_rx_fifo_full) refers to at6010_spi.o(.text.spi_get_status_rx_fifo_full) for [Anonymous Symbol]
    at6010_spi.o(.ARM.exidx.text.spi_get_status_rx_fifo_not_empty) refers to at6010_spi.o(.text.spi_get_status_rx_fifo_not_empty) for [Anonymous Symbol]
    at6010_spi.o(.ARM.exidx.text.spi_get_status_tx_fifo_empty) refers to at6010_spi.o(.text.spi_get_status_tx_fifo_empty) for [Anonymous Symbol]
    at6010_spi.o(.ARM.exidx.text.spi_get_status_tx_fifo_not_full) refers to at6010_spi.o(.text.spi_get_status_tx_fifo_not_full) for [Anonymous Symbol]
    at6010_spi.o(.ARM.exidx.text.spi_get_status_busy) refers to at6010_spi.o(.text.spi_get_status_busy) for [Anonymous Symbol]
    at6010_spi.o(.ARM.exidx.text.spi_enable_it_tx_fifo_empty) refers to at6010_spi.o(.text.spi_enable_it_tx_fifo_empty) for [Anonymous Symbol]
    at6010_spi.o(.ARM.exidx.text.spi_disable_it_tx_fifo_empty) refers to at6010_spi.o(.text.spi_disable_it_tx_fifo_empty) for [Anonymous Symbol]
    at6010_spi.o(.ARM.exidx.text.spi_enable_it_tx_fifo_overflow) refers to at6010_spi.o(.text.spi_enable_it_tx_fifo_overflow) for [Anonymous Symbol]
    at6010_spi.o(.ARM.exidx.text.spi_disable_it_tx_fifo_overflow) refers to at6010_spi.o(.text.spi_disable_it_tx_fifo_overflow) for [Anonymous Symbol]
    at6010_spi.o(.ARM.exidx.text.spi_enable_it_rx_fifo_underflow) refers to at6010_spi.o(.text.spi_enable_it_rx_fifo_underflow) for [Anonymous Symbol]
    at6010_spi.o(.ARM.exidx.text.spi_disable_it_rx_fifo_underflow) refers to at6010_spi.o(.text.spi_disable_it_rx_fifo_underflow) for [Anonymous Symbol]
    at6010_spi.o(.ARM.exidx.text.spi_enable_it_rx_fifo_overflow) refers to at6010_spi.o(.text.spi_enable_it_rx_fifo_overflow) for [Anonymous Symbol]
    at6010_spi.o(.ARM.exidx.text.spi_disable_it_rx_fifo_overflow) refers to at6010_spi.o(.text.spi_disable_it_rx_fifo_overflow) for [Anonymous Symbol]
    at6010_spi.o(.ARM.exidx.text.spi_enable_it_rx_fifo_full) refers to at6010_spi.o(.text.spi_enable_it_rx_fifo_full) for [Anonymous Symbol]
    at6010_spi.o(.ARM.exidx.text.spi_disable_it_rx_fifo_full) refers to at6010_spi.o(.text.spi_disable_it_rx_fifo_full) for [Anonymous Symbol]
    at6010_spi.o(.ARM.exidx.text.spi_enable_it_multi_master_cont) refers to at6010_spi.o(.text.spi_enable_it_multi_master_cont) for [Anonymous Symbol]
    at6010_spi.o(.ARM.exidx.text.spi_disable_it_multi_master_cont) refers to at6010_spi.o(.text.spi_disable_it_multi_master_cont) for [Anonymous Symbol]
    at6010_spi.o(.ARM.exidx.text.spi_enable_it_spi_tx_err) refers to at6010_spi.o(.text.spi_enable_it_spi_tx_err) for [Anonymous Symbol]
    at6010_spi.o(.ARM.exidx.text.spi_disable_it_spi_tx_err) refers to at6010_spi.o(.text.spi_disable_it_spi_tx_err) for [Anonymous Symbol]
    at6010_spi.o(.ARM.exidx.text.spi_enable_it) refers to at6010_spi.o(.text.spi_enable_it) for [Anonymous Symbol]
    at6010_spi.o(.ARM.exidx.text.spi_disable_it) refers to at6010_spi.o(.text.spi_disable_it) for [Anonymous Symbol]
    at6010_spi.o(.ARM.exidx.text.spi_disable_it_all) refers to at6010_spi.o(.text.spi_disable_it_all) for [Anonymous Symbol]
    at6010_spi.o(.ARM.exidx.text.spi_is_enable_it) refers to at6010_spi.o(.text.spi_is_enable_it) for [Anonymous Symbol]
    at6010_spi.o(.ARM.exidx.text.spi_is_active_it) refers to at6010_spi.o(.text.spi_is_active_it) for [Anonymous Symbol]
    at6010_spi.o(.ARM.exidx.text.spi_get_it_status) refers to at6010_spi.o(.text.spi_get_it_status) for [Anonymous Symbol]
    at6010_spi.o(.ARM.exidx.text.spi_is_raw_active_it) refers to at6010_spi.o(.text.spi_is_raw_active_it) for [Anonymous Symbol]
    at6010_spi.o(.ARM.exidx.text.spi_clear_it_tx_fifo_err) refers to at6010_spi.o(.text.spi_clear_it_tx_fifo_err) for [Anonymous Symbol]
    at6010_spi.o(.ARM.exidx.text.spi_clear_rx_overflow) refers to at6010_spi.o(.text.spi_clear_rx_overflow) for [Anonymous Symbol]
    at6010_spi.o(.ARM.exidx.text.spi_clear_rx_underflow) refers to at6010_spi.o(.text.spi_clear_rx_underflow) for [Anonymous Symbol]
    at6010_spi.o(.ARM.exidx.text.spi_clear_multi_master) refers to at6010_spi.o(.text.spi_clear_multi_master) for [Anonymous Symbol]
    at6010_spi.o(.ARM.exidx.text.spi_clear_all) refers to at6010_spi.o(.text.spi_clear_all) for [Anonymous Symbol]
    at6010_spi.o(.ARM.exidx.text.spi_tx_dma_enable) refers to at6010_spi.o(.text.spi_tx_dma_enable) for [Anonymous Symbol]
    at6010_spi.o(.ARM.exidx.text.spi_is_tx_dma_enable) refers to at6010_spi.o(.text.spi_is_tx_dma_enable) for [Anonymous Symbol]
    at6010_spi.o(.ARM.exidx.text.spi_rx_dma_enable) refers to at6010_spi.o(.text.spi_rx_dma_enable) for [Anonymous Symbol]
    at6010_spi.o(.ARM.exidx.text.spi_is_rx_dma_enable) refers to at6010_spi.o(.text.spi_is_rx_dma_enable) for [Anonymous Symbol]
    at6010_spi.o(.ARM.exidx.text.spi_set_tx_dma_data_lvl) refers to at6010_spi.o(.text.spi_set_tx_dma_data_lvl) for [Anonymous Symbol]
    at6010_spi.o(.ARM.exidx.text.spi_get_tx_dma_data_lvl) refers to at6010_spi.o(.text.spi_get_tx_dma_data_lvl) for [Anonymous Symbol]
    at6010_spi.o(.ARM.exidx.text.spi_set_rx_dma_data_lvl) refers to at6010_spi.o(.text.spi_set_rx_dma_data_lvl) for [Anonymous Symbol]
    at6010_spi.o(.ARM.exidx.text.spi_get_rx_dma_data_lvl) refers to at6010_spi.o(.text.spi_get_rx_dma_data_lvl) for [Anonymous Symbol]
    at6010_spi.o(.ARM.exidx.text.spi_enable_microwire_handshaking) refers to at6010_spi.o(.text.spi_enable_microwire_handshaking) for [Anonymous Symbol]
    at6010_spi.o(.ARM.exidx.text.spi_disable_microwire_handshaking) refers to at6010_spi.o(.text.spi_disable_microwire_handshaking) for [Anonymous Symbol]
    at6010_spi.o(.ARM.exidx.text.spi_is_active_microwire_handshaking) refers to at6010_spi.o(.text.spi_is_active_microwire_handshaking) for [Anonymous Symbol]
    at6010_spi.o(.ARM.exidx.text.spi_set_microwire_data_direction) refers to at6010_spi.o(.text.spi_set_microwire_data_direction) for [Anonymous Symbol]
    at6010_spi.o(.ARM.exidx.text.spi_get_microwire_data_direction) refers to at6010_spi.o(.text.spi_get_microwire_data_direction) for [Anonymous Symbol]
    at6010_spi.o(.ARM.exidx.text.spi_set_microwire_transfer_mode) refers to at6010_spi.o(.text.spi_set_microwire_transfer_mode) for [Anonymous Symbol]
    at6010_spi.o(.ARM.exidx.text.spi_get_microwire_transfer_mode) refers to at6010_spi.o(.text.spi_get_microwire_transfer_mode) for [Anonymous Symbol]
    at6010_spi.o(.ARM.exidx.text.spi_write_data) refers to at6010_spi.o(.text.spi_write_data) for [Anonymous Symbol]
    at6010_spi.o(.ARM.exidx.text.spi_read_data) refers to at6010_spi.o(.text.spi_read_data) for [Anonymous Symbol]
    at6010_spi.o(.ARM.exidx.text.spi_get_dr_addr) refers to at6010_spi.o(.text.spi_get_dr_addr) for [Anonymous Symbol]
    at6010_cfar.o(.ARM.exidx.text.cfar_enable) refers to at6010_cfar.o(.text.cfar_enable) for [Anonymous Symbol]
    at6010_cfar.o(.ARM.exidx.text.cfar_irq_enable) refers to at6010_cfar.o(.text.cfar_irq_enable) for [Anonymous Symbol]
    at6010_cfar.o(.ARM.exidx.text.cfar_vel_dim_cfg) refers to at6010_cfar.o(.text.cfar_vel_dim_cfg) for [Anonymous Symbol]
    at6010_cfar.o(.ARM.exidx.text.cfar_range_dim_cfg) refers to at6010_cfar.o(.text.cfar_range_dim_cfg) for [Anonymous Symbol]
    at6010_cfar.o(.ARM.exidx.text.cfar_abs_threshold_cfg) refers to at6010_cfar.o(.text.cfar_abs_threshold_cfg) for [Anonymous Symbol]
    at6010_cfar.o(.ARM.exidx.text.cfar_det_bmap_addr_cfg) refers to at6010_cfar.o(.text.cfar_det_bmap_addr_cfg) for [Anonymous Symbol]
    at6010_cfar.o(.text.cfar_irq_callback_set) refers to at6010_cfar.o(.bss.cfar_dev_irq_cb) for [Anonymous Symbol]
    at6010_cfar.o(.ARM.exidx.text.cfar_irq_callback_set) refers to at6010_cfar.o(.text.cfar_irq_callback_set) for [Anonymous Symbol]
    at6010_cfar.o(.text.cfar_isr) refers to at6010_cfar.o(.bss.cfar_dev_irq_cb) for [Anonymous Symbol]
    at6010_cfar.o(.ARM.exidx.text.cfar_isr) refers to at6010_cfar.o(.text.cfar_isr) for [Anonymous Symbol]
    at6010_fft.o(.ARM.exidx.text.fft_dev_init) refers to at6010_fft.o(.text.fft_dev_init) for [Anonymous Symbol]
    at6010_fft.o(.ARM.exidx.text.fft_irq_enable) refers to at6010_fft.o(.text.fft_irq_enable) for [Anonymous Symbol]
    at6010_fft.o(.ARM.exidx.text.fft_dev_deinit) refers to at6010_fft.o(.text.fft_dev_deinit) for [Anonymous Symbol]
    at6010_fft.o(.ARM.exidx.text.fft_user_win_enable) refers to at6010_fft.o(.text.fft_user_win_enable) for [Anonymous Symbol]
    at6010_fft.o(.ARM.exidx.text.fft_user_win_cfg) refers to at6010_fft.o(.text.fft_user_win_cfg) for [Anonymous Symbol]
    at6010_fft.o(.ARM.exidx.text.fft_adc_win_enable) refers to at6010_fft.o(.text.fft_adc_win_enable) for [Anonymous Symbol]
    at6010_fft.o(.ARM.exidx.text.fft_adc_win_cfg) refers to at6010_fft.o(.text.fft_adc_win_cfg) for [Anonymous Symbol]
    at6010_fft.o(.ARM.exidx.text.fft_dc_cut_enable) refers to at6010_fft.o(.text.fft_dc_cut_enable) for [Anonymous Symbol]
    at6010_fft.o(.ARM.exidx.text.fft_input_data_type_set) refers to at6010_fft.o(.text.fft_input_data_type_set) for [Anonymous Symbol]
    at6010_fft.o(.text.fft_irq_callback_set) refers to at6010_fft.o(.bss.fft_dev_irq_cb) for [Anonymous Symbol]
    at6010_fft.o(.ARM.exidx.text.fft_irq_callback_set) refers to at6010_fft.o(.text.fft_irq_callback_set) for [Anonymous Symbol]
    at6010_fft.o(.ARM.exidx.text.fft_adc_rdat_enable) refers to at6010_fft.o(.text.fft_adc_rdat_enable) for [Anonymous Symbol]
    at6010_fft.o(.ARM.exidx.text.fft_adc_rdat_cfg) refers to at6010_fft.o(.text.fft_adc_rdat_cfg) for [Anonymous Symbol]
    at6010_fft.o(.ARM.exidx.text.fft_adc_rdat_addr_set) refers to at6010_fft.o(.text.fft_adc_rdat_addr_set) for [Anonymous Symbol]
    at6010_fft.o(.ARM.exidx.text.fft_adc_fft_addr_set) refers to at6010_fft.o(.text.fft_adc_fft_addr_set) for [Anonymous Symbol]
    at6010_fft.o(.ARM.exidx.text.fft_adc_1d_fft_enable) refers to at6010_fft.o(.text.fft_adc_1d_fft_enable) for [Anonymous Symbol]
    at6010_fft.o(.ARM.exidx.text.fft_adc_1d_fft_cfg) refers to at6010_fft.o(.text.fft_adc_1d_fft_cfg) for [Anonymous Symbol]
    at6010_fft.o(.ARM.exidx.text.fft_adc_2d_fft_enable) refers to at6010_fft.o(.text.fft_adc_2d_fft_enable) for [Anonymous Symbol]
    at6010_fft.o(.ARM.exidx.text.fft_adc_2d_fft_cfg) refers to at6010_fft.o(.text.fft_adc_2d_fft_cfg) for [Anonymous Symbol]
    at6010_fft.o(.ARM.exidx.text.fft_user_fft_cfg) refers to at6010_fft.o(.text.fft_user_fft_cfg) for [Anonymous Symbol]
    at6010_fft.o(.ARM.exidx.text.fft_user_fft_start) refers to at6010_fft.o(.text.fft_user_fft_start) for [Anonymous Symbol]
    at6010_fft.o(.text.fft_isr) refers to at6010_fft.o(.bss.fft_dev_irq_cb) for [Anonymous Symbol]
    at6010_fft.o(.ARM.exidx.text.fft_isr) refers to at6010_fft.o(.text.fft_isr) for [Anonymous Symbol]
    at6010_radar.o(.ARM.exidx.text.radar_tx_pa_on) refers to at6010_radar.o(.text.radar_tx_pa_on) for [Anonymous Symbol]
    at6010_radar.o(.ARM.exidx.text.radar_tx_pa_off) refers to at6010_radar.o(.text.radar_tx_pa_off) for [Anonymous Symbol]
    at6010_radar.o(.text.radar_isr) refers to at6010_fft.o(.text.fft_isr) for fft_isr
    at6010_radar.o(.text.radar_isr) refers to at6010_cfar.o(.text.cfar_isr) for cfar_isr
    at6010_radar.o(.text.radar_isr) refers to at6010_radar.o(.bss.m_radar_cb) for [Anonymous Symbol]
    at6010_radar.o(.ARM.exidx.text.radar_isr) refers to at6010_radar.o(.text.radar_isr) for [Anonymous Symbol]
    at6010_radar.o(.text.radar_lp_init) refers to at6010_timer.o(.text) for timer_cb_set
    at6010_radar.o(.text.radar_lp_init) refers to at6010_radar.o(.text.radar_lp_resume) for radar_lp_resume
    at6010_radar.o(.text.radar_lp_init) refers to at6010_radar.o(.bss.m_radar_cb) for [Anonymous Symbol]
    at6010_radar.o(.text.radar_lp_init) refers to at6010_radar.o(.text.radar_lp_enter) for radar_lp_enter
    at6010_radar.o(.text.radar_lp_init) refers to at6010_radar.o(.data.m_lp_timer_id) for [Anonymous Symbol]
    at6010_radar.o(.text.radar_lp_init) refers to at6010_radar.o(.text.radar_lp_exit) for radar_lp_exit
    at6010_radar.o(.ARM.exidx.text.radar_lp_init) refers to at6010_radar.o(.text.radar_lp_init) for [Anonymous Symbol]
    at6010_radar.o(.text.radar_lp_enter) refers to at6010_timer.o(.text) for timer_start
    at6010_radar.o(.text.radar_lp_enter) refers to at6010_radar.o(.text.radar_deinit) for radar_deinit
    at6010_radar.o(.text.radar_lp_enter) refers to at6010_radar.o(.bss.m_lp_timer_en) for [Anonymous Symbol]
    at6010_radar.o(.text.radar_lp_enter) refers to at6010_radar.o(.data.m_lp_timer_id) for [Anonymous Symbol]
    at6010_radar.o(.text.radar_lp_enter) refers to at6010_radar.o(.bss.m_rx_num) for [Anonymous Symbol]
    at6010_radar.o(.ARM.exidx.text.radar_lp_enter) refers to at6010_radar.o(.text.radar_lp_enter) for [Anonymous Symbol]
    at6010_radar.o(.text.radar_lp_exit) refers to at6010_radar.o(.text.radar_rf_init) for radar_rf_init
    at6010_radar.o(.text.radar_lp_exit) refers to at6010_timer.o(.text) for timer_stop
    at6010_radar.o(.text.radar_lp_exit) refers to at6010_radar.o(.bss.m_rx_num) for [Anonymous Symbol]
    at6010_radar.o(.text.radar_lp_exit) refers to at6010_radar.o(.data.m_lp_timer_id) for [Anonymous Symbol]
    at6010_radar.o(.ARM.exidx.text.radar_lp_exit) refers to at6010_radar.o(.text.radar_lp_exit) for [Anonymous Symbol]
    at6010_radar.o(.text.radar_lp_resume) refers to at6010_radar_frame.o(.text.radar_frame_interval_get) for radar_frame_interval_get
    at6010_radar.o(.text.radar_lp_resume) refers to at6010_clock.o(.text) for clk_mcu_get
    at6010_radar.o(.text.radar_lp_resume) refers to aeabi_sdiv.o(.text) for __aeabi_uidiv
    at6010_radar.o(.text.radar_lp_resume) refers to at6010_timer.o(.text) for timer_reload_set
    at6010_radar.o(.text.radar_lp_resume) refers to at6010_radar.o(.bss.m_lp_timer_en) for [Anonymous Symbol]
    at6010_radar.o(.text.radar_lp_resume) refers to at6010_radar.o(.data.m_lp_timer_id) for [Anonymous Symbol]
    at6010_radar.o(.ARM.exidx.text.radar_lp_resume) refers to at6010_radar.o(.text.radar_lp_resume) for [Anonymous Symbol]
    at6010_radar.o(.text.radar_lp_timer_get) refers to at6010_radar.o(.data.m_lp_timer_id) for [Anonymous Symbol]
    at6010_radar.o(.ARM.exidx.text.radar_lp_timer_get) refers to at6010_radar.o(.text.radar_lp_timer_get) for [Anonymous Symbol]
    at6010_radar.o(.text.radar_lp_pause) refers to at6010_timer.o(.text) for timer_stop
    at6010_radar.o(.text.radar_lp_pause) refers to at6010_radar.o(.data.m_lp_timer_id) for [Anonymous Symbol]
    at6010_radar.o(.text.radar_lp_pause) refers to at6010_radar.o(.bss.m_lp_timer_en) for [Anonymous Symbol]
    at6010_radar.o(.ARM.exidx.text.radar_lp_pause) refers to at6010_radar.o(.text.radar_lp_pause) for [Anonymous Symbol]
    at6010_radar.o(.text.radar_ulp_init) refers to at6010_radar.o(.bss.m_radar_cb) for [Anonymous Symbol]
    at6010_radar.o(.text.radar_ulp_init) refers to at6010_radar.o(.text.radar_ulp_enter) for radar_ulp_enter
    at6010_radar.o(.ARM.exidx.text.radar_ulp_init) refers to at6010_radar.o(.text.radar_ulp_init) for [Anonymous Symbol]
    at6010_radar.o(.text.radar_ulp_enter) refers to at6010_radar.o(.text.radar_deinit) for radar_deinit
    at6010_radar.o(.text.radar_ulp_enter) refers to at6010_radar.o(.bss.m_rx_num) for [Anonymous Symbol]
    at6010_radar.o(.ARM.exidx.text.radar_ulp_enter) refers to at6010_radar.o(.text.radar_ulp_enter) for [Anonymous Symbol]
    at6010_radar.o(.text.radar_ulp_deinit) refers to at6010_radar.o(.bss.m_radar_cb) for [Anonymous Symbol]
    at6010_radar.o(.ARM.exidx.text.radar_ulp_deinit) refers to at6010_radar.o(.text.radar_ulp_deinit) for [Anonymous Symbol]
    at6010_radar.o(.text.radar_rf_pwr_on) refers to at6010_radar.o(.text.radar_rf_init) for radar_rf_init
    at6010_radar.o(.text.radar_rf_pwr_on) refers to at6010_radar.o(.bss.m_rx_num) for [Anonymous Symbol]
    at6010_radar.o(.ARM.exidx.text.radar_rf_pwr_on) refers to at6010_radar.o(.text.radar_rf_pwr_on) for [Anonymous Symbol]
    at6010_radar.o(.text.radar_rf_init) refers to cpu-at601x.o(.ram_region) for critical_section_start
    at6010_radar.o(.text.radar_rf_init) refers to at6010_pmu.o(.text.pmu_set_dig_vcore) for pmu_set_dig_vcore
    at6010_radar.o(.text.radar_rf_init) refers to retarget.o(.text) for delay_us
    at6010_radar.o(.ARM.exidx.text.radar_rf_init) refers to at6010_radar.o(.text.radar_rf_init) for [Anonymous Symbol]
    at6010_radar.o(.text.radar_rf_pwr_off) refers to at6010_radar.o(.text.radar_deinit) for radar_deinit
    at6010_radar.o(.text.radar_rf_pwr_off) refers to at6010_radar.o(.bss.m_rx_num) for [Anonymous Symbol]
    at6010_radar.o(.ARM.exidx.text.radar_rf_pwr_off) refers to at6010_radar.o(.text.radar_rf_pwr_off) for [Anonymous Symbol]
    at6010_radar.o(.ARM.exidx.text.radar_deinit) refers to at6010_radar.o(.text.radar_deinit) for [Anonymous Symbol]
    at6010_radar.o(.ARM.exidx.text.pll_1g_fast_mode_enable) refers to at6010_radar.o(.text.pll_1g_fast_mode_enable) for [Anonymous Symbol]
    at6010_radar.o(.text.radar_init) refers to at6010_clock.o(.text) for sys_clk_adc_sdm_inv_set
    at6010_radar.o(.text.radar_init) refers to at6010_pmu.o(.text.pmu_rf_pwr_on) for pmu_rf_pwr_on
    at6010_radar.o(.text.radar_init) refers to at6010_pmu.o(.text.pmu_por_osc_disable) for pmu_por_osc_disable
    at6010_radar.o(.text.radar_init) refers to at6010_pmu.o(.text.pmu_clk_dcdc_set) for pmu_clk_dcdc_set
    at6010_radar.o(.text.radar_init) refers to retarget.o(.text) for delay_us
    at6010_radar.o(.text.radar_init) refers to cpu-at601x.o(.ram_region) for critical_section_start
    at6010_radar.o(.text.radar_init) refers to at6010_pmu.o(.text.pmu_set_dig_vcore) for pmu_set_dig_vcore
    at6010_radar.o(.text.radar_init) refers to at6010_radar.o(.text.fmcw_afc_freq_set) for fmcw_afc_freq_set
    at6010_radar.o(.text.radar_init) refers to at6010_radar.o(.text.radar_rx_pf_cfg) for radar_rx_pf_cfg
    at6010_radar.o(.text.radar_init) refers to at6010_radar.o(.bss.m_vco_cap) for [Anonymous Symbol]
    at6010_radar.o(.text.radar_init) refers to at6010_radar.o(.rodata.cst8) for [Anonymous Symbol]
    at6010_radar.o(.text.radar_init) refers to at6010_radar.o(.bss.m_rx_num) for [Anonymous Symbol]
    at6010_radar.o(.ARM.exidx.text.radar_init) refers to at6010_radar.o(.text.radar_init) for [Anonymous Symbol]
    at6010_radar.o(.text.radar_burst_init) refers to at6010_clock.o(.text) for sys_clk_adc_sdm_inv_set
    at6010_radar.o(.text.radar_burst_init) refers to at6010_radar.o(.bss.m_rx_num) for [Anonymous Symbol]
    at6010_radar.o(.ARM.exidx.text.radar_burst_init) refers to at6010_radar.o(.text.radar_burst_init) for [Anonymous Symbol]
    at6010_radar.o(.ARM.exidx.text.radar_rx_pf_cfg) refers to at6010_radar.o(.text.radar_rx_pf_cfg) for [Anonymous Symbol]
    at6010_radar.o(.text.radar_tx_gain_set) refers to at6010_radar.o(.rodata.cst8) for [Anonymous Symbol]
    at6010_radar.o(.ARM.exidx.text.radar_tx_gain_set) refers to at6010_radar.o(.text.radar_tx_gain_set) for [Anonymous Symbol]
    at6010_radar.o(.text.fmcw_afc_freq_set) refers to at6010_clock.o(.text) for clock_xtal_type_get
    at6010_radar.o(.ARM.exidx.text.fmcw_afc_freq_set) refers to at6010_radar.o(.text.fmcw_afc_freq_set) for [Anonymous Symbol]
    at6010_radar.o(.text.radar_afc_vco_cap_get) refers to at6010_radar.o(.bss.m_vco_cap) for [Anonymous Symbol]
    at6010_radar.o(.ARM.exidx.text.radar_afc_vco_cap_get) refers to at6010_radar.o(.text.radar_afc_vco_cap_get) for [Anonymous Symbol]
    at6010_radar.o(.ARM.exidx.text.radar_debug_enable) refers to at6010_radar.o(.text.radar_debug_enable) for [Anonymous Symbol]
    at6010_radar.o(.text.radar_ant_rx_num_get) refers to at6010_radar.o(.bss.m_rx_num) for [Anonymous Symbol]
    at6010_radar.o(.ARM.exidx.text.radar_ant_rx_num_get) refers to at6010_radar.o(.text.radar_ant_rx_num_get) for [Anonymous Symbol]
    at6010_radar.o(.text.radar_ant_rx_num_set) refers to at6010_radar.o(.bss.m_rx_num) for [Anonymous Symbol]
    at6010_radar.o(.ARM.exidx.text.radar_ant_rx_num_set) refers to at6010_radar.o(.text.radar_ant_rx_num_set) for [Anonymous Symbol]
    at6010_radar.o(.ARM.exidx.text.radar_param_hpf1_gain_get) refers to at6010_radar.o(.text.radar_param_hpf1_gain_get) for [Anonymous Symbol]
    at6010_radar.o(.text.radar_param_hpf1_gain_set) refers to at6010_radar.o(.bss.m_rx_num) for [Anonymous Symbol]
    at6010_radar.o(.ARM.exidx.text.radar_param_hpf1_gain_set) refers to at6010_radar.o(.text.radar_param_hpf1_gain_set) for [Anonymous Symbol]
    at6010_radar.o(.ARM.exidx.text.radar_param_hpf1_freq_get) refers to at6010_radar.o(.text.radar_param_hpf1_freq_get) for [Anonymous Symbol]
    at6010_radar.o(.text.radar_param_hpf1_freq_set) refers to at6010_radar.o(.bss.m_rx_num) for [Anonymous Symbol]
    at6010_radar.o(.ARM.exidx.text.radar_param_hpf1_freq_set) refers to at6010_radar.o(.text.radar_param_hpf1_freq_set) for [Anonymous Symbol]
    at6010_radar.o(.ARM.exidx.text.radar_param_hpf2_gain_get) refers to at6010_radar.o(.text.radar_param_hpf2_gain_get) for [Anonymous Symbol]
    at6010_radar.o(.text.radar_param_hpf2_gain_set) refers to at6010_radar.o(.bss.m_rx_num) for [Anonymous Symbol]
    at6010_radar.o(.ARM.exidx.text.radar_param_hpf2_gain_set) refers to at6010_radar.o(.text.radar_param_hpf2_gain_set) for [Anonymous Symbol]
    at6010_radar.o(.ARM.exidx.text.radar_param_hpf2_freq_get) refers to at6010_radar.o(.text.radar_param_hpf2_freq_get) for [Anonymous Symbol]
    at6010_radar.o(.text.radar_param_hpf2_freq_set) refers to at6010_radar.o(.bss.m_rx_num) for [Anonymous Symbol]
    at6010_radar.o(.ARM.exidx.text.radar_param_hpf2_freq_set) refers to at6010_radar.o(.text.radar_param_hpf2_freq_set) for [Anonymous Symbol]
    at6010_radar.o(.ARM.exidx.text.radar_param_lpf_gain_get) refers to at6010_radar.o(.text.radar_param_lpf_gain_get) for [Anonymous Symbol]
    at6010_radar.o(.text.radar_param_lpf_gain_set) refers to at6010_radar.o(.bss.m_rx_num) for [Anonymous Symbol]
    at6010_radar.o(.ARM.exidx.text.radar_param_lpf_gain_set) refers to at6010_radar.o(.text.radar_param_lpf_gain_set) for [Anonymous Symbol]
    at6010_radar.o(.ARM.exidx.text.radar_param_lpf_freq_get) refers to at6010_radar.o(.text.radar_param_lpf_freq_get) for [Anonymous Symbol]
    at6010_radar.o(.text.radar_param_lpf_freq_set) refers to at6010_radar.o(.bss.m_rx_num) for [Anonymous Symbol]
    at6010_radar.o(.ARM.exidx.text.radar_param_lpf_freq_set) refers to at6010_radar.o(.text.radar_param_lpf_freq_set) for [Anonymous Symbol]
    at6010_radar_adc.o(.ARM.exidx.text.radar_filter_cfg) refers to at6010_radar_adc.o(.text.radar_filter_cfg) for [Anonymous Symbol]
    at6010_radar_adc.o(.ARM.exidx.text.radar_intf_para_set) refers to at6010_radar_adc.o(.text.radar_intf_para_set) for [Anonymous Symbol]
    at6010_radar_adc.o(.ARM.exidx.text.radar_filter_chirp_size_set) refers to at6010_radar_adc.o(.text.radar_filter_chirp_size_set) for [Anonymous Symbol]
    at6010_radar_adc.o(.ARM.exidx.text.radar_intf_mode_set) refers to at6010_radar_adc.o(.text.radar_intf_mode_set) for [Anonymous Symbol]
    at6010_radar_adc.o(.ARM.exidx.text.radar_filter_dma_cfg) refers to at6010_radar_adc.o(.text.radar_filter_dma_cfg) for [Anonymous Symbol]
    at6010_radar_adc.o(.ARM.exidx.text.radar_filter_intf_info_get) refers to at6010_radar_adc.o(.text.radar_filter_intf_info_get) for [Anonymous Symbol]
    at6010_radar_adc.o(.ARM.exidx.text.radar_dump_intf_status_cfg) refers to at6010_radar_adc.o(.text.radar_dump_intf_status_cfg) for [Anonymous Symbol]
    at6010_radar_adc.o(.ARM.exidx.text.radar_sdm_enable) refers to at6010_radar_adc.o(.text.radar_sdm_enable) for [Anonymous Symbol]
    at6010_radar_adc.o(.ARM.exidx.text.radar_sdm_disable) refers to at6010_radar_adc.o(.text.radar_sdm_disable) for [Anonymous Symbol]
    at6010_radar_adc.o(.ARM.exidx.text.radar_filter_disable) refers to at6010_radar_adc.o(.text.radar_filter_disable) for [Anonymous Symbol]
    at6010_radar_frame.o(.text.radar_chirp_profile_config) refers to aeabi_sdiv.o(.text) for __aeabi_uidiv
    at6010_radar_frame.o(.text.radar_chirp_profile_config) refers to lludiv.o(.text) for __aeabi_uldivmod
    at6010_radar_frame.o(.ARM.exidx.text.radar_chirp_profile_config) refers to at6010_radar_frame.o(.text.radar_chirp_profile_config) for [Anonymous Symbol]
    at6010_radar_frame.o(.ARM.exidx.text.radar_tx_profile_config) refers to at6010_radar_frame.o(.text.radar_tx_profile_config) for [Anonymous Symbol]
    at6010_radar_frame.o(.ARM.exidx.text.radar_subframe_profile_config) refers to at6010_radar_frame.o(.text.radar_subframe_profile_config) for [Anonymous Symbol]
    at6010_radar_frame.o(.ARM.exidx.text.radar_frame_config) refers to at6010_radar_frame.o(.text.radar_frame_config) for [Anonymous Symbol]
    at6010_radar_frame.o(.text.radar_chirp_profile_start_freq_set) refers to lludiv.o(.text) for __aeabi_uldivmod
    at6010_radar_frame.o(.ARM.exidx.text.radar_chirp_profile_start_freq_set) refers to at6010_radar_frame.o(.text.radar_chirp_profile_start_freq_set) for [Anonymous Symbol]
    at6010_radar_frame.o(.ARM.exidx.text.radar_frame_trigger_mode_set) refers to at6010_radar_frame.o(.text.radar_frame_trigger_mode_set) for [Anonymous Symbol]
    at6010_radar_frame.o(.ARM.exidx.text.radar_frame_start) refers to at6010_radar_frame.o(.text.radar_frame_start) for [Anonymous Symbol]
    at6010_radar_frame.o(.ARM.exidx.text.radar_frame_stop) refers to at6010_radar_frame.o(.text.radar_frame_stop) for [Anonymous Symbol]
    at6010_radar_frame.o(.ARM.exidx.text.radar_faston_time_set) refers to at6010_radar_frame.o(.text.radar_faston_time_set) for [Anonymous Symbol]
    at6010_radar_frame.o(.text.radar_frame_interval_get) refers to aeabi_sdiv.o(.text) for __aeabi_uidiv
    at6010_radar_frame.o(.ARM.exidx.text.radar_frame_interval_get) refers to at6010_radar_frame.o(.text.radar_frame_interval_get) for [Anonymous Symbol]
    at6010_radar_frame.o(.ARM.exidx.text.radar_frame_interval_set) refers to at6010_radar_frame.o(.text.radar_frame_interval_set) for [Anonymous Symbol]
    at6010_radar_frame.o(.ARM.exidx.text.radar_frame_repeat_times_set) refers to at6010_radar_frame.o(.text.radar_frame_repeat_times_set) for [Anonymous Symbol]
    at6010_radar_frame.o(.ARM.exidx.text.radar_frame_repeat_times_get) refers to at6010_radar_frame.o(.text.radar_frame_repeat_times_get) for [Anonymous Symbol]
    at6010_pmu.o(.ARM.exidx.text.pmu_reg_read) refers to at6010_pmu.o(.text.pmu_reg_read) for [Anonymous Symbol]
    at6010_pmu.o(.ARM.exidx.text.pmu_reg_write) refers to at6010_pmu.o(.text.pmu_reg_write) for [Anonymous Symbol]
    at6010_pmu.o(.ARM.exidx.text.pmu_reg_field_write) refers to at6010_pmu.o(.text.pmu_reg_field_write) for [Anonymous Symbol]
    at6010_pmu.o(.ARM.exidx.text.pmu_por_osc_enable) refers to at6010_pmu.o(.text.pmu_por_osc_enable) for [Anonymous Symbol]
    at6010_pmu.o(.ARM.exidx.text.pmu_por_osc_disable) refers to at6010_pmu.o(.text.pmu_por_osc_disable) for [Anonymous Symbol]
    at6010_pmu.o(.ARM.exidx.text.pmu_rf_pwr_on) refers to at6010_pmu.o(.text.pmu_rf_pwr_on) for [Anonymous Symbol]
    at6010_pmu.o(.ARM.exidx.text.pmu_rf_pwr_off) refers to at6010_pmu.o(.text.pmu_rf_pwr_off) for [Anonymous Symbol]
    at6010_pmu.o(.ARM.exidx.text.pmu_ldo_enable) refers to at6010_pmu.o(.text.pmu_ldo_enable) for [Anonymous Symbol]
    at6010_pmu.o(.text.pmu_clk_dcdc_set) refers to at6010_clock.o(.text) for xtal_freq_get
    at6010_pmu.o(.text.pmu_clk_dcdc_set) refers to aeabi_sdiv.o(.text) for __aeabi_uidiv
    at6010_pmu.o(.ARM.exidx.text.pmu_clk_dcdc_set) refers to at6010_pmu.o(.text.pmu_clk_dcdc_set) for [Anonymous Symbol]
    at6010_pmu.o(.ARM.exidx.text.pmu_set_sw_data) refers to at6010_pmu.o(.text.pmu_set_sw_data) for [Anonymous Symbol]
    at6010_pmu.o(.ARM.exidx.text.pmu_get_sw_data) refers to at6010_pmu.o(.text.pmu_get_sw_data) for [Anonymous Symbol]
    at6010_pmu.o(.ARM.exidx.text.pmu_set_bootmode) refers to at6010_pmu.o(.text.pmu_set_bootmode) for [Anonymous Symbol]
    at6010_pmu.o(.ARM.exidx.text.pmu_get_bootmode) refers to at6010_pmu.o(.text.pmu_get_bootmode) for [Anonymous Symbol]
    at6010_pmu.o(.ARM.exidx.text.pmu_set_boot_addr) refers to at6010_pmu.o(.text.pmu_set_boot_addr) for [Anonymous Symbol]
    at6010_pmu.o(.ARM.exidx.text.pmu_set_wakeup_time) refers to at6010_pmu.o(.text.pmu_set_wakeup_time) for [Anonymous Symbol]
    at6010_pmu.o(.ARM.exidx.text.pmu_set_retention) refers to at6010_pmu.o(.text.pmu_set_retention) for [Anonymous Symbol]
    at6010_pmu.o(.ARM.exidx.text.pmu_set_sleep_req) refers to at6010_pmu.o(.text.pmu_set_sleep_req) for [Anonymous Symbol]
    at6010_pmu.o(.ARM.exidx.text.pmu_enter_sleep) refers to at6010_pmu.o(.text.pmu_enter_sleep) for [Anonymous Symbol]
    at6010_pmu.o(.ARM.exidx.text.pmu_retention_select) refers to at6010_pmu.o(.text.pmu_retention_select) for [Anonymous Symbol]
    at6010_pmu.o(.ARM.exidx.text.pmu_enable_wakeup_source) refers to at6010_pmu.o(.text.pmu_enable_wakeup_source) for [Anonymous Symbol]
    at6010_pmu.o(.ARM.exidx.text.pmu_disable_wakeup_source) refers to at6010_pmu.o(.text.pmu_disable_wakeup_source) for [Anonymous Symbol]
    at6010_pmu.o(.ARM.exidx.text.pmu_enable_gpio_wakeup) refers to at6010_pmu.o(.text.pmu_enable_gpio_wakeup) for [Anonymous Symbol]
    at6010_pmu.o(.ARM.exidx.text.pmu_disable_gpio_wakeup) refers to at6010_pmu.o(.text.pmu_disable_gpio_wakeup) for [Anonymous Symbol]
    at6010_pmu.o(.ARM.exidx.text.pmu_skip_flash_pupd) refers to at6010_pmu.o(.text.pmu_skip_flash_pupd) for [Anonymous Symbol]
    at6010_pmu.o(.ARM.exidx.text.pmu_set_dvs) refers to at6010_pmu.o(.text.pmu_set_dvs) for [Anonymous Symbol]
    at6010_pmu.o(.ARM.exidx.text.pmu_set_cache_pd) refers to at6010_pmu.o(.text.pmu_set_cache_pd) for [Anonymous Symbol]
    at6010_pmu.o(.ARM.exidx.text.pmu_set_dig_vcore) refers to at6010_pmu.o(.text.pmu_set_dig_vcore) for [Anonymous Symbol]
    use_no_semi_2.o(.text) refers (Special) to use_no_semi.o(.text) for __use_no_semihosting_swi
    __2printf.o(.text) refers to _printf_char_file.o(.text) for _printf_char_file
    __2printf.o(.text) refers to retarget.o(.bss.__stdout) for __stdout
    noretval__2printf.o(.text) refers to _printf_char_file.o(.text) for _printf_char_file
    noretval__2printf.o(.text) refers to retarget.o(.bss.__stdout) for __stdout
    __printf.o(.text) refers to _printf_percent.o(.ARM.Collect$$_printf_percent$$00000000) for _printf_percent
    _printf_str.o(.text) refers (Special) to _printf_char.o(.text) for _printf_cs_common
    _printf_dec.o(.text) refers to rtudiv10.o(.text) for __rt_udiv10
    _printf_dec.o(.text) refers to _printf_intcommon.o(.text) for _printf_int_common
    __printf_flags.o(.text) refers to _printf_percent.o(.ARM.Collect$$_printf_percent$$00000000) for _printf_percent
    __printf_flags.o(.text) refers to __printf_flags.o(.constdata) for .constdata
    __printf_ss.o(.text) refers to _printf_percent.o(.ARM.Collect$$_printf_percent$$00000000) for _printf_percent
    __printf_flags_ss.o(.text) refers to _printf_percent.o(.ARM.Collect$$_printf_percent$$00000000) for _printf_percent
    __printf_flags_ss.o(.text) refers to __printf_flags_ss.o(.constdata) for .constdata
    __printf_wp.o(.text) refers to __printf_wp.o(i._is_digit) for _is_digit
    __printf_wp.o(.text) refers to _printf_percent.o(.ARM.Collect$$_printf_percent$$00000000) for _printf_percent
    __printf_flags_wp.o(.text) refers to __printf_wp.o(i._is_digit) for _is_digit
    __printf_flags_wp.o(.text) refers to _printf_percent.o(.ARM.Collect$$_printf_percent$$00000000) for _printf_percent
    __printf_flags_wp.o(.text) refers to __printf_flags_wp.o(.constdata) for .constdata
    __printf_ss_wp.o(.text) refers to __printf_wp.o(i._is_digit) for _is_digit
    __printf_ss_wp.o(.text) refers to _printf_percent.o(.ARM.Collect$$_printf_percent$$00000000) for _printf_percent
    __printf_flags_ss_wp.o(.text) refers to __printf_wp.o(i._is_digit) for _is_digit
    __printf_flags_ss_wp.o(.text) refers to _printf_percent.o(.ARM.Collect$$_printf_percent$$00000000) for _printf_percent
    __printf_flags_ss_wp.o(.text) refers to __printf_flags_ss_wp.o(.constdata) for .constdata
    _printf_s.o(.ARM.Collect$$_printf_percent$$00000014) refers (Weak) to _printf_char.o(.text) for _printf_string
    _printf_d.o(.ARM.Collect$$_printf_percent$$00000009) refers (Weak) to _printf_dec.o(.text) for _printf_int_dec
    _printf_f.o(.ARM.Collect$$_printf_percent$$00000003) refers (Weak) to printf1.o(x$fpl$printf1) for _printf_fp_dec
    _printf_percent.o(.ARM.Collect$$_printf_percent$$00000000) refers (Special) to _printf_percent_end.o(.ARM.Collect$$_printf_percent$$00000017) for _printf_percent_end
    puts.o(.text) refers to retarget.o(.text) for fputc
    puts.o(.text) refers to retarget.o(.bss.__stdout) for __stdout
    rt_memcpy.o(.text) refers to rt_memcpy.o(.emb_text) for __aeabi_memcpy4
    __main.o(!!!main) refers to __rtentry.o(.ARM.Collect$$rtentry$$00000000) for __rt_entry
    daddsub.o(.text) refers (Special) to usenofp.o(x$fpl$usenofp) for __I$use$fp
    dcmp.o(i._deq) refers (Special) to usenofp.o(x$fpl$usenofp) for __I$use$fp
    dcmp.o(i._deq) refers to deqf.o(x$fpl$deqf) for _dcmpeq
    dcmp.o(i._dgeq) refers (Special) to usenofp.o(x$fpl$usenofp) for __I$use$fp
    dcmp.o(i._dgeq) refers to dgef.o(x$fpl$dgeqf) for _dcmpge
    dcmp.o(i._dgr) refers (Special) to usenofp.o(x$fpl$usenofp) for __I$use$fp
    dcmp.o(i._dgr) refers to dgef.o(x$fpl$dgeqf) for _dcmpge
    dcmp.o(i._dleq) refers (Special) to usenofp.o(x$fpl$usenofp) for __I$use$fp
    dcmp.o(i._dleq) refers to dlef.o(x$fpl$dleqf) for _dcmple
    dcmp.o(i._dls) refers (Special) to usenofp.o(x$fpl$usenofp) for __I$use$fp
    dcmp.o(i._dls) refers to dlef.o(x$fpl$dleqf) for _dcmple
    dcmp.o(i._dneq) refers (Special) to usenofp.o(x$fpl$usenofp) for __I$use$fp
    dcmp.o(i._dneq) refers to deqf.o(x$fpl$deqf) for _dcmpeq
    dfixui.o(.text) refers (Special) to usenofp.o(x$fpl$usenofp) for __I$use$fp
    dflti.o(.text) refers (Special) to usenofp.o(x$fpl$usenofp) for __I$use$fp
    dmul.o(.text) refers (Special) to usenofp.o(x$fpl$usenofp) for __I$use$fp
    f2d.o(.text) refers (Special) to usenofp.o(x$fpl$usenofp) for __I$use$fp
    fdiv.o(.text) refers (Special) to usenofp.o(x$fpl$usenofp) for __I$use$fp
    fdiv.o(.text) refers to fdiv.o(.constdata) for .constdata
    fdiv.o(.constdata) refers (Special) to usenofp.o(x$fpl$usenofp) for __I$use$fp
    fflti.o(.text) refers (Special) to usenofp.o(x$fpl$usenofp) for __I$use$fp
    fmul.o(x$fpl$fmul) refers (Special) to usenofp.o(x$fpl$usenofp) for __I$use$fp
    printf1.o(x$fpl$printf1) refers to _printf_fp_dec.o(.text) for _printf_fp_dec_real
    sqrt.o(i.__softfp_sqrt) refers (Special) to usenofp.o(x$fpl$usenofp) for __I$use$fp
    sqrt.o(i.__softfp_sqrt) refers to dsqrt.o(.text) for _dsqrt
    sqrt.o(i.__softfp_sqrt) refers to _rserrno.o(.text) for __set_errno
    sqrt.o(i.sqrt) refers (Special) to usenofp.o(x$fpl$usenofp) for __I$use$fp
    sqrt.o(i.sqrt) refers to dsqrt.o(.text) for _dsqrt
    sqrt.o(i.sqrt) refers to _rserrno.o(.text) for __set_errno
    sqrt_x.o(i.____softfp_sqrt$lsc) refers (Special) to usenofp.o(x$fpl$usenofp) for __I$use$fp
    sqrt_x.o(i.____softfp_sqrt$lsc) refers to dlef.o(x$fpl$dleqf) for __aeabi_cdcmple
    sqrt_x.o(i.____softfp_sqrt$lsc) refers to _rserrno.o(.text) for __set_errno
    sqrt_x.o(i.____softfp_sqrt$lsc) refers to dsqrt.o(.text) for _dsqrt
    sqrt_x.o(i.__sqrt$lsc) refers (Special) to usenofp.o(x$fpl$usenofp) for __I$use$fp
    sqrt_x.o(i.__sqrt$lsc) refers to dlef.o(x$fpl$dleqf) for __aeabi_cdcmple
    sqrt_x.o(i.__sqrt$lsc) refers to _rserrno.o(.text) for __set_errno
    sqrt_x.o(i.__sqrt$lsc) refers to dsqrt.o(.text) for _dsqrt
    __rtentry.o(.ARM.Collect$$rtentry$$00000000) refers (Special) to __rtentry2.o(.ARM.Collect$$rtentry$$0000000A) for __rt_entry_li
    __rtentry.o(.ARM.Collect$$rtentry$$00000000) refers (Special) to __rtentry2.o(.ARM.Collect$$rtentry$$0000000D) for __rt_entry_main
    __rtentry.o(.ARM.Collect$$rtentry$$00000000) refers (Special) to __rtentry2.o(.ARM.Collect$$rtentry$$0000000C) for __rt_entry_postli_1
    __rtentry.o(.ARM.Collect$$rtentry$$00000000) refers (Special) to __rtentry2.o(.ARM.Collect$$rtentry$$00000009) for __rt_entry_postsh_1
    __rtentry.o(.ARM.Collect$$rtentry$$00000000) refers (Special) to __rtentry2.o(.ARM.Collect$$rtentry$$00000002) for __rt_entry_presh_1
    __rtentry.o(.ARM.Collect$$rtentry$$00000000) refers (Special) to __rtentry7.o(.ARM.Collect$$rtentry$$00000007) for __rt_entry_sh
    aeabi_idiv0_sigfpe.o(.text) refers to rt_div0.o(.text) for __rt_div0
    aeabi_ldiv0_sigfpe.o(.text) refers to rt_div0.o(.text) for __rt_div0
    _rserrno.o(.text) refers to rt_errno_addr_intlibspace.o(.text) for __aeabi_errno_addr
    _printf_fp_dec.o(.text) refers (Special) to usenofp.o(x$fpl$usenofp) for __I$use$fp
    _printf_fp_dec.o(.text) refers (Special) to lc_numeric_c.o(locale$$code) for _get_lc_numeric
    _printf_fp_dec.o(.text) refers to bigflt0.o(.text) for _btod_etento
    _printf_fp_dec.o(.text) refers to btod.o(.text) for _btod_d2e
    _printf_fp_dec.o(.text) refers to lludiv10.o(.text) for _ll_udiv10
    _printf_fp_dec.o(.text) refers to fpclassify.o(i.__ARM_fpclassify) for __ARM_fpclassify
    _printf_fp_dec.o(.text) refers to _printf_fp_infnan.o(.text) for _printf_fp_infnan
    _printf_fp_dec.o(.text) refers to rtudiv10.o(.text) for __rt_udiv10
    _printf_fp_dec.o(.text) refers to rt_locale_intlibspace.o(.text) for __rt_locale
    _printf_fp_dec_accurate.o(.text) refers (Special) to usenofp.o(x$fpl$usenofp) for __I$use$fp
    _printf_fp_dec_accurate.o(.text) refers (Special) to lc_numeric_c.o(locale$$code) for _get_lc_numeric
    _printf_fp_dec_accurate.o(.text) refers to btod_accurate.o(.text) for _btod_main
    _printf_fp_dec_accurate.o(.text) refers to fpclassify.o(i.__ARM_fpclassify) for __ARM_fpclassify
    _printf_fp_dec_accurate.o(.text) refers to _printf_fp_infnan.o(.text) for _printf_fp_infnan
    _printf_fp_dec_accurate.o(.text) refers to rtudiv10.o(.text) for __rt_udiv10
    _printf_fp_dec_accurate.o(.text) refers to rt_locale_intlibspace.o(.text) for __rt_locale
    _printf_char.o(.text) refers (Weak) to _printf_str.o(.text) for _printf_str
    _printf_char_file.o(.text) refers to _printf_char_common.o(.text) for _printf_char_common
    _printf_char_file.o(.text) refers to retarget.o(.text) for ferror
    deqf.o(x$fpl$deqf) refers (Special) to usenofp.o(x$fpl$usenofp) for __I$use$fp
    deqf.o(x$fpl$deqf) refers to dcmpin.o(.text) for __fpl_dcmp_InfNaN
    dgef.o(x$fpl$dgeqf) refers (Special) to usenofp.o(x$fpl$usenofp) for __I$use$fp
    dgef.o(x$fpl$dgeqf) refers to dcmpin.o(.text) for __fpl_dcmp_InfNaN
    dlef.o(x$fpl$dleqf) refers (Special) to usenofp.o(x$fpl$usenofp) for __I$use$fp
    dlef.o(x$fpl$dleqf) refers to dcmpin.o(.text) for __fpl_dcmp_InfNaN
    dsqrt.o(.text) refers (Special) to usenofp.o(x$fpl$usenofp) for __I$use$fp
    __rtentry2.o(.ARM.Collect$$rtentry$$00000008) refers to boardinit2.o(.text) for _platform_post_stackheap_init
    __rtentry2.o(.ARM.Collect$$rtentry$$0000000A) refers to libinit.o(.ARM.Collect$$libinit$$00000000) for __rt_lib_init
    __rtentry2.o(.ARM.Collect$$rtentry$$0000000B) refers to boardinit3.o(.text) for _platform_post_lib_init
    __rtentry2.o(.ARM.Collect$$rtentry$$0000000D) refers to range_fft_base_main.o(.text) for main
    __rtentry2.o(.ARM.Collect$$rtentry$$0000000D) refers to exit.o(.text) for exit
    __rtentry2.o(.ARM.exidx) refers to __rtentry2.o(.ARM.Collect$$rtentry$$00000001) for .ARM.Collect$$rtentry$$00000001
    __rtentry2.o(.ARM.exidx) refers to __rtentry2.o(.ARM.Collect$$rtentry$$00000008) for .ARM.Collect$$rtentry$$00000008
    __rtentry2.o(.ARM.exidx) refers to __rtentry2.o(.ARM.Collect$$rtentry$$0000000A) for .ARM.Collect$$rtentry$$0000000A
    __rtentry2.o(.ARM.exidx) refers to __rtentry2.o(.ARM.Collect$$rtentry$$0000000B) for .ARM.Collect$$rtentry$$0000000B
    __rtentry2.o(.ARM.exidx) refers to __rtentry2.o(.ARM.Collect$$rtentry$$0000000D) for .ARM.Collect$$rtentry$$0000000D
    __rtentry4.o(.ARM.Collect$$rtentry$$00000004) refers to sys_stackheap_outer.o(.text) for __user_setup_stackheap
    __rtentry4.o(.ARM.exidx) refers to __rtentry4.o(.ARM.Collect$$rtentry$$00000004) for .ARM.Collect$$rtentry$$00000004
    __rtentry7.o(.ARM.Collect$$rtentry$$00000007) refers to __rtentry7.o(.ARM.Collect$$rtentry$$00002718) for __lit__00000000
    __rtentry7.o(__vectab_stack_and_reset_2_area) refers to __main.o(!!!main) for __main
    __rtentry7.o(.ARM.exidx) refers to __rtentry7.o(.ARM.Collect$$rtentry$$00000007) for .ARM.Collect$$rtentry$$00000007
    __rtentry7.o(.ARM.exidx) refers to __rtentry7.o(.ARM.Collect$$rtentry$$00002718) for .ARM.Collect$$rtentry$$00002718
    rt_div0.o(.text) refers to defsig_fpe_outer.o(.text) for __rt_SIGFPE
    rt_locale.o(.text) refers to rt_locale.o(.bss) for __rt_locale_data
    rt_locale_intlibspace.o(.text) refers to libspace.o(.bss) for __libspace_start
    rt_errno_addr.o(.text) refers to rt_errno_addr.o(.bss) for __aeabi_errno_addr_data
    rt_errno_addr_intlibspace.o(.text) refers to libspace.o(.bss) for __libspace_start
    _printf_char_common.o(.text) refers to __printf_wp.o(.text) for __printf
    bigflt0.o(.text) refers (Special) to usenofp.o(x$fpl$usenofp) for __I$use$fp
    bigflt0.o(.text) refers to aeabi_sdiv.o(.text) for __aeabi_idivmod
    bigflt0.o(.text) refers to btod.o(.text) for _btod_emul
    bigflt0.o(.text) refers to bigflt0.o(.constdata) for .constdata
    bigflt0.o(.constdata) refers (Special) to usenofp.o(x$fpl$usenofp) for __I$use$fp
    btod.o(.text) refers to btod.o(i.__ARM_common_ll_muluu) for __ARM_common_ll_muluu
    btod_accurate.o(.text) refers to btod_accurate_common.o(.text) for _btod_common
    lc_numeric_c.o(locale$$data) refers (Special) to libinit2.o(.ARM.Collect$$libinit$$00000016) for __rt_lib_init_lc_numeric_2
    lc_numeric_c.o(locale$$code) refers (Special) to libinit2.o(.ARM.Collect$$libinit$$00000016) for __rt_lib_init_lc_numeric_2
    lc_numeric_c.o(locale$$code) refers to strcmp.o(.text) for strcmp
    lc_numeric_c.o(locale$$code) refers to lc_numeric_c.o(locale$$data) for __lcnum_c_name
    dcmpin.o(.text) refers (Special) to usenofp.o(x$fpl$usenofp) for __I$use$fp
    dcmpin.o(.text) refers to cmpret.o(.text) for __fpl_cmpreturn
    dcmpin.o(.text) refers to dnan2.o(.text) for __fpl_dcheck_NaN2
    ieee_status.o(.text) refers (Special) to usenofp.o(x$fpl$usenofp) for __I$use$fp
    fpclassify.o(i.__ARM_fpclassify) refers (Special) to usenofp.o(x$fpl$usenofp) for __I$use$fp
    libspace.o(.text) refers to libspace.o(.bss) for __libspace_start
    sys_stackheap_outer.o(.text) refers to libspace.o(.text) for __user_perproc_libspace
    sys_stackheap_outer.o(.text) refers to startup_cmsdk_cm0plus.o(.text) for __user_initial_stackheap
    sys_stackheap_outer.o(__vectab_stack_and_reset_area) refers to tempstk.o(.text) for __temporary_stack_top
    sys_stackheap_outer.o(__vectab_stack_and_reset_area) refers to __main.o(!!!main) for __main
    btod_accurate_common.o(.text) refers to aeabi_sdiv.o(.text) for __aeabi_uidivmod
    btod_accurate_common.o(.text) refers to llushr.o(.text) for __aeabi_llsr
    exit.o(.text) refers to rtexit.o(.ARM.Collect$$rtexit$$00000000) for __rt_exit
    defsig_fpe_outer.o(.text) refers to defsig_fpe_inner.o(.text) for __rt_SIGFPE_inner
    defsig_fpe_outer.o(.text) refers to defsig_exit.o(.text) for __sig_exit
    defsig_fpe_formal.o(.text) refers to rt_raise.o(.text) for __rt_raise
    libinit.o(.ARM.Collect$$libinit$$00000000) refers (Special) to libinit2.o(.ARM.Collect$$libinit$$0000002E) for __rt_lib_init_alloca_1
    libinit.o(.ARM.Collect$$libinit$$00000000) refers (Special) to libinit2.o(.ARM.Collect$$libinit$$0000002C) for __rt_lib_init_argv_1
    libinit.o(.ARM.Collect$$libinit$$00000000) refers (Special) to libinit2.o(.ARM.Collect$$libinit$$0000001B) for __rt_lib_init_atexit_1
    libinit.o(.ARM.Collect$$libinit$$00000000) refers (Special) to libinit2.o(.ARM.Collect$$libinit$$00000021) for __rt_lib_init_clock_1
    libinit.o(.ARM.Collect$$libinit$$00000000) refers (Special) to libinit2.o(.ARM.Collect$$libinit$$00000032) for __rt_lib_init_cpp_1
    libinit.o(.ARM.Collect$$libinit$$00000000) refers (Special) to libinit2.o(.ARM.Collect$$libinit$$00000030) for __rt_lib_init_exceptions_1
    libinit.o(.ARM.Collect$$libinit$$00000000) refers (Special) to libinit2.o(.ARM.Collect$$libinit$$00000002) for __rt_lib_init_fp_1
    libinit.o(.ARM.Collect$$libinit$$00000000) refers (Special) to libinit2.o(.ARM.Collect$$libinit$$0000001F) for __rt_lib_init_fp_trap_1
    libinit.o(.ARM.Collect$$libinit$$00000000) refers (Special) to libinit2.o(.ARM.Collect$$libinit$$00000023) for __rt_lib_init_getenv_1
    libinit.o(.ARM.Collect$$libinit$$00000000) refers (Special) to libinit2.o(.ARM.Collect$$libinit$$0000000A) for __rt_lib_init_heap_1
    libinit.o(.ARM.Collect$$libinit$$00000000) refers (Special) to libinit2.o(.ARM.Collect$$libinit$$00000011) for __rt_lib_init_lc_collate_1
    libinit.o(.ARM.Collect$$libinit$$00000000) refers (Special) to libinit2.o(.ARM.Collect$$libinit$$00000013) for __rt_lib_init_lc_ctype_1
    libinit.o(.ARM.Collect$$libinit$$00000000) refers (Special) to libinit2.o(.ARM.Collect$$libinit$$00000015) for __rt_lib_init_lc_monetary_1
    libinit.o(.ARM.Collect$$libinit$$00000000) refers (Special) to libinit2.o(.ARM.Collect$$libinit$$00000017) for __rt_lib_init_lc_numeric_1
    libinit.o(.ARM.Collect$$libinit$$00000000) refers (Special) to libinit2.o(.ARM.Collect$$libinit$$00000019) for __rt_lib_init_lc_time_1
    libinit.o(.ARM.Collect$$libinit$$00000000) refers (Special) to libinit2.o(.ARM.Collect$$libinit$$00000004) for __rt_lib_init_preinit_1
    libinit.o(.ARM.Collect$$libinit$$00000000) refers (Special) to libinit2.o(.ARM.Collect$$libinit$$0000000E) for __rt_lib_init_rand_1
    libinit.o(.ARM.Collect$$libinit$$00000000) refers (Special) to libinit2.o(.ARM.Collect$$libinit$$00000033) for __rt_lib_init_return
    libinit.o(.ARM.Collect$$libinit$$00000000) refers (Special) to libinit2.o(.ARM.Collect$$libinit$$0000001D) for __rt_lib_init_signal_1
    libinit.o(.ARM.Collect$$libinit$$00000000) refers (Special) to libinit2.o(.ARM.Collect$$libinit$$00000025) for __rt_lib_init_stdio_1
    libinit.o(.ARM.Collect$$libinit$$00000000) refers (Special) to libinit2.o(.ARM.Collect$$libinit$$0000000C) for __rt_lib_init_user_alloc_1
    libinit2.o(.ARM.Collect$$libinit$$0000000F) refers (Weak) to rt_locale_intlibspace.o(.text) for __rt_locale
    libinit2.o(.ARM.Collect$$libinit$$00000010) refers to libinit2.o(.ARM.Collect$$libinit$$0000000F) for .ARM.Collect$$libinit$$0000000F
    libinit2.o(.ARM.Collect$$libinit$$00000012) refers to libinit2.o(.ARM.Collect$$libinit$$0000000F) for .ARM.Collect$$libinit$$0000000F
    libinit2.o(.ARM.Collect$$libinit$$00000014) refers to libinit2.o(.ARM.Collect$$libinit$$0000000F) for .ARM.Collect$$libinit$$0000000F
    libinit2.o(.ARM.Collect$$libinit$$00000016) refers to libinit2.o(.ARM.Collect$$libinit$$0000000F) for .ARM.Collect$$libinit$$0000000F
    libinit2.o(.ARM.Collect$$libinit$$00000016) refers (Weak) to lc_numeric_c.o(locale$$code) for _get_lc_numeric
    libinit2.o(.ARM.Collect$$libinit$$00000018) refers to libinit2.o(.ARM.Collect$$libinit$$0000000F) for .ARM.Collect$$libinit$$0000000F
    libinit2.o(.ARM.Collect$$libinit$$00000026) refers to argv_veneer.o(.text) for __ARM_argv_veneer
    libinit2.o(.ARM.Collect$$libinit$$00000027) refers to argv_veneer.o(.text) for __ARM_argv_veneer
    cmpret.o(.text) refers (Special) to usenofp.o(x$fpl$usenofp) for __I$use$fp
    dnan2.o(.text) refers (Special) to usenofp.o(x$fpl$usenofp) for __I$use$fp
    dnan2.o(.text) refers to retnan.o(.text) for __fpl_return_NaN
    rtexit.o(.ARM.Collect$$rtexit$$00000000) refers (Special) to rtexit2.o(.ARM.Collect$$rtexit$$00000004) for __rt_exit_exit
    rtexit.o(.ARM.Collect$$rtexit$$00000000) refers (Special) to rtexit2.o(.ARM.Collect$$rtexit$$00000003) for __rt_exit_ls
    rtexit.o(.ARM.Collect$$rtexit$$00000000) refers (Special) to rtexit2.o(.ARM.Collect$$rtexit$$00000002) for __rt_exit_prels_1
    rtexit.o(.ARM.exidx) refers (Special) to rtexit2.o(.ARM.Collect$$rtexit$$00000004) for __rt_exit_exit
    rtexit.o(.ARM.exidx) refers (Special) to rtexit2.o(.ARM.Collect$$rtexit$$00000003) for __rt_exit_ls
    rtexit.o(.ARM.exidx) refers (Special) to rtexit2.o(.ARM.Collect$$rtexit$$00000002) for __rt_exit_prels_1
    rtexit.o(.ARM.exidx) refers to rtexit.o(.ARM.Collect$$rtexit$$00000000) for .ARM.Collect$$rtexit$$00000000
    rt_raise.o(.text) refers to __raise.o(.text) for __raise
    rt_raise.o(.text) refers to retarget.o(.text) for _sys_exit
    defsig_exit.o(.text) refers to retarget.o(.text) for _sys_exit
    defsig_fpe_inner.o(.text) refers to defsig_general.o(.text) for __default_signal_display
    libinit5.o(.ARM.Collect$$libinit$$00000008) refers to libinit5.o(.ARM.Collect$$libinit$$00002719) for __lit__00000000
    libinit5.o(.ARM.Collect$$libinit$$0000002A) refers to libinit5.o(.ARM.Collect$$libinit$$0000273B) for __lit__00000002
    libinit5.o(.ARM.Collect$$libinit$$0000002A) refers to argv_veneer.o(.text) for __ARM_argv_veneer
    retnan.o(.text) refers (Special) to usenofp.o(x$fpl$usenofp) for __I$use$fp
    retnan.o(.text) refers to cmpret.o(.text) for __fpl_cmpreturn
    rtexit2.o(.ARM.Collect$$rtexit$$00000003) refers to libshutdown.o(.ARM.Collect$$libshutdown$$00000000) for __rt_lib_shutdown
    rtexit2.o(.ARM.Collect$$rtexit$$00000004) refers to retarget.o(.text) for _sys_exit
    rtexit2.o(.ARM.exidx) refers to rtexit2.o(.ARM.Collect$$rtexit$$00000001) for .ARM.Collect$$rtexit$$00000001
    rtexit2.o(.ARM.exidx) refers to rtexit2.o(.ARM.Collect$$rtexit$$00000003) for .ARM.Collect$$rtexit$$00000003
    rtexit2.o(.ARM.exidx) refers to rtexit2.o(.ARM.Collect$$rtexit$$00000004) for .ARM.Collect$$rtexit$$00000004
    __raise.o(.text) refers to defsig.o(CL$$defsig) for __default_signal_handler
    defsig_general.o(.text) refers to retarget.o(.text) for _ttywrch
    _get_argv_nomalloc.o(.text) refers (Special) to hrguard.o(.text) for __heap_region$guard
    _get_argv_nomalloc.o(.text) refers to defsig_rtmem_outer.o(.text) for __rt_SIGRTMEM
    _get_argv_nomalloc.o(.text) refers to sys_command.o(.text) for _sys_command_string
    sys_command.o(.text) refers (Special) to use_no_semi.o(.text) for __I$use$semihosting
    sys_command.o(.text) refers (Special) to indicate_semi.o(.text) for __semihosting_library_function
    sys_command_hlt.o(.text) refers (Special) to use_no_semi.o(.text) for __I$use$semihosting
    sys_command_hlt.o(.text) refers (Special) to indicate_semi.o(.text) for __semihosting_library_function
    defsig_rtmem_outer.o(.text) refers to defsig_rtmem_inner.o(.text) for __rt_SIGRTMEM_inner
    defsig_rtmem_outer.o(.text) refers to defsig_exit.o(.text) for __sig_exit
    defsig_rtmem_formal.o(.text) refers to rt_raise.o(.text) for __rt_raise
    defsig.o(CL$$defsig) refers to defsig_fpe_inner.o(.text) for __rt_SIGFPE_inner
    defsig.o(CL$$defsig) refers to defsig_rtmem_inner.o(.text) for __rt_SIGRTMEM_inner
    libshutdown.o(.ARM.Collect$$libshutdown$$00000000) refers (Special) to libshutdown2.o(.ARM.Collect$$libshutdown$$00000002) for __rt_lib_shutdown_cpp_1
    libshutdown.o(.ARM.Collect$$libshutdown$$00000000) refers (Special) to libshutdown2.o(.ARM.Collect$$libshutdown$$00000007) for __rt_lib_shutdown_fp_trap_1
    libshutdown.o(.ARM.Collect$$libshutdown$$00000000) refers (Special) to libshutdown2.o(.ARM.Collect$$libshutdown$$0000000F) for __rt_lib_shutdown_heap_1
    libshutdown.o(.ARM.Collect$$libshutdown$$00000000) refers (Special) to libshutdown2.o(.ARM.Collect$$libshutdown$$00000010) for __rt_lib_shutdown_return
    libshutdown.o(.ARM.Collect$$libshutdown$$00000000) refers (Special) to libshutdown2.o(.ARM.Collect$$libshutdown$$0000000A) for __rt_lib_shutdown_signal_1
    libshutdown.o(.ARM.Collect$$libshutdown$$00000000) refers (Special) to libshutdown2.o(.ARM.Collect$$libshutdown$$00000004) for __rt_lib_shutdown_stdio_1
    libshutdown.o(.ARM.Collect$$libshutdown$$00000000) refers (Special) to libshutdown2.o(.ARM.Collect$$libshutdown$$0000000C) for __rt_lib_shutdown_user_alloc_1
    defsig_abrt_inner.o(.text) refers to defsig_general.o(.text) for __default_signal_display
    defsig_rtred_inner.o(.text) refers to defsig_general.o(.text) for __default_signal_display
    defsig_rtmem_inner.o(.text) refers to defsig_general.o(.text) for __default_signal_display
    defsig_stak_inner.o(.text) refers to defsig_general.o(.text) for __default_signal_display
    defsig_pvfn_inner.o(.text) refers to defsig_general.o(.text) for __default_signal_display
    defsig_cppl_inner.o(.text) refers to defsig_general.o(.text) for __default_signal_display
    defsig_segv_inner.o(.text) refers to defsig_general.o(.text) for __default_signal_display
    defsig_other.o(.text) refers to defsig_general.o(.text) for __default_signal_display


==============================================================================

Removing Unused input sections from the image.

    Removing retarget.o(.ARM.exidx), (136 bytes).
    Removing retarget.o(.bss.__stdin), (84 bytes).
    Removing retarget.o(.bss.__stderr), (84 bytes).
    Removing range_fft_base_main.o(.ARM.exidx), (64 bytes).
    Removing range_fft_base_main.o(.data.fileData_temp), (256 bytes).
    Removing range_fft_base_main.o(.ARM.use_no_argv), (4 bytes).
    Removing system_cmsdk_cm0plus.o(.ARM.exidx), (16 bytes).
    Removing system_cmsdk_cm0plus.o(.data.SystemFrequency), (4 bytes).
    Removing hal_clock.o(.ARM.exidx), (56 bytes).
    Removing hal_uart.o(.ARM.exidx), (72 bytes).
    Removing hal_fft.o(.ARM.exidx), (112 bytes).
    Removing radar_cfg_hal.o(.ARM.exidx), (8 bytes).
    Removing hal_radar.o(.ARM.exidx), (88 bytes).
    Removing hal_timer.o(.ARM.exidx), (64 bytes).
    Removing hal_dualtimer.o(.ARM.exidx), (80 bytes).
    Removing hal_dma.o(.ARM.exidx), (128 bytes).
    Removing hal_spi.o(.text), (5636 bytes).
    Removing hal_spi.o(.ARM.exidx), (320 bytes).
    Removing hal_spi.o(.rodata.str1.1), (375 bytes).
    Removing at6010_uart.o(.ARM.exidx), (152 bytes).
    Removing at6010_clock.o(.ARM.exidx), (344 bytes).
    Removing at6010_irq.o(.ARM.exidx), (224 bytes).
    Removing at6010_gpio.o(.ARM.exidx), (192 bytes).
    Removing cpu-at601x.o(.text), (0 bytes).
    Removing cpu-at601x.o(.ARM.exidx.ram_region), (16 bytes).
    Removing at6010_timer.o(.ARM.exidx), (104 bytes).
    Removing at6010_dualtimer.o(.ARM.exidx), (96 bytes).
    Removing output_config.o(.ARM.exidx), (24 bytes).
    Removing frame_header.o(.ARM.exidx), (8 bytes).
    Removing at6010_cache.o(.text), (0 bytes).
    Removing at6010_cache.o(.ARM.exidx.text.cache_init), (8 bytes).
    Removing at6010_cache.o(.ARM.exidx.text.cache_flush), (8 bytes).
    Removing at6010_dma.o(.text), (0 bytes).
    Removing at6010_dma.o(.ARM.exidx.text.dma_set_src_addr), (8 bytes).
    Removing at6010_dma.o(.text.dma_get_src_addr), (20 bytes).
    Removing at6010_dma.o(.ARM.exidx.text.dma_get_src_addr), (8 bytes).
    Removing at6010_dma.o(.ARM.exidx.text.dma_set_dst_addr), (8 bytes).
    Removing at6010_dma.o(.text.dma_get_dst_addr), (20 bytes).
    Removing at6010_dma.o(.ARM.exidx.text.dma_get_dst_addr), (8 bytes).
    Removing at6010_dma.o(.ARM.exidx.text.dma_set_linked_list_loc), (8 bytes).
    Removing at6010_dma.o(.text.dma_get_linked_list_loc), (24 bytes).
    Removing at6010_dma.o(.ARM.exidx.text.dma_get_linked_list_loc), (8 bytes).
    Removing at6010_dma.o(.ARM.exidx.text.dma_set_src_linked_list_en), (8 bytes).
    Removing at6010_dma.o(.text.dma_get_src_linked_list_en), (24 bytes).
    Removing at6010_dma.o(.ARM.exidx.text.dma_get_src_linked_list_en), (8 bytes).
    Removing at6010_dma.o(.ARM.exidx.text.dma_set_dst_linked_list_en), (8 bytes).
    Removing at6010_dma.o(.text.dma_get_dst_linked_list_en), (24 bytes).
    Removing at6010_dma.o(.ARM.exidx.text.dma_get_dst_linked_list_en), (8 bytes).
    Removing at6010_dma.o(.ARM.exidx.text.dma_clear_block_done_flag), (8 bytes).
    Removing at6010_dma.o(.text.dma_is_block_done), (24 bytes).
    Removing at6010_dma.o(.ARM.exidx.text.dma_is_block_done), (8 bytes).
    Removing at6010_dma.o(.ARM.exidx.text.dma_set_block_transfer_size), (8 bytes).
    Removing at6010_dma.o(.text.dma_get_block_transfer_size), (28 bytes).
    Removing at6010_dma.o(.ARM.exidx.text.dma_get_block_transfer_size), (8 bytes).
    Removing at6010_dma.o(.ARM.exidx.text.dma_set_flowctrl), (8 bytes).
    Removing at6010_dma.o(.text.dma_get_flowctrl), (24 bytes).
    Removing at6010_dma.o(.ARM.exidx.text.dma_get_flowctrl), (8 bytes).
    Removing at6010_dma.o(.ARM.exidx.text.dma_set_src_burst_length), (8 bytes).
    Removing at6010_dma.o(.text.dma_get_src_burst_length), (24 bytes).
    Removing at6010_dma.o(.ARM.exidx.text.dma_get_src_burst_length), (8 bytes).
    Removing at6010_dma.o(.ARM.exidx.text.dma_set_dst_burst_length), (8 bytes).
    Removing at6010_dma.o(.text.dma_get_dst_burst_length), (24 bytes).
    Removing at6010_dma.o(.ARM.exidx.text.dma_get_dst_burst_length), (8 bytes).
    Removing at6010_dma.o(.ARM.exidx.text.dma_set_src_addr_inc), (8 bytes).
    Removing at6010_dma.o(.text.dma_get_src_addr_inc), (24 bytes).
    Removing at6010_dma.o(.ARM.exidx.text.dma_get_src_addr_inc), (8 bytes).
    Removing at6010_dma.o(.ARM.exidx.text.dma_set_dst_addr_inc), (8 bytes).
    Removing at6010_dma.o(.text.dma_get_dst_addr_inc), (24 bytes).
    Removing at6010_dma.o(.ARM.exidx.text.dma_get_dst_addr_inc), (8 bytes).
    Removing at6010_dma.o(.ARM.exidx.text.dma_set_src_tr_width), (8 bytes).
    Removing at6010_dma.o(.text.dma_get_src_tr_width), (24 bytes).
    Removing at6010_dma.o(.ARM.exidx.text.dma_get_src_tr_width), (8 bytes).
    Removing at6010_dma.o(.ARM.exidx.text.dma_set_dst_tr_width), (8 bytes).
    Removing at6010_dma.o(.text.dma_get_dst_tr_width), (24 bytes).
    Removing at6010_dma.o(.ARM.exidx.text.dma_get_dst_tr_width), (8 bytes).
    Removing at6010_dma.o(.ARM.exidx.text.dma_set_int_en), (8 bytes).
    Removing at6010_dma.o(.text.dma_get_int_en), (24 bytes).
    Removing at6010_dma.o(.ARM.exidx.text.dma_get_int_en), (8 bytes).
    Removing at6010_dma.o(.ARM.exidx.text.dma_set_src_gather_en), (8 bytes).
    Removing at6010_dma.o(.text.dma_get_src_gather_en), (24 bytes).
    Removing at6010_dma.o(.ARM.exidx.text.dma_get_src_gather_en), (8 bytes).
    Removing at6010_dma.o(.ARM.exidx.text.dma_set_src_gather_cnt), (8 bytes).
    Removing at6010_dma.o(.text.dma_get_src_gather_cnt), (20 bytes).
    Removing at6010_dma.o(.ARM.exidx.text.dma_get_src_gather_cnt), (8 bytes).
    Removing at6010_dma.o(.ARM.exidx.text.dma_set_src_gather_interval), (8 bytes).
    Removing at6010_dma.o(.text.dma_get_src_gather_interval), (28 bytes).
    Removing at6010_dma.o(.ARM.exidx.text.dma_get_src_gather_interval), (8 bytes).
    Removing at6010_dma.o(.ARM.exidx.text.dma_set_dst_scatter_en), (8 bytes).
    Removing at6010_dma.o(.text.dma_get_dst_scatter_en), (24 bytes).
    Removing at6010_dma.o(.ARM.exidx.text.dma_get_dst_scatter_en), (8 bytes).
    Removing at6010_dma.o(.ARM.exidx.text.dma_set_dst_scatter_cnt), (8 bytes).
    Removing at6010_dma.o(.text.dma_get_dst_scatter_cnt), (20 bytes).
    Removing at6010_dma.o(.ARM.exidx.text.dma_get_dst_scatter_cnt), (8 bytes).
    Removing at6010_dma.o(.ARM.exidx.text.dma_set_dst_scatter_interval), (8 bytes).
    Removing at6010_dma.o(.text.dma_get_dst_scatter_interval), (28 bytes).
    Removing at6010_dma.o(.ARM.exidx.text.dma_get_dst_scatter_interval), (8 bytes).
    Removing at6010_dma.o(.ARM.exidx.text.dma_set_src_status_update_en), (8 bytes).
    Removing at6010_dma.o(.text.dma_get_src_status_update_en), (24 bytes).
    Removing at6010_dma.o(.ARM.exidx.text.dma_get_src_status_update_en), (8 bytes).
    Removing at6010_dma.o(.ARM.exidx.text.dma_set_src_status_addr), (8 bytes).
    Removing at6010_dma.o(.text.dma_get_src_status_addr), (20 bytes).
    Removing at6010_dma.o(.ARM.exidx.text.dma_get_src_status_addr), (8 bytes).
    Removing at6010_dma.o(.text.dma_get_src_status), (20 bytes).
    Removing at6010_dma.o(.ARM.exidx.text.dma_get_src_status), (8 bytes).
    Removing at6010_dma.o(.ARM.exidx.text.dma_set_dst_status_update_en), (8 bytes).
    Removing at6010_dma.o(.text.dma_get_dst_status_update_en), (24 bytes).
    Removing at6010_dma.o(.ARM.exidx.text.dma_get_dst_status_update_en), (8 bytes).
    Removing at6010_dma.o(.ARM.exidx.text.dma_set_dst_status_addr), (8 bytes).
    Removing at6010_dma.o(.text.dma_get_dst_status_addr), (20 bytes).
    Removing at6010_dma.o(.ARM.exidx.text.dma_get_dst_status_addr), (8 bytes).
    Removing at6010_dma.o(.text.dma_get_dst_status), (20 bytes).
    Removing at6010_dma.o(.ARM.exidx.text.dma_get_dst_status), (8 bytes).
    Removing at6010_dma.o(.ARM.exidx.text.dma_set_src_handshake_type), (8 bytes).
    Removing at6010_dma.o(.text.dma_get_src_handshake_type), (24 bytes).
    Removing at6010_dma.o(.ARM.exidx.text.dma_get_src_handshake_type), (8 bytes).
    Removing at6010_dma.o(.ARM.exidx.text.dma_set_dst_handshake_type), (8 bytes).
    Removing at6010_dma.o(.text.dma_get_dst_handshake_type), (24 bytes).
    Removing at6010_dma.o(.ARM.exidx.text.dma_get_dst_handshake_type), (8 bytes).
    Removing at6010_dma.o(.ARM.exidx.text.dma_set_src_handshake_if), (8 bytes).
    Removing at6010_dma.o(.text.dma_get_src_handshake_if), (24 bytes).
    Removing at6010_dma.o(.ARM.exidx.text.dma_get_src_handshake_if), (8 bytes).
    Removing at6010_dma.o(.ARM.exidx.text.dma_set_dst_handshake_if), (8 bytes).
    Removing at6010_dma.o(.text.dma_get_dst_handshake_if), (24 bytes).
    Removing at6010_dma.o(.ARM.exidx.text.dma_get_dst_handshake_if), (8 bytes).
    Removing at6010_dma.o(.ARM.exidx.text.dma_set_src_handshake_polarity), (8 bytes).
    Removing at6010_dma.o(.text.dma_get_src_handshake_polarity), (24 bytes).
    Removing at6010_dma.o(.ARM.exidx.text.dma_get_src_handshake_polarity), (8 bytes).
    Removing at6010_dma.o(.ARM.exidx.text.dma_set_dst_handshake_polarity), (8 bytes).
    Removing at6010_dma.o(.text.dma_get_dst_handshake_polarity), (24 bytes).
    Removing at6010_dma.o(.ARM.exidx.text.dma_get_dst_handshake_polarity), (8 bytes).
    Removing at6010_dma.o(.ARM.exidx.text.dma_set_protection_control), (8 bytes).
    Removing at6010_dma.o(.text.dma_get_protection_control), (24 bytes).
    Removing at6010_dma.o(.ARM.exidx.text.dma_get_protection_control), (8 bytes).
    Removing at6010_dma.o(.ARM.exidx.text.dma_set_fifo_mode), (8 bytes).
    Removing at6010_dma.o(.text.dma_get_fifo_mode), (24 bytes).
    Removing at6010_dma.o(.ARM.exidx.text.dma_get_fifo_mode), (8 bytes).
    Removing at6010_dma.o(.ARM.exidx.text.dma_set_flow_control_mode), (8 bytes).
    Removing at6010_dma.o(.text.dma_get_flow_control_mode), (24 bytes).
    Removing at6010_dma.o(.ARM.exidx.text.dma_get_flow_control_mode), (8 bytes).
    Removing at6010_dma.o(.ARM.exidx.text.dma_set_dst_reload_en), (8 bytes).
    Removing at6010_dma.o(.text.dma_get_dst_reload_en), (20 bytes).
    Removing at6010_dma.o(.ARM.exidx.text.dma_get_dst_reload_en), (8 bytes).
    Removing at6010_dma.o(.ARM.exidx.text.dma_set_src_realod_en), (8 bytes).
    Removing at6010_dma.o(.text.dma_get_src_realod_en), (24 bytes).
    Removing at6010_dma.o(.ARM.exidx.text.dma_get_src_realod_en), (8 bytes).
    Removing at6010_dma.o(.ARM.exidx.text.dma_set_lock_bus), (8 bytes).
    Removing at6010_dma.o(.text.dma_get_lock_bus), (24 bytes).
    Removing at6010_dma.o(.ARM.exidx.text.dma_get_lock_bus), (8 bytes).
    Removing at6010_dma.o(.ARM.exidx.text.dma_set_lock_channel), (8 bytes).
    Removing at6010_dma.o(.text.dma_get_lock_channel), (24 bytes).
    Removing at6010_dma.o(.ARM.exidx.text.dma_get_lock_channel), (8 bytes).
    Removing at6010_dma.o(.ARM.exidx.text.dma_set_lock_bus_level), (8 bytes).
    Removing at6010_dma.o(.text.dma_get_lock_bus_level), (24 bytes).
    Removing at6010_dma.o(.ARM.exidx.text.dma_get_lock_bus_level), (8 bytes).
    Removing at6010_dma.o(.ARM.exidx.text.dma_set_lock_channel_level), (8 bytes).
    Removing at6010_dma.o(.text.dma_get_lock_channel_level), (24 bytes).
    Removing at6010_dma.o(.ARM.exidx.text.dma_get_lock_channel_level), (8 bytes).
    Removing at6010_dma.o(.text.dma_is_fifo_empty), (24 bytes).
    Removing at6010_dma.o(.ARM.exidx.text.dma_is_fifo_empty), (8 bytes).
    Removing at6010_dma.o(.ARM.exidx.text.dma_set_channel_suspend), (8 bytes).
    Removing at6010_dma.o(.text.dma_get_channel_suspend), (24 bytes).
    Removing at6010_dma.o(.ARM.exidx.text.dma_get_channel_suspend), (8 bytes).
    Removing at6010_dma.o(.ARM.exidx.text.dma_set_channel_priority), (8 bytes).
    Removing at6010_dma.o(.text.dma_get_channel_priority), (24 bytes).
    Removing at6010_dma.o(.ARM.exidx.text.dma_get_channel_priority), (8 bytes).
    Removing at6010_dma.o(.ARM.exidx.text.dma_get_raw_tfr), (8 bytes).
    Removing at6010_dma.o(.text.dma_get_raw_block), (28 bytes).
    Removing at6010_dma.o(.ARM.exidx.text.dma_get_raw_block), (8 bytes).
    Removing at6010_dma.o(.text.dma_get_raw_src_tran), (28 bytes).
    Removing at6010_dma.o(.ARM.exidx.text.dma_get_raw_src_tran), (8 bytes).
    Removing at6010_dma.o(.text.dma_get_raw_dst_tran), (28 bytes).
    Removing at6010_dma.o(.ARM.exidx.text.dma_get_raw_dst_tran), (8 bytes).
    Removing at6010_dma.o(.text.dma_get_raw_error), (28 bytes).
    Removing at6010_dma.o(.ARM.exidx.text.dma_get_raw_error), (8 bytes).
    Removing at6010_dma.o(.ARM.exidx.text.dma_get_status_tfr), (8 bytes).
    Removing at6010_dma.o(.ARM.exidx.text.dma_get_status_block), (8 bytes).
    Removing at6010_dma.o(.ARM.exidx.text.dma_get_status_src_tran), (8 bytes).
    Removing at6010_dma.o(.ARM.exidx.text.dma_get_status_dst_tran), (8 bytes).
    Removing at6010_dma.o(.ARM.exidx.text.dma_get_status_error), (8 bytes).
    Removing at6010_dma.o(.ARM.exidx.text.dma_enable_it_tfr), (8 bytes).
    Removing at6010_dma.o(.ARM.exidx.text.dma_disable_it_tfr), (8 bytes).
    Removing at6010_dma.o(.ARM.exidx.text.dma_is_enabled_it_tfr), (8 bytes).
    Removing at6010_dma.o(.ARM.exidx.text.dma_enable_it_block), (8 bytes).
    Removing at6010_dma.o(.ARM.exidx.text.dma_disable_it_block), (8 bytes).
    Removing at6010_dma.o(.ARM.exidx.text.dma_is_enabled_it_block), (8 bytes).
    Removing at6010_dma.o(.ARM.exidx.text.dma_enable_it_src_tran), (8 bytes).
    Removing at6010_dma.o(.ARM.exidx.text.dma_disable_it_src_tran), (8 bytes).
    Removing at6010_dma.o(.ARM.exidx.text.dma_is_enabled_it_src_tran), (8 bytes).
    Removing at6010_dma.o(.ARM.exidx.text.dma_enable_it_dst_tran), (8 bytes).
    Removing at6010_dma.o(.ARM.exidx.text.dma_disable_it_dst_tran), (8 bytes).
    Removing at6010_dma.o(.ARM.exidx.text.dma_is_enabled_it_dst_tran), (8 bytes).
    Removing at6010_dma.o(.ARM.exidx.text.dma_enable_it_error), (8 bytes).
    Removing at6010_dma.o(.ARM.exidx.text.dma_disable_it_error), (8 bytes).
    Removing at6010_dma.o(.ARM.exidx.text.dma_is_enabled_it_error), (8 bytes).
    Removing at6010_dma.o(.ARM.exidx.text.dma_clear_it_tfr), (8 bytes).
    Removing at6010_dma.o(.ARM.exidx.text.dma_clear_it_block), (8 bytes).
    Removing at6010_dma.o(.ARM.exidx.text.dma_clear_it_src_tran), (8 bytes).
    Removing at6010_dma.o(.ARM.exidx.text.dma_clear_it_dst_tran), (8 bytes).
    Removing at6010_dma.o(.ARM.exidx.text.dma_clear_it_error), (8 bytes).
    Removing at6010_dma.o(.text.dma_get_int_status), (12 bytes).
    Removing at6010_dma.o(.ARM.exidx.text.dma_get_int_status), (8 bytes).
    Removing at6010_dma.o(.text.dma_src_sw_request), (28 bytes).
    Removing at6010_dma.o(.ARM.exidx.text.dma_src_sw_request), (8 bytes).
    Removing at6010_dma.o(.text.dma_dst_sw_request), (28 bytes).
    Removing at6010_dma.o(.ARM.exidx.text.dma_dst_sw_request), (8 bytes).
    Removing at6010_dma.o(.text.dma_src_single_sw_request), (28 bytes).
    Removing at6010_dma.o(.ARM.exidx.text.dma_src_single_sw_request), (8 bytes).
    Removing at6010_dma.o(.text.dma_dst_single_sw_request), (28 bytes).
    Removing at6010_dma.o(.ARM.exidx.text.dma_dst_single_sw_request), (8 bytes).
    Removing at6010_dma.o(.text.dma_src_last_sw_request), (28 bytes).
    Removing at6010_dma.o(.ARM.exidx.text.dma_src_last_sw_request), (8 bytes).
    Removing at6010_dma.o(.text.dma_dst_last_sw_request), (28 bytes).
    Removing at6010_dma.o(.ARM.exidx.text.dma_dst_last_sw_request), (8 bytes).
    Removing at6010_dma.o(.ARM.exidx.text.dma_enable_global), (8 bytes).
    Removing at6010_dma.o(.text.dma_is_enable_global), (16 bytes).
    Removing at6010_dma.o(.ARM.exidx.text.dma_is_enable_global), (8 bytes).
    Removing at6010_dma.o(.text.dma_disable_global), (44 bytes).
    Removing at6010_dma.o(.ARM.exidx.text.dma_disable_global), (8 bytes).
    Removing at6010_dma.o(.ARM.exidx.text.dma_enable_channel), (8 bytes).
    Removing at6010_dma.o(.ARM.exidx.text.dma_disable_channel), (8 bytes).
    Removing at6010_dma.o(.ARM.exidx.text.dma_is_active_channel), (8 bytes).
    Removing at6010_dma.o(.text.dma_get_free_channel), (44 bytes).
    Removing at6010_dma.o(.ARM.exidx.text.dma_get_free_channel), (8 bytes).
    Removing at6010_spi.o(.text), (0 bytes).
    Removing at6010_spi.o(.text.spi_set_work_mode), (16 bytes).
    Removing at6010_spi.o(.ARM.exidx.text.spi_set_work_mode), (8 bytes).
    Removing at6010_spi.o(.text.spi_get_work_mode), (6 bytes).
    Removing at6010_spi.o(.ARM.exidx.text.spi_get_work_mode), (8 bytes).
    Removing at6010_spi.o(.text.spi_set_dynamic_wait_state_enable), (18 bytes).
    Removing at6010_spi.o(.ARM.exidx.text.spi_set_dynamic_wait_state_enable), (8 bytes).
    Removing at6010_spi.o(.text.spi_get_dynamic_wait_state_enable), (8 bytes).
    Removing at6010_spi.o(.ARM.exidx.text.spi_get_dynamic_wait_state_enable), (8 bytes).
    Removing at6010_spi.o(.text.spi_set_spi_frame_format), (18 bytes).
    Removing at6010_spi.o(.ARM.exidx.text.spi_set_spi_frame_format), (8 bytes).
    Removing at6010_spi.o(.text.spi_get_spi_frame_format), (8 bytes).
    Removing at6010_spi.o(.ARM.exidx.text.spi_get_spi_frame_format), (8 bytes).
    Removing at6010_spi.o(.text.spi_set_control_frame_size), (18 bytes).
    Removing at6010_spi.o(.ARM.exidx.text.spi_set_control_frame_size), (8 bytes).
    Removing at6010_spi.o(.text.spi_get_control_frame_size), (8 bytes).
    Removing at6010_spi.o(.ARM.exidx.text.spi_get_control_frame_size), (8 bytes).
    Removing at6010_spi.o(.text.spi_set_slave_select_toggle_enable), (18 bytes).
    Removing at6010_spi.o(.ARM.exidx.text.spi_set_slave_select_toggle_enable), (8 bytes).
    Removing at6010_spi.o(.text.spi_get_slave_select_toggle_enable), (8 bytes).
    Removing at6010_spi.o(.ARM.exidx.text.spi_get_slave_select_toggle_enable), (8 bytes).
    Removing at6010_spi.o(.text.spi_set_slave_output_enable), (18 bytes).
    Removing at6010_spi.o(.ARM.exidx.text.spi_set_slave_output_enable), (8 bytes).
    Removing at6010_spi.o(.text.spi_get_slave_output_enable), (8 bytes).
    Removing at6010_spi.o(.ARM.exidx.text.spi_get_slave_output_enable), (8 bytes).
    Removing at6010_spi.o(.text.spi_set_transfer_mode), (18 bytes).
    Removing at6010_spi.o(.ARM.exidx.text.spi_set_transfer_mode), (8 bytes).
    Removing at6010_spi.o(.text.spi_get_transfer_mode), (8 bytes).
    Removing at6010_spi.o(.ARM.exidx.text.spi_get_transfer_mode), (8 bytes).
    Removing at6010_spi.o(.text.spi_set_clock_polarity), (18 bytes).
    Removing at6010_spi.o(.ARM.exidx.text.spi_set_clock_polarity), (8 bytes).
    Removing at6010_spi.o(.text.spi_get_clock_polarity), (8 bytes).
    Removing at6010_spi.o(.ARM.exidx.text.spi_get_clock_polarity), (8 bytes).
    Removing at6010_spi.o(.text.spi_set_clock_phase), (18 bytes).
    Removing at6010_spi.o(.ARM.exidx.text.spi_set_clock_phase), (8 bytes).
    Removing at6010_spi.o(.text.spi_get_clock_phase), (8 bytes).
    Removing at6010_spi.o(.ARM.exidx.text.spi_get_clock_phase), (8 bytes).
    Removing at6010_spi.o(.text.spi_set_frame_protocol), (16 bytes).
    Removing at6010_spi.o(.ARM.exidx.text.spi_set_frame_protocol), (8 bytes).
    Removing at6010_spi.o(.text.spi_get_frame_protocol), (8 bytes).
    Removing at6010_spi.o(.ARM.exidx.text.spi_get_frame_protocol), (8 bytes).
    Removing at6010_spi.o(.text.spi_set_data_frame_size), (14 bytes).
    Removing at6010_spi.o(.ARM.exidx.text.spi_set_data_frame_size), (8 bytes).
    Removing at6010_spi.o(.text.spi_get_data_frame_size), (8 bytes).
    Removing at6010_spi.o(.ARM.exidx.text.spi_get_data_frame_size), (8 bytes).
    Removing at6010_spi.o(.text.spi_set_number_of_data_frames), (20 bytes).
    Removing at6010_spi.o(.ARM.exidx.text.spi_set_number_of_data_frames), (8 bytes).
    Removing at6010_spi.o(.text.spi_get_number_of_data_frames), (8 bytes).
    Removing at6010_spi.o(.ARM.exidx.text.spi_get_number_of_data_frames), (8 bytes).
    Removing at6010_spi.o(.text.spi_enable), (10 bytes).
    Removing at6010_spi.o(.ARM.exidx.text.spi_enable), (8 bytes).
    Removing at6010_spi.o(.text.spi_disable), (10 bytes).
    Removing at6010_spi.o(.ARM.exidx.text.spi_disable), (8 bytes).
    Removing at6010_spi.o(.text.spi_is_enable), (8 bytes).
    Removing at6010_spi.o(.ARM.exidx.text.spi_is_enable), (8 bytes).
    Removing at6010_spi.o(.text.spi_enable_slave), (14 bytes).
    Removing at6010_spi.o(.ARM.exidx.text.spi_enable_slave), (8 bytes).
    Removing at6010_spi.o(.text.spi_disable_slave), (10 bytes).
    Removing at6010_spi.o(.ARM.exidx.text.spi_disable_slave), (8 bytes).
    Removing at6010_spi.o(.text.spi_is_slave_enable), (8 bytes).
    Removing at6010_spi.o(.ARM.exidx.text.spi_is_slave_enable), (8 bytes).
    Removing at6010_spi.o(.text.spi_set_sckdiv), (20 bytes).
    Removing at6010_spi.o(.ARM.exidx.text.spi_set_sckdiv), (8 bytes).
    Removing at6010_spi.o(.text.spi_get_sckdiv), (8 bytes).
    Removing at6010_spi.o(.ARM.exidx.text.spi_get_sckdiv), (8 bytes).
    Removing at6010_spi.o(.text.spi_set_tx_fifo_start_level), (18 bytes).
    Removing at6010_spi.o(.ARM.exidx.text.spi_set_tx_fifo_start_level), (8 bytes).
    Removing at6010_spi.o(.text.spi_get_tx_fifo_start_level), (8 bytes).
    Removing at6010_spi.o(.ARM.exidx.text.spi_get_tx_fifo_start_level), (8 bytes).
    Removing at6010_spi.o(.text.spi_set_tx_fifo_threshold), (14 bytes).
    Removing at6010_spi.o(.ARM.exidx.text.spi_set_tx_fifo_threshold), (8 bytes).
    Removing at6010_spi.o(.text.spi_get_tx_fifo_threshold), (8 bytes).
    Removing at6010_spi.o(.ARM.exidx.text.spi_get_tx_fifo_threshold), (8 bytes).
    Removing at6010_spi.o(.text.spi_set_rx_fifo_threshold), (16 bytes).
    Removing at6010_spi.o(.ARM.exidx.text.spi_set_rx_fifo_threshold), (8 bytes).
    Removing at6010_spi.o(.text.spi_get_rx_fifo_threshold), (10 bytes).
    Removing at6010_spi.o(.ARM.exidx.text.spi_get_rx_fifo_threshold), (8 bytes).
    Removing at6010_spi.o(.text.spi_set_rxd_sampling_edge), (22 bytes).
    Removing at6010_spi.o(.ARM.exidx.text.spi_set_rxd_sampling_edge), (8 bytes).
    Removing at6010_spi.o(.text.spi_get_rxd_sampling_edge), (10 bytes).
    Removing at6010_spi.o(.ARM.exidx.text.spi_get_rxd_sampling_edge), (8 bytes).
    Removing at6010_spi.o(.text.spi_set_rxd_sampling_delay), (18 bytes).
    Removing at6010_spi.o(.ARM.exidx.text.spi_set_rxd_sampling_delay), (8 bytes).
    Removing at6010_spi.o(.text.spi_get_rxd_sampling_delay), (8 bytes).
    Removing at6010_spi.o(.ARM.exidx.text.spi_get_rxd_sampling_delay), (8 bytes).
    Removing at6010_spi.o(.text.spi_set_wait_cycles), (22 bytes).
    Removing at6010_spi.o(.ARM.exidx.text.spi_set_wait_cycles), (8 bytes).
    Removing at6010_spi.o(.text.spi_get_wait_cycles), (10 bytes).
    Removing at6010_spi.o(.ARM.exidx.text.spi_get_wait_cycles), (8 bytes).
    Removing at6010_spi.o(.text.spi_set_instruction_length_bits), (22 bytes).
    Removing at6010_spi.o(.ARM.exidx.text.spi_set_instruction_length_bits), (8 bytes).
    Removing at6010_spi.o(.text.spi_get_instruction_length_bits), (10 bytes).
    Removing at6010_spi.o(.ARM.exidx.text.spi_get_instruction_length_bits), (8 bytes).
    Removing at6010_spi.o(.text.spi_set_addr_length), (20 bytes).
    Removing at6010_spi.o(.ARM.exidx.text.spi_set_addr_length), (8 bytes).
    Removing at6010_spi.o(.text.spi_get_addr_length), (10 bytes).
    Removing at6010_spi.o(.ARM.exidx.text.spi_get_addr_length), (8 bytes).
    Removing at6010_spi.o(.text.spi_set_trans_type), (18 bytes).
    Removing at6010_spi.o(.ARM.exidx.text.spi_set_trans_type), (8 bytes).
    Removing at6010_spi.o(.text.spi_get_trans_type), (10 bytes).
    Removing at6010_spi.o(.ARM.exidx.text.spi_get_trans_type), (8 bytes).
    Removing at6010_spi.o(.text.spi_get_tx_fifo_level), (8 bytes).
    Removing at6010_spi.o(.ARM.exidx.text.spi_get_tx_fifo_level), (8 bytes).
    Removing at6010_spi.o(.text.spi_get_rx_fifo_level), (8 bytes).
    Removing at6010_spi.o(.ARM.exidx.text.spi_get_rx_fifo_level), (8 bytes).
    Removing at6010_spi.o(.text.spi_get_status), (8 bytes).
    Removing at6010_spi.o(.ARM.exidx.text.spi_get_status), (8 bytes).
    Removing at6010_spi.o(.text.spi_get_status_data_collision), (8 bytes).
    Removing at6010_spi.o(.ARM.exidx.text.spi_get_status_data_collision), (8 bytes).
    Removing at6010_spi.o(.text.spi_get_status_tx_error), (8 bytes).
    Removing at6010_spi.o(.ARM.exidx.text.spi_get_status_tx_error), (8 bytes).
    Removing at6010_spi.o(.text.spi_get_status_rx_fifo_full), (8 bytes).
    Removing at6010_spi.o(.ARM.exidx.text.spi_get_status_rx_fifo_full), (8 bytes).
    Removing at6010_spi.o(.text.spi_get_status_rx_fifo_not_empty), (8 bytes).
    Removing at6010_spi.o(.ARM.exidx.text.spi_get_status_rx_fifo_not_empty), (8 bytes).
    Removing at6010_spi.o(.text.spi_get_status_tx_fifo_empty), (8 bytes).
    Removing at6010_spi.o(.ARM.exidx.text.spi_get_status_tx_fifo_empty), (8 bytes).
    Removing at6010_spi.o(.text.spi_get_status_tx_fifo_not_full), (8 bytes).
    Removing at6010_spi.o(.ARM.exidx.text.spi_get_status_tx_fifo_not_full), (8 bytes).
    Removing at6010_spi.o(.text.spi_get_status_busy), (8 bytes).
    Removing at6010_spi.o(.ARM.exidx.text.spi_get_status_busy), (8 bytes).
    Removing at6010_spi.o(.text.spi_enable_it_tx_fifo_empty), (10 bytes).
    Removing at6010_spi.o(.ARM.exidx.text.spi_enable_it_tx_fifo_empty), (8 bytes).
    Removing at6010_spi.o(.text.spi_disable_it_tx_fifo_empty), (10 bytes).
    Removing at6010_spi.o(.ARM.exidx.text.spi_disable_it_tx_fifo_empty), (8 bytes).
    Removing at6010_spi.o(.text.spi_enable_it_tx_fifo_overflow), (10 bytes).
    Removing at6010_spi.o(.ARM.exidx.text.spi_enable_it_tx_fifo_overflow), (8 bytes).
    Removing at6010_spi.o(.text.spi_disable_it_tx_fifo_overflow), (10 bytes).
    Removing at6010_spi.o(.ARM.exidx.text.spi_disable_it_tx_fifo_overflow), (8 bytes).
    Removing at6010_spi.o(.text.spi_enable_it_rx_fifo_underflow), (10 bytes).
    Removing at6010_spi.o(.ARM.exidx.text.spi_enable_it_rx_fifo_underflow), (8 bytes).
    Removing at6010_spi.o(.text.spi_disable_it_rx_fifo_underflow), (10 bytes).
    Removing at6010_spi.o(.ARM.exidx.text.spi_disable_it_rx_fifo_underflow), (8 bytes).
    Removing at6010_spi.o(.text.spi_enable_it_rx_fifo_overflow), (10 bytes).
    Removing at6010_spi.o(.ARM.exidx.text.spi_enable_it_rx_fifo_overflow), (8 bytes).
    Removing at6010_spi.o(.text.spi_disable_it_rx_fifo_overflow), (10 bytes).
    Removing at6010_spi.o(.ARM.exidx.text.spi_disable_it_rx_fifo_overflow), (8 bytes).
    Removing at6010_spi.o(.text.spi_enable_it_rx_fifo_full), (10 bytes).
    Removing at6010_spi.o(.ARM.exidx.text.spi_enable_it_rx_fifo_full), (8 bytes).
    Removing at6010_spi.o(.text.spi_disable_it_rx_fifo_full), (10 bytes).
    Removing at6010_spi.o(.ARM.exidx.text.spi_disable_it_rx_fifo_full), (8 bytes).
    Removing at6010_spi.o(.text.spi_enable_it_multi_master_cont), (10 bytes).
    Removing at6010_spi.o(.ARM.exidx.text.spi_enable_it_multi_master_cont), (8 bytes).
    Removing at6010_spi.o(.text.spi_disable_it_multi_master_cont), (10 bytes).
    Removing at6010_spi.o(.ARM.exidx.text.spi_disable_it_multi_master_cont), (8 bytes).
    Removing at6010_spi.o(.text.spi_enable_it_spi_tx_err), (12 bytes).
    Removing at6010_spi.o(.ARM.exidx.text.spi_enable_it_spi_tx_err), (8 bytes).
    Removing at6010_spi.o(.text.spi_disable_it_spi_tx_err), (12 bytes).
    Removing at6010_spi.o(.ARM.exidx.text.spi_disable_it_spi_tx_err), (8 bytes).
    Removing at6010_spi.o(.text.spi_enable_it), (8 bytes).
    Removing at6010_spi.o(.ARM.exidx.text.spi_enable_it), (8 bytes).
    Removing at6010_spi.o(.text.spi_disable_it), (8 bytes).
    Removing at6010_spi.o(.ARM.exidx.text.spi_disable_it), (8 bytes).
    Removing at6010_spi.o(.text.spi_disable_it_all), (16 bytes).
    Removing at6010_spi.o(.ARM.exidx.text.spi_disable_it_all), (8 bytes).
    Removing at6010_spi.o(.text.spi_is_enable_it), (10 bytes).
    Removing at6010_spi.o(.ARM.exidx.text.spi_is_enable_it), (8 bytes).
    Removing at6010_spi.o(.text.spi_is_active_it), (10 bytes).
    Removing at6010_spi.o(.ARM.exidx.text.spi_is_active_it), (8 bytes).
    Removing at6010_spi.o(.text.spi_get_it_status), (4 bytes).
    Removing at6010_spi.o(.ARM.exidx.text.spi_get_it_status), (8 bytes).
    Removing at6010_spi.o(.text.spi_is_raw_active_it), (10 bytes).
    Removing at6010_spi.o(.ARM.exidx.text.spi_is_raw_active_it), (8 bytes).
    Removing at6010_spi.o(.text.spi_clear_it_tx_fifo_err), (8 bytes).
    Removing at6010_spi.o(.ARM.exidx.text.spi_clear_it_tx_fifo_err), (8 bytes).
    Removing at6010_spi.o(.text.spi_clear_rx_overflow), (8 bytes).
    Removing at6010_spi.o(.ARM.exidx.text.spi_clear_rx_overflow), (8 bytes).
    Removing at6010_spi.o(.text.spi_clear_rx_underflow), (8 bytes).
    Removing at6010_spi.o(.ARM.exidx.text.spi_clear_rx_underflow), (8 bytes).
    Removing at6010_spi.o(.text.spi_clear_multi_master), (8 bytes).
    Removing at6010_spi.o(.ARM.exidx.text.spi_clear_multi_master), (8 bytes).
    Removing at6010_spi.o(.text.spi_clear_all), (8 bytes).
    Removing at6010_spi.o(.ARM.exidx.text.spi_clear_all), (8 bytes).
    Removing at6010_spi.o(.text.spi_tx_dma_enable), (16 bytes).
    Removing at6010_spi.o(.ARM.exidx.text.spi_tx_dma_enable), (8 bytes).
    Removing at6010_spi.o(.text.spi_is_tx_dma_enable), (8 bytes).
    Removing at6010_spi.o(.ARM.exidx.text.spi_is_tx_dma_enable), (8 bytes).
    Removing at6010_spi.o(.text.spi_rx_dma_enable), (14 bytes).
    Removing at6010_spi.o(.ARM.exidx.text.spi_rx_dma_enable), (8 bytes).
    Removing at6010_spi.o(.text.spi_is_rx_dma_enable), (8 bytes).
    Removing at6010_spi.o(.ARM.exidx.text.spi_is_rx_dma_enable), (8 bytes).
    Removing at6010_spi.o(.text.spi_set_tx_dma_data_lvl), (14 bytes).
    Removing at6010_spi.o(.ARM.exidx.text.spi_set_tx_dma_data_lvl), (8 bytes).
    Removing at6010_spi.o(.text.spi_get_tx_dma_data_lvl), (8 bytes).
    Removing at6010_spi.o(.ARM.exidx.text.spi_get_tx_dma_data_lvl), (8 bytes).
    Removing at6010_spi.o(.text.spi_set_rx_dma_data_lvl), (14 bytes).
    Removing at6010_spi.o(.ARM.exidx.text.spi_set_rx_dma_data_lvl), (8 bytes).
    Removing at6010_spi.o(.text.spi_get_rx_dma_data_lvl), (8 bytes).
    Removing at6010_spi.o(.ARM.exidx.text.spi_get_rx_dma_data_lvl), (8 bytes).
    Removing at6010_spi.o(.text.spi_enable_microwire_handshaking), (10 bytes).
    Removing at6010_spi.o(.ARM.exidx.text.spi_enable_microwire_handshaking), (8 bytes).
    Removing at6010_spi.o(.text.spi_disable_microwire_handshaking), (10 bytes).
    Removing at6010_spi.o(.ARM.exidx.text.spi_disable_microwire_handshaking), (8 bytes).
    Removing at6010_spi.o(.text.spi_is_active_microwire_handshaking), (8 bytes).
    Removing at6010_spi.o(.ARM.exidx.text.spi_is_active_microwire_handshaking), (8 bytes).
    Removing at6010_spi.o(.text.spi_set_microwire_data_direction), (16 bytes).
    Removing at6010_spi.o(.ARM.exidx.text.spi_set_microwire_data_direction), (8 bytes).
    Removing at6010_spi.o(.text.spi_get_microwire_data_direction), (8 bytes).
    Removing at6010_spi.o(.ARM.exidx.text.spi_get_microwire_data_direction), (8 bytes).
    Removing at6010_spi.o(.text.spi_set_microwire_transfer_mode), (14 bytes).
    Removing at6010_spi.o(.ARM.exidx.text.spi_set_microwire_transfer_mode), (8 bytes).
    Removing at6010_spi.o(.text.spi_get_microwire_transfer_mode), (8 bytes).
    Removing at6010_spi.o(.ARM.exidx.text.spi_get_microwire_transfer_mode), (8 bytes).
    Removing at6010_spi.o(.text.spi_write_data), (4 bytes).
    Removing at6010_spi.o(.ARM.exidx.text.spi_write_data), (8 bytes).
    Removing at6010_spi.o(.text.spi_read_data), (4 bytes).
    Removing at6010_spi.o(.ARM.exidx.text.spi_read_data), (8 bytes).
    Removing at6010_spi.o(.text.spi_get_dr_addr), (4 bytes).
    Removing at6010_spi.o(.ARM.exidx.text.spi_get_dr_addr), (8 bytes).
    Removing at6010_cfar.o(.text), (0 bytes).
    Removing at6010_cfar.o(.ARM.exidx.text.cfar_enable), (8 bytes).
    Removing at6010_cfar.o(.ARM.exidx.text.cfar_irq_enable), (8 bytes).
    Removing at6010_cfar.o(.ARM.exidx.text.cfar_vel_dim_cfg), (8 bytes).
    Removing at6010_cfar.o(.ARM.exidx.text.cfar_range_dim_cfg), (8 bytes).
    Removing at6010_cfar.o(.ARM.exidx.text.cfar_abs_threshold_cfg), (8 bytes).
    Removing at6010_cfar.o(.ARM.exidx.text.cfar_det_bmap_addr_cfg), (8 bytes).
    Removing at6010_cfar.o(.ARM.exidx.text.cfar_irq_callback_set), (8 bytes).
    Removing at6010_cfar.o(.ARM.exidx.text.cfar_isr), (8 bytes).
    Removing at6010_fft.o(.text), (0 bytes).
    Removing at6010_fft.o(.ARM.exidx.text.fft_dev_init), (8 bytes).
    Removing at6010_fft.o(.ARM.exidx.text.fft_irq_enable), (8 bytes).
    Removing at6010_fft.o(.ARM.exidx.text.fft_dev_deinit), (8 bytes).
    Removing at6010_fft.o(.ARM.exidx.text.fft_user_win_enable), (8 bytes).
    Removing at6010_fft.o(.ARM.exidx.text.fft_user_win_cfg), (8 bytes).
    Removing at6010_fft.o(.ARM.exidx.text.fft_adc_win_enable), (8 bytes).
    Removing at6010_fft.o(.ARM.exidx.text.fft_adc_win_cfg), (8 bytes).
    Removing at6010_fft.o(.ARM.exidx.text.fft_dc_cut_enable), (8 bytes).
    Removing at6010_fft.o(.ARM.exidx.text.fft_input_data_type_set), (8 bytes).
    Removing at6010_fft.o(.ARM.exidx.text.fft_irq_callback_set), (8 bytes).
    Removing at6010_fft.o(.ARM.exidx.text.fft_adc_rdat_enable), (8 bytes).
    Removing at6010_fft.o(.ARM.exidx.text.fft_adc_rdat_cfg), (8 bytes).
    Removing at6010_fft.o(.ARM.exidx.text.fft_adc_rdat_addr_set), (8 bytes).
    Removing at6010_fft.o(.ARM.exidx.text.fft_adc_fft_addr_set), (8 bytes).
    Removing at6010_fft.o(.ARM.exidx.text.fft_adc_1d_fft_enable), (8 bytes).
    Removing at6010_fft.o(.ARM.exidx.text.fft_adc_1d_fft_cfg), (8 bytes).
    Removing at6010_fft.o(.ARM.exidx.text.fft_adc_2d_fft_enable), (8 bytes).
    Removing at6010_fft.o(.ARM.exidx.text.fft_adc_2d_fft_cfg), (8 bytes).
    Removing at6010_fft.o(.ARM.exidx.text.fft_user_fft_cfg), (8 bytes).
    Removing at6010_fft.o(.ARM.exidx.text.fft_user_fft_start), (8 bytes).
    Removing at6010_fft.o(.ARM.exidx.text.fft_isr), (8 bytes).
    Removing at6010_radar.o(.text), (0 bytes).
    Removing at6010_radar.o(.text.radar_tx_pa_on), (32 bytes).
    Removing at6010_radar.o(.ARM.exidx.text.radar_tx_pa_on), (8 bytes).
    Removing at6010_radar.o(.text.radar_tx_pa_off), (52 bytes).
    Removing at6010_radar.o(.ARM.exidx.text.radar_tx_pa_off), (8 bytes).
    Removing at6010_radar.o(.ARM.exidx.text.radar_isr), (8 bytes).
    Removing at6010_radar.o(.ARM.exidx.text.radar_lp_init), (8 bytes).
    Removing at6010_radar.o(.ARM.exidx.text.radar_lp_enter), (8 bytes).
    Removing at6010_radar.o(.ARM.exidx.text.radar_lp_exit), (8 bytes).
    Removing at6010_radar.o(.ARM.exidx.text.radar_lp_resume), (8 bytes).
    Removing at6010_radar.o(.ARM.exidx.text.radar_lp_timer_get), (8 bytes).
    Removing at6010_radar.o(.ARM.exidx.text.radar_lp_pause), (8 bytes).
    Removing at6010_radar.o(.ARM.exidx.text.radar_ulp_init), (8 bytes).
    Removing at6010_radar.o(.ARM.exidx.text.radar_ulp_enter), (8 bytes).
    Removing at6010_radar.o(.ARM.exidx.text.radar_ulp_deinit), (8 bytes).
    Removing at6010_radar.o(.ARM.exidx.text.radar_rf_pwr_on), (8 bytes).
    Removing at6010_radar.o(.ARM.exidx.text.radar_rf_init), (8 bytes).
    Removing at6010_radar.o(.ARM.exidx.text.radar_rf_pwr_off), (8 bytes).
    Removing at6010_radar.o(.ARM.exidx.text.radar_deinit), (8 bytes).
    Removing at6010_radar.o(.text.pll_1g_fast_mode_enable), (108 bytes).
    Removing at6010_radar.o(.ARM.exidx.text.pll_1g_fast_mode_enable), (8 bytes).
    Removing at6010_radar.o(.ARM.exidx.text.radar_init), (8 bytes).
    Removing at6010_radar.o(.ARM.exidx.text.radar_burst_init), (8 bytes).
    Removing at6010_radar.o(.ARM.exidx.text.radar_rx_pf_cfg), (8 bytes).
    Removing at6010_radar.o(.text.radar_tx_gain_set), (56 bytes).
    Removing at6010_radar.o(.ARM.exidx.text.radar_tx_gain_set), (8 bytes).
    Removing at6010_radar.o(.ARM.exidx.text.fmcw_afc_freq_set), (8 bytes).
    Removing at6010_radar.o(.text.radar_afc_vco_cap_get), (12 bytes).
    Removing at6010_radar.o(.ARM.exidx.text.radar_afc_vco_cap_get), (8 bytes).
    Removing at6010_radar.o(.text.radar_debug_enable), (16 bytes).
    Removing at6010_radar.o(.ARM.exidx.text.radar_debug_enable), (8 bytes).
    Removing at6010_radar.o(.ARM.exidx.text.radar_ant_rx_num_get), (8 bytes).
    Removing at6010_radar.o(.ARM.exidx.text.radar_ant_rx_num_set), (8 bytes).
    Removing at6010_radar.o(.ARM.exidx.text.radar_param_hpf1_gain_get), (8 bytes).
    Removing at6010_radar.o(.ARM.exidx.text.radar_param_hpf1_gain_set), (8 bytes).
    Removing at6010_radar.o(.ARM.exidx.text.radar_param_hpf1_freq_get), (8 bytes).
    Removing at6010_radar.o(.ARM.exidx.text.radar_param_hpf1_freq_set), (8 bytes).
    Removing at6010_radar.o(.ARM.exidx.text.radar_param_hpf2_gain_get), (8 bytes).
    Removing at6010_radar.o(.ARM.exidx.text.radar_param_hpf2_gain_set), (8 bytes).
    Removing at6010_radar.o(.ARM.exidx.text.radar_param_hpf2_freq_get), (8 bytes).
    Removing at6010_radar.o(.ARM.exidx.text.radar_param_hpf2_freq_set), (8 bytes).
    Removing at6010_radar.o(.ARM.exidx.text.radar_param_lpf_gain_get), (8 bytes).
    Removing at6010_radar.o(.ARM.exidx.text.radar_param_lpf_gain_set), (8 bytes).
    Removing at6010_radar.o(.ARM.exidx.text.radar_param_lpf_freq_get), (8 bytes).
    Removing at6010_radar.o(.ARM.exidx.text.radar_param_lpf_freq_set), (8 bytes).
    Removing at6010_radar_adc.o(.text), (0 bytes).
    Removing at6010_radar_adc.o(.ARM.exidx.text.radar_filter_cfg), (8 bytes).
    Removing at6010_radar_adc.o(.text.radar_intf_para_set), (56 bytes).
    Removing at6010_radar_adc.o(.ARM.exidx.text.radar_intf_para_set), (8 bytes).
    Removing at6010_radar_adc.o(.text.radar_filter_chirp_size_set), (28 bytes).
    Removing at6010_radar_adc.o(.ARM.exidx.text.radar_filter_chirp_size_set), (8 bytes).
    Removing at6010_radar_adc.o(.text.radar_intf_mode_set), (24 bytes).
    Removing at6010_radar_adc.o(.ARM.exidx.text.radar_intf_mode_set), (8 bytes).
    Removing at6010_radar_adc.o(.ARM.exidx.text.radar_filter_dma_cfg), (8 bytes).
    Removing at6010_radar_adc.o(.text.radar_filter_intf_info_get), (20 bytes).
    Removing at6010_radar_adc.o(.ARM.exidx.text.radar_filter_intf_info_get), (8 bytes).
    Removing at6010_radar_adc.o(.text.radar_dump_intf_status_cfg), (44 bytes).
    Removing at6010_radar_adc.o(.ARM.exidx.text.radar_dump_intf_status_cfg), (8 bytes).
    Removing at6010_radar_adc.o(.text.radar_sdm_enable), (36 bytes).
    Removing at6010_radar_adc.o(.ARM.exidx.text.radar_sdm_enable), (8 bytes).
    Removing at6010_radar_adc.o(.text.radar_sdm_disable), (36 bytes).
    Removing at6010_radar_adc.o(.ARM.exidx.text.radar_sdm_disable), (8 bytes).
    Removing at6010_radar_adc.o(.text.radar_filter_disable), (20 bytes).
    Removing at6010_radar_adc.o(.ARM.exidx.text.radar_filter_disable), (8 bytes).
    Removing at6010_radar_frame.o(.text), (0 bytes).
    Removing at6010_radar_frame.o(.ARM.exidx.text.radar_chirp_profile_config), (8 bytes).
    Removing at6010_radar_frame.o(.ARM.exidx.text.radar_tx_profile_config), (8 bytes).
    Removing at6010_radar_frame.o(.ARM.exidx.text.radar_subframe_profile_config), (8 bytes).
    Removing at6010_radar_frame.o(.ARM.exidx.text.radar_frame_config), (8 bytes).
    Removing at6010_radar_frame.o(.text.radar_chirp_profile_start_freq_set), (32 bytes).
    Removing at6010_radar_frame.o(.ARM.exidx.text.radar_chirp_profile_start_freq_set), (8 bytes).
    Removing at6010_radar_frame.o(.ARM.exidx.text.radar_frame_trigger_mode_set), (8 bytes).
    Removing at6010_radar_frame.o(.ARM.exidx.text.radar_frame_start), (8 bytes).
    Removing at6010_radar_frame.o(.ARM.exidx.text.radar_frame_stop), (8 bytes).
    Removing at6010_radar_frame.o(.ARM.exidx.text.radar_faston_time_set), (8 bytes).
    Removing at6010_radar_frame.o(.ARM.exidx.text.radar_frame_interval_get), (8 bytes).
    Removing at6010_radar_frame.o(.ARM.exidx.text.radar_frame_interval_set), (8 bytes).
    Removing at6010_radar_frame.o(.ARM.exidx.text.radar_frame_repeat_times_set), (8 bytes).
    Removing at6010_radar_frame.o(.ARM.exidx.text.radar_frame_repeat_times_get), (8 bytes).
    Removing at6010_pmu.o(.text), (0 bytes).
    Removing at6010_pmu.o(.text.pmu_reg_read), (12 bytes).
    Removing at6010_pmu.o(.ARM.exidx.text.pmu_reg_read), (8 bytes).
    Removing at6010_pmu.o(.text.pmu_reg_write), (12 bytes).
    Removing at6010_pmu.o(.ARM.exidx.text.pmu_reg_write), (8 bytes).
    Removing at6010_pmu.o(.text.pmu_reg_field_write), (48 bytes).
    Removing at6010_pmu.o(.ARM.exidx.text.pmu_reg_field_write), (8 bytes).
    Removing at6010_pmu.o(.text.pmu_por_osc_enable), (16 bytes).
    Removing at6010_pmu.o(.ARM.exidx.text.pmu_por_osc_enable), (8 bytes).
    Removing at6010_pmu.o(.ARM.exidx.text.pmu_por_osc_disable), (8 bytes).
    Removing at6010_pmu.o(.ARM.exidx.text.pmu_rf_pwr_on), (8 bytes).
    Removing at6010_pmu.o(.text.pmu_rf_pwr_off), (16 bytes).
    Removing at6010_pmu.o(.ARM.exidx.text.pmu_rf_pwr_off), (8 bytes).
    Removing at6010_pmu.o(.text.pmu_ldo_enable), (40 bytes).
    Removing at6010_pmu.o(.ARM.exidx.text.pmu_ldo_enable), (8 bytes).
    Removing at6010_pmu.o(.ARM.exidx.text.pmu_clk_dcdc_set), (8 bytes).
    Removing at6010_pmu.o(.text.pmu_set_sw_data), (16 bytes).
    Removing at6010_pmu.o(.ARM.exidx.text.pmu_set_sw_data), (8 bytes).
    Removing at6010_pmu.o(.text.pmu_get_sw_data), (20 bytes).
    Removing at6010_pmu.o(.ARM.exidx.text.pmu_get_sw_data), (8 bytes).
    Removing at6010_pmu.o(.text.pmu_set_bootmode), (12 bytes).
    Removing at6010_pmu.o(.ARM.exidx.text.pmu_set_bootmode), (8 bytes).
    Removing at6010_pmu.o(.text.pmu_get_bootmode), (12 bytes).
    Removing at6010_pmu.o(.ARM.exidx.text.pmu_get_bootmode), (8 bytes).
    Removing at6010_pmu.o(.text.pmu_set_boot_addr), (24 bytes).
    Removing at6010_pmu.o(.ARM.exidx.text.pmu_set_boot_addr), (8 bytes).
    Removing at6010_pmu.o(.text.pmu_set_wakeup_time), (20 bytes).
    Removing at6010_pmu.o(.ARM.exidx.text.pmu_set_wakeup_time), (8 bytes).
    Removing at6010_pmu.o(.text.pmu_set_retention), (24 bytes).
    Removing at6010_pmu.o(.ARM.exidx.text.pmu_set_retention), (8 bytes).
    Removing at6010_pmu.o(.text.pmu_set_sleep_req), (24 bytes).
    Removing at6010_pmu.o(.ARM.exidx.text.pmu_set_sleep_req), (8 bytes).
    Removing at6010_pmu.o(.text.pmu_enter_sleep), (40 bytes).
    Removing at6010_pmu.o(.ARM.exidx.text.pmu_enter_sleep), (8 bytes).
    Removing at6010_pmu.o(.text.pmu_retention_select), (16 bytes).
    Removing at6010_pmu.o(.ARM.exidx.text.pmu_retention_select), (8 bytes).
    Removing at6010_pmu.o(.text.pmu_enable_wakeup_source), (16 bytes).
    Removing at6010_pmu.o(.ARM.exidx.text.pmu_enable_wakeup_source), (8 bytes).
    Removing at6010_pmu.o(.text.pmu_disable_wakeup_source), (16 bytes).
    Removing at6010_pmu.o(.ARM.exidx.text.pmu_disable_wakeup_source), (8 bytes).
    Removing at6010_pmu.o(.text.pmu_enable_gpio_wakeup), (16 bytes).
    Removing at6010_pmu.o(.ARM.exidx.text.pmu_enable_gpio_wakeup), (8 bytes).
    Removing at6010_pmu.o(.text.pmu_disable_gpio_wakeup), (16 bytes).
    Removing at6010_pmu.o(.ARM.exidx.text.pmu_disable_gpio_wakeup), (8 bytes).
    Removing at6010_pmu.o(.text.pmu_skip_flash_pupd), (24 bytes).
    Removing at6010_pmu.o(.ARM.exidx.text.pmu_skip_flash_pupd), (8 bytes).
    Removing at6010_pmu.o(.text.pmu_set_dvs), (24 bytes).
    Removing at6010_pmu.o(.ARM.exidx.text.pmu_set_dvs), (8 bytes).
    Removing at6010_pmu.o(.text.pmu_set_cache_pd), (56 bytes).
    Removing at6010_pmu.o(.ARM.exidx.text.pmu_set_cache_pd), (8 bytes).
    Removing at6010_pmu.o(.ARM.exidx.text.pmu_set_dig_vcore), (8 bytes).

593 unused section(s) (total 15275 bytes) removed from the image.

==============================================================================

Adding Veneers to the image

    Adding TT veneer (12 bytes, Long) for call to 'critical_section_end' from range_fft_base_main.o(.text).
    Adding TT veneer (12 bytes, Long) for call to 'critical_section_start' from range_fft_base_main.o(.text).

2 Veneer(s) (total 24 bytes) added to the image.

==============================================================================

Image Symbol Table

    Local Symbols

    Symbol Name                              Value     Ov Type        Size  Object(Section)

    ../clib/../cmprslib/zerorunl.c           0x00000000   Number         0  __dczerorl.o ABSOLUTE
    ../clib/angel/boardlib.s                 0x00000000   Number         0  boardinit1.o ABSOLUTE
    ../clib/angel/boardlib.s                 0x00000000   Number         0  boardinit2.o ABSOLUTE
    ../clib/angel/boardlib.s                 0x00000000   Number         0  boardinit3.o ABSOLUTE
    ../clib/angel/boardlib.s                 0x00000000   Number         0  boardshut.o ABSOLUTE
    ../clib/angel/handlers.s                 0x00000000   Number         0  __scatter_copy.o ABSOLUTE
    ../clib/angel/handlers.s                 0x00000000   Number         0  __scatter_zi.o ABSOLUTE
    ../clib/angel/kernel.s                   0x00000000   Number         0  __rtentry.o ABSOLUTE
    ../clib/angel/kernel.s                   0x00000000   Number         0  __rtentry2.o ABSOLUTE
    ../clib/angel/kernel.s                   0x00000000   Number         0  __rtentry4.o ABSOLUTE
    ../clib/angel/kernel.s                   0x00000000   Number         0  __rtentry7.o ABSOLUTE
    ../clib/angel/kernel.s                   0x00000000   Number         0  rtexit.o ABSOLUTE
    ../clib/angel/kernel.s                   0x00000000   Number         0  rtexit2.o ABSOLUTE
    ../clib/angel/rt.s                       0x00000000   Number         0  aeabi_idiv0.o ABSOLUTE
    ../clib/angel/rt.s                       0x00000000   Number         0  aeabi_idiv0_sigfpe.o ABSOLUTE
    ../clib/angel/rt.s                       0x00000000   Number         0  aeabi_ldiv0.o ABSOLUTE
    ../clib/angel/rt.s                       0x00000000   Number         0  aeabi_ldiv0_sigfpe.o ABSOLUTE
    ../clib/angel/rt.s                       0x00000000   Number         0  rt_div0.o ABSOLUTE
    ../clib/angel/rt.s                       0x00000000   Number         0  rt_locale.o ABSOLUTE
    ../clib/angel/rt.s                       0x00000000   Number         0  rt_locale_intlibspace.o ABSOLUTE
    ../clib/angel/rt.s                       0x00000000   Number         0  rt_errno_addr.o ABSOLUTE
    ../clib/angel/rt.s                       0x00000000   Number         0  rt_errno_addr_intlibspace.o ABSOLUTE
    ../clib/angel/rt.s                       0x00000000   Number         0  rt_raise.o ABSOLUTE
    ../clib/angel/scatterp.s                 0x00000000   Number         0  __scatter.o ABSOLUTE
    ../clib/angel/startup.s                  0x00000000   Number         0  __main.o ABSOLUTE
    ../clib/angel/sys.s                      0x00000000   Number         0  use_no_semi_2.o ABSOLUTE
    ../clib/angel/sys.s                      0x00000000   Number         0  use_no_semi.o ABSOLUTE
    ../clib/angel/sys.s                      0x00000000   Number         0  libspace.o ABSOLUTE
    ../clib/angel/sys.s                      0x00000000   Number         0  sys_stackheap_outer.o ABSOLUTE
    ../clib/angel/sys.s                      0x00000000   Number         0  tempstk.o ABSOLUTE
    ../clib/angel/sys.s                      0x00000000   Number         0  indicate_semi.o ABSOLUTE
    ../clib/angel/sysapp.c                   0x00000000   Number         0  sys_command.o ABSOLUTE
    ../clib/angel/sysapp.c                   0x00000000   Number         0  sys_command_hlt.o ABSOLUTE
    ../clib/armsys.c                         0x00000000   Number         0  argv_veneer.o ABSOLUTE
    ../clib/armsys.c                         0x00000000   Number         0  _get_argv_nomalloc.o ABSOLUTE
    ../clib/armsys.c                         0x00000000   Number         0  no_argv.o ABSOLUTE
    ../clib/bigflt.c                         0x00000000   Number         0  bigflt0.o ABSOLUTE
    ../clib/btod.c                           0x00000000   Number         0  btod.o ABSOLUTE
    ../clib/btod_accurate.c                  0x00000000   Number         0  btod_accurate.o ABSOLUTE
    ../clib/btod_accurate.c                  0x00000000   Number         0  btod_accurate_common.o ABSOLUTE
    ../clib/division.c                       0x00000000   Number         0  lludiv.o ABSOLUTE
    ../clib/division.c                       0x00000000   Number         0  rtudiv10.o ABSOLUTE
    ../clib/division.c                       0x00000000   Number         0  lludiv10.o ABSOLUTE
    ../clib/division.s                       0x00000000   Number         0  aeabi_sdiv.o ABSOLUTE
    ../clib/division.s                       0x00000000   Number         0  aeabi_sdiv_div0.o ABSOLUTE
    ../clib/fenv.c                           0x00000000   Number         0  _rserrno.o ABSOLUTE
    ../clib/heapalloc.c                      0x00000000   Number         0  hrguard.o ABSOLUTE
    ../clib/heapaux.c                        0x00000000   Number         0  heapauxi.o ABSOLUTE
    ../clib/libinit.s                        0x00000000   Number         0  libinit.o ABSOLUTE
    ../clib/libinit.s                        0x00000000   Number         0  libinit2.o ABSOLUTE
    ../clib/libinit.s                        0x00000000   Number         0  libinit5.o ABSOLUTE
    ../clib/libinit.s                        0x00000000   Number         0  libshutdown.o ABSOLUTE
    ../clib/libinit.s                        0x00000000   Number         0  libshutdown2.o ABSOLUTE
    ../clib/locale.s                         0x00000000   Number         0  lc_numeric_c.o ABSOLUTE
    ../clib/longlong.c                       0x00000000   Number         0  llushr.o ABSOLUTE
    ../clib/memcpset.c                       0x00000000   Number         0  rt_memcpy.o ABSOLUTE
    ../clib/memcpset.c                       0x00000000   Number         0  rt_memcpy.o ABSOLUTE
    ../clib/memcpset.c                       0x00000000   Number         0  rt_memclr.o ABSOLUTE
    ../clib/misc.s                           0x00000000   Number         0  printf_stubs.o ABSOLUTE
    ../clib/printf.c                         0x00000000   Number         0  __2printf.o ABSOLUTE
    ../clib/printf.c                         0x00000000   Number         0  noretval__2printf.o ABSOLUTE
    ../clib/printf.c                         0x00000000   Number         0  __printf.o ABSOLUTE
    ../clib/printf.c                         0x00000000   Number         0  _printf_str.o ABSOLUTE
    ../clib/printf.c                         0x00000000   Number         0  _printf_dec.o ABSOLUTE
    ../clib/printf.c                         0x00000000   Number         0  __printf_flags.o ABSOLUTE
    ../clib/printf.c                         0x00000000   Number         0  __printf_ss.o ABSOLUTE
    ../clib/printf.c                         0x00000000   Number         0  __printf_flags_ss.o ABSOLUTE
    ../clib/printf.c                         0x00000000   Number         0  __printf_wp.o ABSOLUTE
    ../clib/printf.c                         0x00000000   Number         0  __printf_flags_wp.o ABSOLUTE
    ../clib/printf.c                         0x00000000   Number         0  __printf_ss_wp.o ABSOLUTE
    ../clib/printf.c                         0x00000000   Number         0  __printf_flags_ss_wp.o ABSOLUTE
    ../clib/printf.c                         0x00000000   Number         0  _printf_intcommon.o ABSOLUTE
    ../clib/printf.c                         0x00000000   Number         0  _printf_fp_dec.o ABSOLUTE
    ../clib/printf.c                         0x00000000   Number         0  _printf_fp_dec_accurate.o ABSOLUTE
    ../clib/printf.c                         0x00000000   Number         0  _printf_char.o ABSOLUTE
    ../clib/printf.c                         0x00000000   Number         0  _printf_char_file.o ABSOLUTE
    ../clib/printf.c                         0x00000000   Number         0  _printf_char_common.o ABSOLUTE
    ../clib/printf.c                         0x00000000   Number         0  _printf_fp_infnan.o ABSOLUTE
    ../clib/printf.c                         0x00000000   Number         0  __printf_nopercent.o ABSOLUTE
    ../clib/printf_percent.s                 0x00000000   Number         0  _printf_s.o ABSOLUTE
    ../clib/printf_percent.s                 0x00000000   Number         0  _printf_d.o ABSOLUTE
    ../clib/printf_percent.s                 0x00000000   Number         0  _printf_f.o ABSOLUTE
    ../clib/printf_percent.s                 0x00000000   Number         0  _printf_percent.o ABSOLUTE
    ../clib/printf_percent.s                 0x00000000   Number         0  _printf_percent_end.o ABSOLUTE
    ../clib/signal.c                         0x00000000   Number         0  defsig_fpe_outer.o ABSOLUTE
    ../clib/signal.c                         0x00000000   Number         0  defsig_fpe_formal.o ABSOLUTE
    ../clib/signal.c                         0x00000000   Number         0  defsig_exit.o ABSOLUTE
    ../clib/signal.c                         0x00000000   Number         0  defsig_fpe_inner.o ABSOLUTE
    ../clib/signal.c                         0x00000000   Number         0  __raise.o ABSOLUTE
    ../clib/signal.c                         0x00000000   Number         0  defsig_general.o ABSOLUTE
    ../clib/signal.c                         0x00000000   Number         0  defsig_rtmem_outer.o ABSOLUTE
    ../clib/signal.c                         0x00000000   Number         0  defsig_rtmem_formal.o ABSOLUTE
    ../clib/signal.c                         0x00000000   Number         0  defsig_abrt_inner.o ABSOLUTE
    ../clib/signal.c                         0x00000000   Number         0  defsig_rtred_inner.o ABSOLUTE
    ../clib/signal.c                         0x00000000   Number         0  defsig_rtmem_inner.o ABSOLUTE
    ../clib/signal.c                         0x00000000   Number         0  defsig_stak_inner.o ABSOLUTE
    ../clib/signal.c                         0x00000000   Number         0  defsig_pvfn_inner.o ABSOLUTE
    ../clib/signal.c                         0x00000000   Number         0  defsig_cppl_inner.o ABSOLUTE
    ../clib/signal.c                         0x00000000   Number         0  defsig_segv_inner.o ABSOLUTE
    ../clib/signal.c                         0x00000000   Number         0  defsig_other.o ABSOLUTE
    ../clib/signal.s                         0x00000000   Number         0  defsig.o ABSOLUTE
    ../clib/stdio.c                          0x00000000   Number         0  puts.o ABSOLUTE
    ../clib/stdlib.c                         0x00000000   Number         0  exit.o ABSOLUTE
    ../clib/string.c                         0x00000000   Number         0  strcmp.o ABSOLUTE
    ../fplib/cfplib/cmp.c                    0x00000000   Number         0  dcmp.o ABSOLUTE
    ../fplib/cfplib/cmpret.c                 0x00000000   Number         0  cmpret.o ABSOLUTE
    ../fplib/cfplib/daddsub.c                0x00000000   Number         0  daddsub.o ABSOLUTE
    ../fplib/cfplib/dcmpin.c                 0x00000000   Number         0  dcmpin.o ABSOLUTE
    ../fplib/cfplib/dmul.c                   0x00000000   Number         0  dmul.o ABSOLUTE
    ../fplib/cfplib/dsqrt.c                  0x00000000   Number         0  dsqrt.o ABSOLUTE
    ../fplib/cfplib/f2d.c                    0x00000000   Number         0  f2d.o ABSOLUTE
    ../fplib/cfplib/fdiv.c                   0x00000000   Number         0  fdiv.o ABSOLUTE
    ../fplib/cfplib/ffix.c                   0x00000000   Number         0  dfixui.o ABSOLUTE
    ../fplib/cfplib/fflt.c                   0x00000000   Number         0  dflti.o ABSOLUTE
    ../fplib/cfplib/fflt.c                   0x00000000   Number         0  fflti.o ABSOLUTE
    ../fplib/cfplib/fpinit.c                 0x00000000   Number         0  fpinit.o ABSOLUTE
    ../fplib/cfplib/ieee_status.c            0x00000000   Number         0  ieee_status.o ABSOLUTE
    ../fplib/cfplib/nan2.c                   0x00000000   Number         0  dnan2.o ABSOLUTE
    ../fplib/cfplib/retnan.c                 0x00000000   Number         0  retnan.o ABSOLUTE
    ../fplib/deqf6m.s                        0x00000000   Number         0  deqf.o ABSOLUTE
    ../fplib/dgeqf6m.s                       0x00000000   Number         0  dgef.o ABSOLUTE
    ../fplib/dleqf6m.s                       0x00000000   Number         0  dlef.o ABSOLUTE
    ../fplib/fmul6m.s                        0x00000000   Number         0  fmul.o ABSOLUTE
    ../fplib/printf1.s                       0x00000000   Number         0  printf1.o ABSOLUTE
    ../fplib/usenofp.s                       0x00000000   Number         0  usenofp.o ABSOLUTE
    ../mathlib/fpclassify.c                  0x00000000   Number         0  fpclassify.o ABSOLUTE
    ../mathlib/sqrt.c                        0x00000000   Number         0  sqrt.o ABSOLUTE
    ../mathlib/sqrt.c                        0x00000000   Number         0  sqrt_x.o ABSOLUTE
    at6010_cache.c                           0x00000000   Number         0  at6010_cache.o ABSOLUTE
    at6010_cfar.c                            0x00000000   Number         0  at6010_cfar.o ABSOLUTE
    at6010_clock.c                           0x00000000   Number         0  at6010_clock.o ABSOLUTE
    at6010_dma.c                             0x00000000   Number         0  at6010_dma.o ABSOLUTE
    at6010_dualtimer.c                       0x00000000   Number         0  at6010_dualtimer.o ABSOLUTE
    at6010_fft.c                             0x00000000   Number         0  at6010_fft.o ABSOLUTE
    at6010_gpio.c                            0x00000000   Number         0  at6010_gpio.o ABSOLUTE
    at6010_irq.c                             0x00000000   Number         0  at6010_irq.o ABSOLUTE
    at6010_pmu.c                             0x00000000   Number         0  at6010_pmu.o ABSOLUTE
    at6010_radar.c                           0x00000000   Number         0  at6010_radar.o ABSOLUTE
    at6010_radar_adc.c                       0x00000000   Number         0  at6010_radar_adc.o ABSOLUTE
    at6010_radar_frame.c                     0x00000000   Number         0  at6010_radar_frame.o ABSOLUTE
    at6010_spi.c                             0x00000000   Number         0  at6010_spi.o ABSOLUTE
    at6010_timer.c                           0x00000000   Number         0  at6010_timer.o ABSOLUTE
    at6010_uart.c                            0x00000000   Number         0  at6010_uart.o ABSOLUTE
    cpu-at601x.c                             0x00000000   Number         0  cpu-at601x.o ABSOLUTE
    dc.s                                     0x00000000   Number         0  dc.o ABSOLUTE
    frame_header.c                           0x00000000   Number         0  frame_header.o ABSOLUTE
    hal_clock.c                              0x00000000   Number         0  hal_clock.o ABSOLUTE
    hal_dma.c                                0x00000000   Number         0  hal_dma.o ABSOLUTE
    hal_dualtimer.c                          0x00000000   Number         0  hal_dualtimer.o ABSOLUTE
    hal_fft.c                                0x00000000   Number         0  hal_fft.o ABSOLUTE
    hal_radar.c                              0x00000000   Number         0  hal_radar.o ABSOLUTE
    hal_spi.c                                0x00000000   Number         0  hal_spi.o ABSOLUTE
    hal_timer.c                              0x00000000   Number         0  hal_timer.o ABSOLUTE
    hal_uart.c                               0x00000000   Number         0  hal_uart.o ABSOLUTE
    output_config.c                          0x00000000   Number         0  output_config.o ABSOLUTE
    radar_cfg_hal.c                          0x00000000   Number         0  radar_cfg_hal.o ABSOLUTE
    range_fft_base_main.c                    0x00000000   Number         0  range_fft_base_main.o ABSOLUTE
    retarget.c                               0x00000000   Number         0  retarget.o ABSOLUTE
    startup_CMSDK_CM0plus.s                  0x00000000   Number         0  startup_cmsdk_cm0plus.o ABSOLUTE
    system_CMSDK_CM0plus.c                   0x00000000   Number         0  system_cmsdk_cm0plus.o ABSOLUTE
    RESET                                    0x08000100   Section      192  startup_cmsdk_cm0plus.o(RESET)
    !!!main                                  0x080001c0   Section        8  __main.o(!!!main)
    !!!scatter                               0x080001c8   Section       60  __scatter.o(!!!scatter)
    !!handler_copy                           0x08000204   Section       26  __scatter_copy.o(!!handler_copy)
    !!handler_zi                             0x08000220   Section       28  __scatter_zi.o(!!handler_zi)
    .ARM.Collect$$_printf_percent$$00000000  0x0800023c   Section        2  _printf_percent.o(.ARM.Collect$$_printf_percent$$00000000)
    .ARM.Collect$$_printf_percent$$00000003  0x0800023e   Section       10  _printf_f.o(.ARM.Collect$$_printf_percent$$00000003)
    .ARM.Collect$$_printf_percent$$00000009  0x08000248   Section       10  _printf_d.o(.ARM.Collect$$_printf_percent$$00000009)
    .ARM.Collect$$_printf_percent$$00000014  0x08000252   Section       10  _printf_s.o(.ARM.Collect$$_printf_percent$$00000014)
    .ARM.Collect$$_printf_percent$$00000017  0x0800025c   Section        4  _printf_percent_end.o(.ARM.Collect$$_printf_percent$$00000017)
    .ARM.Collect$$libinit$$00000000          0x08000260   Section        2  libinit.o(.ARM.Collect$$libinit$$00000000)
    .ARM.Collect$$libinit$$00000002          0x08000262   Section        0  libinit2.o(.ARM.Collect$$libinit$$00000002)
    .ARM.Collect$$libinit$$00000004          0x08000262   Section        0  libinit2.o(.ARM.Collect$$libinit$$00000004)
    .ARM.Collect$$libinit$$0000000A          0x08000262   Section        0  libinit2.o(.ARM.Collect$$libinit$$0000000A)
    .ARM.Collect$$libinit$$0000000C          0x08000262   Section        0  libinit2.o(.ARM.Collect$$libinit$$0000000C)
    .ARM.Collect$$libinit$$0000000E          0x08000262   Section        0  libinit2.o(.ARM.Collect$$libinit$$0000000E)
    .ARM.Collect$$libinit$$0000000F          0x08000262   Section        6  libinit2.o(.ARM.Collect$$libinit$$0000000F)
    .ARM.Collect$$libinit$$00000011          0x08000268   Section        0  libinit2.o(.ARM.Collect$$libinit$$00000011)
    .ARM.Collect$$libinit$$00000013          0x08000268   Section        0  libinit2.o(.ARM.Collect$$libinit$$00000013)
    .ARM.Collect$$libinit$$00000015          0x08000268   Section        0  libinit2.o(.ARM.Collect$$libinit$$00000015)
    .ARM.Collect$$libinit$$00000016          0x08000268   Section       10  libinit2.o(.ARM.Collect$$libinit$$00000016)
    .ARM.Collect$$libinit$$00000017          0x08000272   Section        0  libinit2.o(.ARM.Collect$$libinit$$00000017)
    .ARM.Collect$$libinit$$00000019          0x08000272   Section        0  libinit2.o(.ARM.Collect$$libinit$$00000019)
    .ARM.Collect$$libinit$$0000001B          0x08000272   Section        0  libinit2.o(.ARM.Collect$$libinit$$0000001B)
    .ARM.Collect$$libinit$$0000001D          0x08000272   Section        0  libinit2.o(.ARM.Collect$$libinit$$0000001D)
    .ARM.Collect$$libinit$$0000001F          0x08000272   Section        0  libinit2.o(.ARM.Collect$$libinit$$0000001F)
    .ARM.Collect$$libinit$$00000021          0x08000272   Section        0  libinit2.o(.ARM.Collect$$libinit$$00000021)
    .ARM.Collect$$libinit$$00000023          0x08000272   Section        0  libinit2.o(.ARM.Collect$$libinit$$00000023)
    .ARM.Collect$$libinit$$00000025          0x08000272   Section        0  libinit2.o(.ARM.Collect$$libinit$$00000025)
    .ARM.Collect$$libinit$$0000002C          0x08000272   Section        0  libinit2.o(.ARM.Collect$$libinit$$0000002C)
    .ARM.Collect$$libinit$$0000002E          0x08000272   Section        0  libinit2.o(.ARM.Collect$$libinit$$0000002E)
    .ARM.Collect$$libinit$$00000030          0x08000272   Section        0  libinit2.o(.ARM.Collect$$libinit$$00000030)
    .ARM.Collect$$libinit$$00000032          0x08000272   Section        0  libinit2.o(.ARM.Collect$$libinit$$00000032)
    .ARM.Collect$$libinit$$00000033          0x08000272   Section        2  libinit2.o(.ARM.Collect$$libinit$$00000033)
    .ARM.Collect$$libshutdown$$00000000      0x08000274   Section        2  libshutdown.o(.ARM.Collect$$libshutdown$$00000000)
    .ARM.Collect$$libshutdown$$00000002      0x08000276   Section        0  libshutdown2.o(.ARM.Collect$$libshutdown$$00000002)
    .ARM.Collect$$libshutdown$$00000004      0x08000276   Section        0  libshutdown2.o(.ARM.Collect$$libshutdown$$00000004)
    .ARM.Collect$$libshutdown$$00000007      0x08000276   Section        0  libshutdown2.o(.ARM.Collect$$libshutdown$$00000007)
    .ARM.Collect$$libshutdown$$0000000A      0x08000276   Section        0  libshutdown2.o(.ARM.Collect$$libshutdown$$0000000A)
    .ARM.Collect$$libshutdown$$0000000C      0x08000276   Section        0  libshutdown2.o(.ARM.Collect$$libshutdown$$0000000C)
    .ARM.Collect$$libshutdown$$0000000F      0x08000276   Section        0  libshutdown2.o(.ARM.Collect$$libshutdown$$0000000F)
    .ARM.Collect$$libshutdown$$00000010      0x08000276   Section        2  libshutdown2.o(.ARM.Collect$$libshutdown$$00000010)
    .ARM.Collect$$rtentry$$00000000          0x08000278   Section        0  __rtentry.o(.ARM.Collect$$rtentry$$00000000)
    .ARM.Collect$$rtentry$$00000002          0x08000278   Section        0  __rtentry2.o(.ARM.Collect$$rtentry$$00000002)
    .ARM.Collect$$rtentry$$00000007          0x08000278   Section        4  __rtentry7.o(.ARM.Collect$$rtentry$$00000007)
    .ARM.Collect$$rtentry$$00000009          0x0800027c   Section        0  __rtentry2.o(.ARM.Collect$$rtentry$$00000009)
    .ARM.Collect$$rtentry$$0000000A          0x0800027c   Section        4  __rtentry2.o(.ARM.Collect$$rtentry$$0000000A)
    .ARM.Collect$$rtentry$$0000000C          0x08000280   Section        0  __rtentry2.o(.ARM.Collect$$rtentry$$0000000C)
    .ARM.Collect$$rtentry$$0000000D          0x08000280   Section        8  __rtentry2.o(.ARM.Collect$$rtentry$$0000000D)
    __lit__00000000                          0x08000288   Data           4  __rtentry7.o(.ARM.Collect$$rtentry$$00002718)
    .ARM.Collect$$rtentry$$00002718          0x08000288   Section        4  __rtentry7.o(.ARM.Collect$$rtentry$$00002718)
    .ARM.Collect$$rtexit$$00000000           0x0800028c   Section        2  rtexit.o(.ARM.Collect$$rtexit$$00000000)
    .ARM.Collect$$rtexit$$00000002           0x0800028e   Section        0  rtexit2.o(.ARM.Collect$$rtexit$$00000002)
    .ARM.Collect$$rtexit$$00000003           0x0800028e   Section        4  rtexit2.o(.ARM.Collect$$rtexit$$00000003)
    .ARM.Collect$$rtexit$$00000004           0x08000292   Section        6  rtexit2.o(.ARM.Collect$$rtexit$$00000004)
    .emb_text                                0x08000298   Section       56  rt_memcpy.o(.emb_text)
    .text                                    0x080002d0   Section       48  startup_cmsdk_cm0plus.o(.text)
    [Anonymous Symbol]                       0x08000300   Section        0  retarget.o(.text)
    [Anonymous Symbol]                       0x08000370   Section        0  range_fft_base_main.o(.text)
    __arm_cp.3_0                             0x08000540   Number         4  range_fft_base_main.o(.text)
    __arm_cp.3_1                             0x08000544   Number         4  range_fft_base_main.o(.text)
    __arm_cp.3_2                             0x08000548   Number         4  range_fft_base_main.o(.text)
    __arm_cp.3_3                             0x0800054c   Number         4  range_fft_base_main.o(.text)
    __arm_cp.3_4                             0x08000550   Number         4  range_fft_base_main.o(.text)
    __arm_cp.3_5                             0x08000554   Number         4  range_fft_base_main.o(.text)
    __arm_cp.3_6                             0x08000558   Number         4  range_fft_base_main.o(.text)
    __arm_cp.3_7                             0x0800055c   Number         4  range_fft_base_main.o(.text)
    __arm_cp.3_8                             0x08000560   Number         4  range_fft_base_main.o(.text)
    __arm_cp.3_9                             0x08000564   Number         4  range_fft_base_main.o(.text)
    __arm_cp.3_10                            0x08000568   Number         4  range_fft_base_main.o(.text)
    __arm_cp.3_11                            0x0800056c   Number         4  range_fft_base_main.o(.text)
    __arm_cp.3_12                            0x08000570   Number         4  range_fft_base_main.o(.text)
    adc_rfft_end_isr                         0x08000575   Thumb Code    24  range_fft_base_main.o(.text)
    __arm_cp.4_0                             0x08000584   Number         4  range_fft_base_main.o(.text)
    __arm_cp.4_1                             0x08000588   Number         4  range_fft_base_main.o(.text)
    adc_rfft_half_isr                        0x0800058d   Thumb Code    24  range_fft_base_main.o(.text)
    __arm_cp.5_0                             0x0800059c   Number         4  range_fft_base_main.o(.text)
    __arm_cp.5_1                             0x080005a0   Number         4  range_fft_base_main.o(.text)
    __arm_cp.6_0                             0x0800077c   Number         4  range_fft_base_main.o(.text)
    __arm_cp.6_1                             0x08000780   Number         4  range_fft_base_main.o(.text)
    __arm_cp.6_2                             0x08000784   Number         4  range_fft_base_main.o(.text)
    [Anonymous Symbol]                       0x080007cc   Section        0  system_cmsdk_cm0plus.o(.text)
    __arm_cp.0_0                             0x080007d4   Number         4  system_cmsdk_cm0plus.o(.text)
    __arm_cp.0_1                             0x080007d8   Number         4  system_cmsdk_cm0plus.o(.text)
    __arm_cp.1_0                             0x08000800   Number         4  system_cmsdk_cm0plus.o(.text)
    __arm_cp.1_1                             0x08000804   Number         4  system_cmsdk_cm0plus.o(.text)
    __arm_cp.1_3                             0x08000808   Number         4  system_cmsdk_cm0plus.o(.text)
    __arm_cp.1_4                             0x0800080c   Number         4  system_cmsdk_cm0plus.o(.text)
    [Anonymous Symbol]                       0x08000810   Section        0  hal_clock.o(.text)
    __arm_cp.0_0                             0x08000834   Number         4  hal_clock.o(.text)
    __arm_cp.0_1                             0x08000838   Number         4  hal_clock.o(.text)
    __arm_cp.1_0                             0x08000938   Number         4  hal_clock.o(.text)
    __arm_cp.1_1                             0x0800093c   Number         4  hal_clock.o(.text)
    __arm_cp.1_2                             0x08000940   Number         4  hal_clock.o(.text)
    __arm_cp.1_3                             0x08000944   Number         4  hal_clock.o(.text)
    __arm_cp.1_4                             0x08000948   Number         4  hal_clock.o(.text)
    __arm_cp.1_5                             0x0800094c   Number         4  hal_clock.o(.text)
    __arm_cp.1_6                             0x08000950   Number         4  hal_clock.o(.text)
    __arm_cp.1_7                             0x08000954   Number         4  hal_clock.o(.text)
    __arm_cp.2_0                             0x08000960   Number         4  hal_clock.o(.text)
    __arm_cp.3_0                             0x0800096c   Number         4  hal_clock.o(.text)
    __arm_cp.4_0                             0x08000978   Number         4  hal_clock.o(.text)
    __arm_cp.5_0                             0x08000988   Number         4  hal_clock.o(.text)
    __arm_cp.6_0                             0x080009a0   Number         4  hal_clock.o(.text)
    [Anonymous Symbol]                       0x080009a4   Section        0  hal_uart.o(.text)
    m_uart_enable                            0x08000a90   Number         0  hal_uart.o(.text)
    m_uart_nvic                              0x08000a9c   Number         0  hal_uart.o(.text)
    __arm_cp.0_2                             0x08000aa0   Number         4  hal_uart.o(.text)
    __arm_cp.0_3                             0x08000aa4   Number         4  hal_uart.o(.text)
    __arm_cp.0_4                             0x08000aa8   Number         4  hal_uart.o(.text)
    m_uart_disable                           0x08000ac0   Number         0  hal_uart.o(.text)
    __arm_cp.1_1                             0x08000acc   Number         4  hal_uart.o(.text)
    __arm_cp.2_0                             0x08000ad8   Number         4  hal_uart.o(.text)
    __arm_cp.3_0                             0x08000b00   Number         4  hal_uart.o(.text)
    __arm_cp.4_0                             0x08000b44   Number         4  hal_uart.o(.text)
    [Anonymous Symbol]                       0x08000c20   Section        0  hal_fft.o(.text)
    __arm_cp.0_0                             0x08000c30   Number         4  hal_fft.o(.text)
    invoke_fft_callback                      0x08000c35   Thumb Code    84  hal_fft.o(.text)
    __arm_cp.1_0                             0x08000c84   Number         4  hal_fft.o(.text)
    __arm_cp.2_0                             0x08000c98   Number         4  hal_fft.o(.text)
    __arm_cp.2_1                             0x08000c9c   Number         4  hal_fft.o(.text)
    fft_fill_this_buffer                     0x08000ca1   Thumb Code    44  hal_fft.o(.text)
    __arm_cp.3_0                             0x08000cc8   Number         4  hal_fft.o(.text)
    __arm_cp.5_0                             0x08000fd8   Number         4  hal_fft.o(.text)
    __arm_cp.5_1                             0x08000fdc   Number         4  hal_fft.o(.text)
    __arm_cp.5_2                             0x08000fe0   Number         4  hal_fft.o(.text)
    __arm_cp.5_3                             0x08000fe4   Number         4  hal_fft.o(.text)
    fft_rank_id_get                          0x08000fe9   Thumb Code   106  hal_fft.o(.text)
    invoke_cfar_callback                     0x08001089   Thumb Code    48  hal_fft.o(.text)
    __arm_cp.12_0                            0x080010b4   Number         4  hal_fft.o(.text)
    cfar_thr_hw_adapt                        0x080010b9   Thumb Code   100  hal_fft.o(.text)
    __arm_cp.13_0                            0x08001118   Number         4  hal_fft.o(.text)
    [Anonymous Symbol]                       0x0800111c   Section        0  radar_cfg_hal.o(.text)
    __arm_cp.0_0                             0x08001144   Number         4  radar_cfg_hal.o(.text)
    [Anonymous Symbol]                       0x08001164   Section        0  hal_radar.o(.text)
    __arm_cp.0_0                             0x080013e0   Number         4  hal_radar.o(.text)
    __arm_cp.0_1                             0x080013e4   Number         4  hal_radar.o(.text)
    __arm_cp.0_2                             0x080013e8   Number         4  hal_radar.o(.text)
    __arm_cp.0_3                             0x080013ec   Number         4  hal_radar.o(.text)
    __arm_cp.0_4                             0x080013f0   Number         4  hal_radar.o(.text)
    __arm_cp.0_5                             0x080013f4   Number         4  hal_radar.o(.text)
    __arm_cp.0_6                             0x080013f8   Number         4  hal_radar.o(.text)
    __arm_cp.5_0                             0x08001468   Number         4  hal_radar.o(.text)
    __arm_cp.9_0                             0x08001494   Number         4  hal_radar.o(.text)
    __arm_cp.10_0                            0x080014ac   Number         4  hal_radar.o(.text)
    [Anonymous Symbol]                       0x080014b0   Section        0  hal_timer.o(.text)
    __arm_cp.0_0                             0x08001554   Number         4  hal_timer.o(.text)
    hal_timer_us_to_ticks                    0x08001559   Thumb Code    96  hal_timer.o(.text)
    __arm_cp.1_0                             0x080015b0   Number         4  hal_timer.o(.text)
    __arm_cp.1_1                             0x080015b4   Number         4  hal_timer.o(.text)
    __arm_cp.2_0                             0x080015fc   Number         4  hal_timer.o(.text)
    __arm_cp.3_0                             0x08001624   Number         4  hal_timer.o(.text)
    __arm_cp.7_0                             0x08001688   Number         4  hal_timer.o(.text)
    [Anonymous Symbol]                       0x0800168c   Section        0  hal_dualtimer.o(.text)
    __arm_cp.0_0                             0x080016d8   Number         4  hal_dualtimer.o(.text)
    __arm_cp.0_1                             0x080016dc   Number         4  hal_dualtimer.o(.text)
    __arm_cp.1_0                             0x0800173c   Number         4  hal_dualtimer.o(.text)
    __arm_cp.1_1                             0x08001740   Number         4  hal_dualtimer.o(.text)
    __arm_cp.2_0                             0x08001764   Number         4  hal_dualtimer.o(.text)
    __arm_cp.5_0                             0x080017ac   Number         4  hal_dualtimer.o(.text)
    __arm_cp.8_0                             0x080017ec   Number         4  hal_dualtimer.o(.text)
    __arm_cp.9_0                             0x08001808   Number         4  hal_dualtimer.o(.text)
    [Anonymous Symbol]                       0x0800180c   Section        0  hal_dma.o(.text)
    __arm_cp.0_14                            0x0800190c   Number         4  hal_dma.o(.text)
    __arm_cp.0_1                             0x08001c60   Number         4  hal_dma.o(.text)
    __arm_cp.0_5                             0x08001cc4   Number         4  hal_dma.o(.text)
    __arm_cp.0_6                             0x08001cc8   Number         4  hal_dma.o(.text)
    __arm_cp.0_7                             0x08001ccc   Number         4  hal_dma.o(.text)
    __arm_cp.0_8                             0x08001cd0   Number         4  hal_dma.o(.text)
    __arm_cp.0_9                             0x08001cd4   Number         4  hal_dma.o(.text)
    __arm_cp.0_10                            0x08001cd8   Number         4  hal_dma.o(.text)
    __arm_cp.0_11                            0x08001cdc   Number         4  hal_dma.o(.text)
    __arm_cp.0_12                            0x08001ce0   Number         4  hal_dma.o(.text)
    __assert_func                            0x08001ce5   Thumb Code    96  hal_dma.o(.text)
    __arm_cp.3_0                             0x08001ff0   Number         4  hal_dma.o(.text)
    __arm_cp.3_1                             0x08001ff4   Number         4  hal_dma.o(.text)
    __arm_cp.3_2                             0x08001ff8   Number         4  hal_dma.o(.text)
    __arm_cp.3_3                             0x08001ffc   Number         4  hal_dma.o(.text)
    __arm_cp.3_4                             0x08002000   Number         4  hal_dma.o(.text)
    __arm_cp.4_0                             0x0800205c   Number         4  hal_dma.o(.text)
    __arm_cp.4_1                             0x08002060   Number         4  hal_dma.o(.text)
    dma_setconfig                            0x080020cf   Thumb Code    44  hal_dma.o(.text)
    [Anonymous Symbol]                       0x08002644   Section        0  at6010_uart.o(.text)
    __arm_cp.0_0                             0x08002688   Number         4  at6010_uart.o(.text)
    __arm_cp.1_0                             0x080026c4   Number         4  at6010_uart.o(.text)
    __arm_cp.1_1                             0x080026c8   Number         4  at6010_uart.o(.text)
    __arm_cp.1_2                             0x080026cc   Number         4  at6010_uart.o(.text)
    __arm_cp.1_3                             0x080026d0   Number         4  at6010_uart.o(.text)
    __arm_cp.2_0                             0x080026e8   Number         4  at6010_uart.o(.text)
    __arm_cp.3_0                             0x08002714   Number         4  at6010_uart.o(.text)
    __arm_cp.4_0                             0x08002730   Number         4  at6010_uart.o(.text)
    __arm_cp.5_0                             0x08002740   Number         4  at6010_uart.o(.text)
    __arm_cp.6_0                             0x08002758   Number         4  at6010_uart.o(.text)
    __arm_cp.7_0                             0x0800277c   Number         4  at6010_uart.o(.text)
    __arm_cp.8_0                             0x080027a0   Number         4  at6010_uart.o(.text)
    __arm_cp.9_0                             0x080027b8   Number         4  at6010_uart.o(.text)
    __arm_cp.10_0                            0x08002824   Number         4  at6010_uart.o(.text)
    __arm_cp.11_0                            0x08002838   Number         4  at6010_uart.o(.text)
    __arm_cp.12_1                            0x0800286c   Number         4  at6010_uart.o(.text)
    __arm_cp.13_1                            0x080028a0   Number         4  at6010_uart.o(.text)
    __arm_cp.14_0                            0x080028d8   Number         4  at6010_uart.o(.text)
    __arm_cp.14_1                            0x080028dc   Number         4  at6010_uart.o(.text)
    __arm_cp.14_2                            0x080028e0   Number         4  at6010_uart.o(.text)
    __arm_cp.15_0                            0x08002938   Number         4  at6010_uart.o(.text)
    __arm_cp.16_0                            0x08002950   Number         4  at6010_uart.o(.text)
    __arm_cp.17_0                            0x08002968   Number         4  at6010_uart.o(.text)
    __arm_cp.18_0                            0x08002974   Number         4  at6010_uart.o(.text)
    [Anonymous Symbol]                       0x08002978   Section        0  at6010_clock.o(.text)
    __arm_cp.0_0                             0x08002980   Number         4  at6010_clock.o(.text)
    __arm_cp.0_1                             0x08002984   Number         4  at6010_clock.o(.text)
    __arm_cp.3_0                             0x080029d0   Number         4  at6010_clock.o(.text)
    __arm_cp.4_0                             0x080029e4   Number         4  at6010_clock.o(.text)
    __arm_cp.5_0                             0x08002a18   Number         4  at6010_clock.o(.text)
    __arm_cp.6_0                             0x08002a6c   Number         4  at6010_clock.o(.text)
    __arm_cp.6_1                             0x08002a70   Number         4  at6010_clock.o(.text)
    __arm_cp.6_2                             0x08002a74   Number         4  at6010_clock.o(.text)
    __arm_cp.6_3                             0x08002a78   Number         4  at6010_clock.o(.text)
    __arm_cp.7_0                             0x08002ac0   Number         4  at6010_clock.o(.text)
    __arm_cp.9_0                             0x08002acc   Number         4  at6010_clock.o(.text)
    __arm_cp.10_0                            0x08002be0   Number         4  at6010_clock.o(.text)
    __arm_cp.10_1                            0x08002be4   Number         4  at6010_clock.o(.text)
    __arm_cp.10_2                            0x08002be8   Number         4  at6010_clock.o(.text)
    __arm_cp.10_3                            0x08002bec   Number         4  at6010_clock.o(.text)
    __arm_cp.10_4                            0x08002bf0   Number         4  at6010_clock.o(.text)
    __arm_cp.10_5                            0x08002bf4   Number         4  at6010_clock.o(.text)
    __arm_cp.10_6                            0x08002bf8   Number         4  at6010_clock.o(.text)
    __arm_cp.10_7                            0x08002bfc   Number         4  at6010_clock.o(.text)
    __arm_cp.11_0                            0x08002c08   Number         4  at6010_clock.o(.text)
    __arm_cp.12_0                            0x08002c28   Number         4  at6010_clock.o(.text)
    __arm_cp.13_0                            0x08002c40   Number         4  at6010_clock.o(.text)
    __arm_cp.14_0                            0x08002c58   Number         4  at6010_clock.o(.text)
    __arm_cp.14_1                            0x08002c5c   Number         4  at6010_clock.o(.text)
    __arm_cp.15_0                            0x08002c74   Number         4  at6010_clock.o(.text)
    __arm_cp.16_0                            0x08002c8c   Number         4  at6010_clock.o(.text)
    __arm_cp.17_0                            0x08002ca4   Number         4  at6010_clock.o(.text)
    __arm_cp.18_0                            0x08002cbc   Number         4  at6010_clock.o(.text)
    __arm_cp.18_1                            0x08002cc0   Number         4  at6010_clock.o(.text)
    __arm_cp.19_0                            0x08002cd8   Number         4  at6010_clock.o(.text)
    __arm_cp.20_0                            0x08002cf0   Number         4  at6010_clock.o(.text)
    __arm_cp.21_0                            0x08002d08   Number         4  at6010_clock.o(.text)
    __arm_cp.21_1                            0x08002d0c   Number         4  at6010_clock.o(.text)
    __arm_cp.22_0                            0x08002d24   Number         4  at6010_clock.o(.text)
    __arm_cp.22_1                            0x08002d28   Number         4  at6010_clock.o(.text)
    __arm_cp.23_0                            0x08002d40   Number         4  at6010_clock.o(.text)
    __arm_cp.24_0                            0x08002d58   Number         4  at6010_clock.o(.text)
    __arm_cp.25_0                            0x08002d70   Number         4  at6010_clock.o(.text)
    __arm_cp.26_0                            0x08002d88   Number         4  at6010_clock.o(.text)
    __arm_cp.26_1                            0x08002d8c   Number         4  at6010_clock.o(.text)
    __arm_cp.27_0                            0x08002da4   Number         4  at6010_clock.o(.text)
    __arm_cp.28_0                            0x08002dbc   Number         4  at6010_clock.o(.text)
    __arm_cp.28_1                            0x08002dc0   Number         4  at6010_clock.o(.text)
    __arm_cp.29_0                            0x08002dd8   Number         4  at6010_clock.o(.text)
    __arm_cp.30_0                            0x08002df0   Number         4  at6010_clock.o(.text)
    __arm_cp.31_0                            0x08002e08   Number         4  at6010_clock.o(.text)
    __arm_cp.32_0                            0x08002e20   Number         4  at6010_clock.o(.text)
    __arm_cp.33_0                            0x08002e38   Number         4  at6010_clock.o(.text)
    __arm_cp.34_0                            0x08002e50   Number         4  at6010_clock.o(.text)
    __arm_cp.34_1                            0x08002e54   Number         4  at6010_clock.o(.text)
    __arm_cp.35_0                            0x08002e6c   Number         4  at6010_clock.o(.text)
    __arm_cp.36_0                            0x08002e84   Number         4  at6010_clock.o(.text)
    __arm_cp.37_0                            0x08002e9c   Number         4  at6010_clock.o(.text)
    __arm_cp.38_0                            0x08002eb4   Number         4  at6010_clock.o(.text)
    __arm_cp.39_0                            0x08002ecc   Number         4  at6010_clock.o(.text)
    __arm_cp.40_0                            0x08002ee4   Number         4  at6010_clock.o(.text)
    __arm_cp.41_0                            0x08002efc   Number         4  at6010_clock.o(.text)
    __arm_cp.42_0                            0x08002f14   Number         4  at6010_clock.o(.text)
    [Anonymous Symbol]                       0x08002f18   Section        0  at6010_irq.o(.text)
    [Anonymous Symbol]                       0x08002f7c   Section        0  at6010_gpio.o(.text)
    __arm_cp.0_0                             0x08002fa8   Number         4  at6010_gpio.o(.text)
    __arm_cp.0_1                             0x08002fac   Number         4  at6010_gpio.o(.text)
    __arm_cp.1_0                             0x08002ff0   Number         4  at6010_gpio.o(.text)
    __arm_cp.1_1                             0x08002ff4   Number         4  at6010_gpio.o(.text)
    __arm_cp.2_0                             0x0800301c   Number         4  at6010_gpio.o(.text)
    __arm_cp.2_1                             0x08003020   Number         4  at6010_gpio.o(.text)
    __arm_cp.3_0                             0x0800305c   Number         4  at6010_gpio.o(.text)
    __arm_cp.3_1                             0x08003060   Number         4  at6010_gpio.o(.text)
    __arm_cp.6_0                             0x080030c8   Number         4  at6010_gpio.o(.text)
    __arm_cp.6_1                             0x080030cc   Number         4  at6010_gpio.o(.text)
    __arm_cp.7_0                             0x080030f4   Number         4  at6010_gpio.o(.text)
    __arm_cp.8_0                             0x08003134   Number         4  at6010_gpio.o(.text)
    __arm_cp.8_1                             0x08003138   Number         4  at6010_gpio.o(.text)
    __arm_cp.9_0                             0x08003154   Number         4  at6010_gpio.o(.text)
    __arm_cp.10_0                            0x08003194   Number         4  at6010_gpio.o(.text)
    __arm_cp.10_1                            0x08003198   Number         4  at6010_gpio.o(.text)
    __arm_cp.11_0                            0x080031d8   Number         4  at6010_gpio.o(.text)
    __arm_cp.11_1                            0x080031dc   Number         4  at6010_gpio.o(.text)
    __arm_cp.12_0                            0x08003294   Number         4  at6010_gpio.o(.text)
    __arm_cp.12_1                            0x08003298   Number         4  at6010_gpio.o(.text)
    __arm_cp.13_0                            0x080032f4   Number         4  at6010_gpio.o(.text)
    __arm_cp.14_0                            0x08003308   Number         4  at6010_gpio.o(.text)
    __arm_cp.15_0                            0x08003330   Number         4  at6010_gpio.o(.text)
    __arm_cp.15_1                            0x08003334   Number         4  at6010_gpio.o(.text)
    __arm_cp.16_0                            0x08003348   Number         4  at6010_gpio.o(.text)
    __arm_cp.17_0                            0x0800335c   Number         4  at6010_gpio.o(.text)
    __arm_cp.18_0                            0x08003370   Number         4  at6010_gpio.o(.text)
    __arm_cp.19_0                            0x08003384   Number         4  at6010_gpio.o(.text)
    __arm_cp.20_0                            0x0800339c   Number         4  at6010_gpio.o(.text)
    __arm_cp.21_0                            0x080033b4   Number         4  at6010_gpio.o(.text)
    __arm_cp.22_0                            0x080033ec   Number         4  at6010_gpio.o(.text)
    __arm_cp.22_1                            0x080033f0   Number         4  at6010_gpio.o(.text)
    [Anonymous Symbol]                       0x0800340c   Section        0  at6010_timer.o(.text)
    __arm_cp.0_0                             0x08003434   Number         4  at6010_timer.o(.text)
    __arm_cp.1_0                             0x08003460   Number         4  at6010_timer.o(.text)
    __arm_cp.1_1                             0x08003464   Number         4  at6010_timer.o(.text)
    __arm_cp.1_2                             0x08003468   Number         4  at6010_timer.o(.text)
    __arm_cp.2_0                             0x08003498   Number         4  at6010_timer.o(.text)
    __arm_cp.2_1                             0x0800349c   Number         4  at6010_timer.o(.text)
    __arm_cp.3_0                             0x080034b4   Number         4  at6010_timer.o(.text)
    __arm_cp.4_0                             0x080034cc   Number         4  at6010_timer.o(.text)
    __arm_cp.5_0                             0x080034dc   Number         4  at6010_timer.o(.text)
    __arm_cp.6_0                             0x080034ec   Number         4  at6010_timer.o(.text)
    __arm_cp.7_0                             0x080034fc   Number         4  at6010_timer.o(.text)
    __arm_cp.8_0                             0x0800350c   Number         4  at6010_timer.o(.text)
    __arm_cp.9_0                             0x08003520   Number         4  at6010_timer.o(.text)
    __arm_cp.10_0                            0x08003530   Number         4  at6010_timer.o(.text)
    __arm_cp.11_0                            0x0800353c   Number         4  at6010_timer.o(.text)
    __arm_cp.12_0                            0x0800355c   Number         4  at6010_timer.o(.text)
    [Anonymous Symbol]                       0x08003560   Section        0  at6010_dualtimer.o(.text)
    __arm_cp.1_0                             0x08003588   Number         4  at6010_dualtimer.o(.text)
    __arm_cp.2_0                             0x08003598   Number         4  at6010_dualtimer.o(.text)
    __arm_cp.3_0                             0x080035d4   Number         4  at6010_dualtimer.o(.text)
    __arm_cp.4_0                             0x080035ec   Number         4  at6010_dualtimer.o(.text)
    __arm_cp.5_0                             0x08003604   Number         4  at6010_dualtimer.o(.text)
    __arm_cp.6_0                             0x0800361c   Number         4  at6010_dualtimer.o(.text)
    __arm_cp.7_0                             0x08003630   Number         4  at6010_dualtimer.o(.text)
    __arm_cp.8_0                             0x08003640   Number         4  at6010_dualtimer.o(.text)
    __arm_cp.9_0                             0x0800364c   Number         4  at6010_dualtimer.o(.text)
    __arm_cp.10_0                            0x08003660   Number         4  at6010_dualtimer.o(.text)
    __arm_cp.11_0                            0x08003694   Number         4  at6010_dualtimer.o(.text)
    [Anonymous Symbol]                       0x08003698   Section        0  output_config.o(.text)
    __arm_cp.0_0                             0x080036fc   Number         4  output_config.o(.text)
    __arm_cp.0_1                             0x08003700   Number         4  output_config.o(.text)
    __arm_cp.0_2                             0x08003704   Number         4  output_config.o(.text)
    __arm_cp.0_3                             0x08003708   Number         4  output_config.o(.text)
    __arm_cp.0_4                             0x0800370c   Number         4  output_config.o(.text)
    __arm_cp.0_5                             0x08003710   Number         4  output_config.o(.text)
    __arm_cp.1_0                             0x08003774   Number         4  output_config.o(.text)
    __arm_cp.1_1                             0x08003778   Number         4  output_config.o(.text)
    wait_output_dma_done                     0x0800377d   Thumb Code    40  output_config.o(.text)
    __arm_cp.2_0                             0x080037a0   Number         4  output_config.o(.text)
    [Anonymous Symbol]                       0x080037a4   Section        0  frame_header.o(.text)
    __arm_cp.0_0                             0x08003808   Number         4  frame_header.o(.text)
    __arm_cp.0_1                             0x0800380c   Number         4  frame_header.o(.text)
    __arm_cp.0_2                             0x08003810   Number         4  frame_header.o(.text)
    __arm_cp.0_3                             0x08003814   Number         4  frame_header.o(.text)
    __arm_cp.0_4                             0x08003818   Number         4  frame_header.o(.text)
    __arm_cp.0_5                             0x0800381c   Number         4  frame_header.o(.text)
    __arm_cp.0_6                             0x08003820   Number         4  frame_header.o(.text)
    .text                                    0x08003824   Section        2  use_no_semi_2.o(.text)
    .text                                    0x08003826   Section        0  lludiv.o(.text)
    .text                                    0x08003928   Section        0  noretval__2printf.o(.text)
    .text                                    0x08003944   Section        0  _printf_str.o(.text)
    .text                                    0x08003998   Section        0  _printf_dec.o(.text)
    .text                                    0x08003a04   Section        0  __printf_wp.o(.text)
    .text                                    0x08003b14   Section        0  puts.o(.text)
    .text                                    0x08003b40   Section        0  rt_memcpy.o(.text)
    .text                                    0x08003bc2   Section        0  rt_memclr.o(.text)
    .text                                    0x08003c02   Section      346  aeabi_sdiv.o(.text)
    .text                                    0x08003d5c   Section        0  heapauxi.o(.text)
    _dadd1                                   0x08003d65   Thumb Code   290  daddsub.o(.text)
    .text                                    0x08003d64   Section        0  daddsub.o(.text)
    _dsub1                                   0x08003e87   Thumb Code   470  daddsub.o(.text)
    .text                                    0x080040bc   Section        0  dfixui.o(.text)
    .text                                    0x08004104   Section        0  dflti.o(.text)
    .text                                    0x0800415c   Section        0  dmul.o(.text)
    .text                                    0x080043a4   Section        0  f2d.o(.text)
    .text                                    0x080043f8   Section        0  fdiv.o(.text)
    .text                                    0x08004558   Section        0  fflti.o(.text)
    .text                                    0x080045b6   Section        2  use_no_semi.o(.text)
    .text                                    0x080045b8   Section        0  _rserrno.o(.text)
    .text                                    0x080045ce   Section        0  _printf_intcommon.o(.text)
    _fp_digits                               0x08004681   Thumb Code   412  _printf_fp_dec.o(.text)
    .text                                    0x08004680   Section        0  _printf_fp_dec.o(.text)
    .text                                    0x08004a94   Section        0  _printf_char.o(.text)
    .text                                    0x08004ac4   Section        0  _printf_char_file.o(.text)
    .text                                    0x08004aec   Section        0  rtudiv10.o(.text)
    .text                                    0x08004b14   Section        0  dsqrt.o(.text)
    .text                                    0x08004c14   Section        8  rt_locale_intlibspace.o(.text)
    .text                                    0x08004c1c   Section        8  rt_errno_addr_intlibspace.o(.text)
    .text                                    0x08004c24   Section        0  lludiv10.o(.text)
    _printf_input_char                       0x08004ca1   Thumb Code    10  _printf_char_common.o(.text)
    .text                                    0x08004ca0   Section        0  _printf_char_common.o(.text)
    .text                                    0x08004cd0   Section        0  _printf_fp_infnan.o(.text)
    .text                                    0x08004d58   Section        0  bigflt0.o(.text)
    .text                                    0x08004e30   Section        0  btod.o(.text)
    btod_internal_mul                        0x08004e71   Thumb Code   492  btod.o(.text)
    btod_internal_div                        0x0800505d   Thumb Code   520  btod.o(.text)
    .text                                    0x080053b0   Section        0  dcmpin.o(.text)
    .text                                    0x08005450   Section        0  exit.o(.text)
    .text                                    0x08005460   Section        0  strcmp.o(.text)
    .text                                    0x080054e8   Section        0  cmpret.o(.text)
    .text                                    0x08005518   Section        0  dnan2.o(.text)
    .text                                    0x0800552c   Section        0  retnan.o(.text)
    .text                                    0x0800558a   Section        0  __dczerorl.o(.text)
    cache_flush                              0x080055c5   Thumb Code    28  at6010_cache.o(.text.cache_flush)
    [Anonymous Symbol]                       0x080055c4   Section        0  at6010_cache.o(.text.cache_flush)
    __arm_cp.1_0                             0x080055e0   Number         4  at6010_cache.o(.text.cache_flush)
    __arm_cp.1_1                             0x080055e4   Number         4  at6010_cache.o(.text.cache_flush)
    [Anonymous Symbol]                       0x080055e8   Section        0  at6010_cache.o(.text.cache_init)
    __arm_cp.0_0                             0x08005608   Number         4  at6010_cache.o(.text.cache_init)
    __arm_cp.0_1                             0x0800560c   Number         4  at6010_cache.o(.text.cache_init)
    __arm_cp.0_2                             0x08005610   Number         4  at6010_cache.o(.text.cache_init)
    [Anonymous Symbol]                       0x08005614   Section        0  at6010_cfar.o(.text.cfar_abs_threshold_cfg)
    __arm_cp.4_0                             0x0800561c   Number         4  at6010_cfar.o(.text.cfar_abs_threshold_cfg)
    [Anonymous Symbol]                       0x08005620   Section        0  at6010_cfar.o(.text.cfar_det_bmap_addr_cfg)
    __arm_cp.5_0                             0x08005648   Number         4  at6010_cfar.o(.text.cfar_det_bmap_addr_cfg)
    __arm_cp.5_1                             0x0800564c   Number         4  at6010_cfar.o(.text.cfar_det_bmap_addr_cfg)
    [Anonymous Symbol]                       0x08005650   Section        0  at6010_cfar.o(.text.cfar_enable)
    [Anonymous Symbol]                       0x08005660   Section        0  at6010_cfar.o(.text.cfar_irq_callback_set)
    [Anonymous Symbol]                       0x08005668   Section        0  at6010_cfar.o(.text.cfar_irq_enable)
    __arm_cp.1_1                             0x08005684   Number         4  at6010_cfar.o(.text.cfar_irq_enable)
    [Anonymous Symbol]                       0x08005688   Section        0  at6010_cfar.o(.text.cfar_isr)
    __arm_cp.7_0                             0x080056a0   Number         4  at6010_cfar.o(.text.cfar_isr)
    __arm_cp.7_1                             0x080056a4   Number         4  at6010_cfar.o(.text.cfar_isr)
    [Anonymous Symbol]                       0x080056a8   Section        0  at6010_cfar.o(.text.cfar_range_dim_cfg)
    __arm_cp.3_1                             0x080056e0   Number         4  at6010_cfar.o(.text.cfar_range_dim_cfg)
    [Anonymous Symbol]                       0x080056e4   Section        0  at6010_cfar.o(.text.cfar_vel_dim_cfg)
    __arm_cp.2_0                             0x08005710   Number         4  at6010_cfar.o(.text.cfar_vel_dim_cfg)
    __arm_cp.2_1                             0x08005714   Number         4  at6010_cfar.o(.text.cfar_vel_dim_cfg)
    [Anonymous Symbol]                       0x08005718   Section        0  at6010_dma.o(.text.dma_clear_block_done_flag)
    [Anonymous Symbol]                       0x08005730   Section        0  at6010_dma.o(.text.dma_clear_it_block)
    [Anonymous Symbol]                       0x08005744   Section        0  at6010_dma.o(.text.dma_clear_it_dst_tran)
    [Anonymous Symbol]                       0x08005758   Section        0  at6010_dma.o(.text.dma_clear_it_error)
    [Anonymous Symbol]                       0x0800576c   Section        0  at6010_dma.o(.text.dma_clear_it_src_tran)
    [Anonymous Symbol]                       0x08005780   Section        0  at6010_dma.o(.text.dma_clear_it_tfr)
    [Anonymous Symbol]                       0x08005794   Section        0  at6010_dma.o(.text.dma_disable_channel)
    [Anonymous Symbol]                       0x080057a8   Section        0  at6010_dma.o(.text.dma_disable_it_block)
    [Anonymous Symbol]                       0x080057bc   Section        0  at6010_dma.o(.text.dma_disable_it_dst_tran)
    [Anonymous Symbol]                       0x080057d0   Section        0  at6010_dma.o(.text.dma_disable_it_error)
    [Anonymous Symbol]                       0x080057e4   Section        0  at6010_dma.o(.text.dma_disable_it_src_tran)
    [Anonymous Symbol]                       0x080057f8   Section        0  at6010_dma.o(.text.dma_disable_it_tfr)
    [Anonymous Symbol]                       0x0800580c   Section        0  at6010_dma.o(.text.dma_enable_channel)
    [Anonymous Symbol]                       0x08005824   Section        0  at6010_dma.o(.text.dma_enable_global)
    [Anonymous Symbol]                       0x0800583c   Section        0  at6010_dma.o(.text.dma_enable_it_block)
    [Anonymous Symbol]                       0x08005854   Section        0  at6010_dma.o(.text.dma_enable_it_dst_tran)
    [Anonymous Symbol]                       0x0800586c   Section        0  at6010_dma.o(.text.dma_enable_it_error)
    [Anonymous Symbol]                       0x08005884   Section        0  at6010_dma.o(.text.dma_enable_it_src_tran)
    [Anonymous Symbol]                       0x0800589c   Section        0  at6010_dma.o(.text.dma_enable_it_tfr)
    [Anonymous Symbol]                       0x080058b4   Section        0  at6010_dma.o(.text.dma_get_raw_tfr)
    [Anonymous Symbol]                       0x080058cc   Section        0  at6010_dma.o(.text.dma_get_status_block)
    [Anonymous Symbol]                       0x080058e4   Section        0  at6010_dma.o(.text.dma_get_status_dst_tran)
    [Anonymous Symbol]                       0x080058fc   Section        0  at6010_dma.o(.text.dma_get_status_error)
    [Anonymous Symbol]                       0x08005914   Section        0  at6010_dma.o(.text.dma_get_status_src_tran)
    [Anonymous Symbol]                       0x0800592c   Section        0  at6010_dma.o(.text.dma_get_status_tfr)
    [Anonymous Symbol]                       0x08005944   Section        0  at6010_dma.o(.text.dma_is_active_channel)
    [Anonymous Symbol]                       0x0800595c   Section        0  at6010_dma.o(.text.dma_is_enabled_it_block)
    [Anonymous Symbol]                       0x08005974   Section        0  at6010_dma.o(.text.dma_is_enabled_it_dst_tran)
    [Anonymous Symbol]                       0x0800598c   Section        0  at6010_dma.o(.text.dma_is_enabled_it_error)
    [Anonymous Symbol]                       0x080059a4   Section        0  at6010_dma.o(.text.dma_is_enabled_it_src_tran)
    [Anonymous Symbol]                       0x080059bc   Section        0  at6010_dma.o(.text.dma_is_enabled_it_tfr)
    __arm_cp.99_0                            0x080059d4   Number         4  at6010_dma.o(.text.dma_is_enabled_it_tfr)
    [Anonymous Symbol]                       0x080059d8   Section        0  at6010_dma.o(.text.dma_set_block_transfer_size)
    __arm_cp.12_1                            0x080059f4   Number         4  at6010_dma.o(.text.dma_set_block_transfer_size)
    __arm_cp.12_2                            0x080059f8   Number         4  at6010_dma.o(.text.dma_set_block_transfer_size)
    [Anonymous Symbol]                       0x080059fc   Section        0  at6010_dma.o(.text.dma_set_channel_priority)
    [Anonymous Symbol]                       0x08005a18   Section        0  at6010_dma.o(.text.dma_set_channel_suspend)
    [Anonymous Symbol]                       0x08005a38   Section        0  at6010_dma.o(.text.dma_set_dst_addr)
    [Anonymous Symbol]                       0x08005a4c   Section        0  at6010_dma.o(.text.dma_set_dst_addr_inc)
    [Anonymous Symbol]                       0x08005a6c   Section        0  at6010_dma.o(.text.dma_set_dst_burst_length)
    __arm_cp.18_0                            0x08005a8c   Number         4  at6010_dma.o(.text.dma_set_dst_burst_length)
    [Anonymous Symbol]                       0x08005a90   Section        0  at6010_dma.o(.text.dma_set_dst_handshake_if)
    [Anonymous Symbol]                       0x08005ab0   Section        0  at6010_dma.o(.text.dma_set_dst_handshake_polarity)
    [Anonymous Symbol]                       0x08005ad0   Section        0  at6010_dma.o(.text.dma_set_dst_handshake_type)
    [Anonymous Symbol]                       0x08005af0   Section        0  at6010_dma.o(.text.dma_set_dst_linked_list_en)
    [Anonymous Symbol]                       0x08005b10   Section        0  at6010_dma.o(.text.dma_set_dst_reload_en)
    [Anonymous Symbol]                       0x08005b2c   Section        0  at6010_dma.o(.text.dma_set_dst_scatter_cnt)
    [Anonymous Symbol]                       0x08005b48   Section        0  at6010_dma.o(.text.dma_set_dst_scatter_en)
    [Anonymous Symbol]                       0x08005b68   Section        0  at6010_dma.o(.text.dma_set_dst_scatter_interval)
    [Anonymous Symbol]                       0x08005b84   Section        0  at6010_dma.o(.text.dma_set_dst_status_addr)
    [Anonymous Symbol]                       0x08005b98   Section        0  at6010_dma.o(.text.dma_set_dst_status_update_en)
    [Anonymous Symbol]                       0x08005bb4   Section        0  at6010_dma.o(.text.dma_set_dst_tr_width)
    [Anonymous Symbol]                       0x08005bd0   Section        0  at6010_dma.o(.text.dma_set_fifo_mode)
    [Anonymous Symbol]                       0x08005bec   Section        0  at6010_dma.o(.text.dma_set_flow_control_mode)
    [Anonymous Symbol]                       0x08005c08   Section        0  at6010_dma.o(.text.dma_set_flowctrl)
    [Anonymous Symbol]                       0x08005c28   Section        0  at6010_dma.o(.text.dma_set_int_en)
    [Anonymous Symbol]                       0x08005c44   Section        0  at6010_dma.o(.text.dma_set_linked_list_loc)
    [Anonymous Symbol]                       0x08005c60   Section        0  at6010_dma.o(.text.dma_set_lock_bus)
    [Anonymous Symbol]                       0x08005c80   Section        0  at6010_dma.o(.text.dma_set_lock_bus_level)
    [Anonymous Symbol]                       0x08005ca0   Section        0  at6010_dma.o(.text.dma_set_lock_channel)
    [Anonymous Symbol]                       0x08005cc0   Section        0  at6010_dma.o(.text.dma_set_lock_channel_level)
    [Anonymous Symbol]                       0x08005ce0   Section        0  at6010_dma.o(.text.dma_set_protection_control)
    [Anonymous Symbol]                       0x08005cfc   Section        0  at6010_dma.o(.text.dma_set_src_addr)
    [Anonymous Symbol]                       0x08005d10   Section        0  at6010_dma.o(.text.dma_set_src_addr_inc)
    [Anonymous Symbol]                       0x08005d30   Section        0  at6010_dma.o(.text.dma_set_src_burst_length)
    __arm_cp.16_0                            0x08005d50   Number         4  at6010_dma.o(.text.dma_set_src_burst_length)
    [Anonymous Symbol]                       0x08005d54   Section        0  at6010_dma.o(.text.dma_set_src_gather_cnt)
    __arm_cp.32_0                            0x08005d70   Number         4  at6010_dma.o(.text.dma_set_src_gather_cnt)
    [Anonymous Symbol]                       0x08005d74   Section        0  at6010_dma.o(.text.dma_set_src_gather_en)
    __arm_cp.30_0                            0x08005d94   Number         4  at6010_dma.o(.text.dma_set_src_gather_en)
    [Anonymous Symbol]                       0x08005d98   Section        0  at6010_dma.o(.text.dma_set_src_gather_interval)
    __arm_cp.34_0                            0x08005db4   Number         4  at6010_dma.o(.text.dma_set_src_gather_interval)
    __arm_cp.34_1                            0x08005db8   Number         4  at6010_dma.o(.text.dma_set_src_gather_interval)
    __arm_cp.34_2                            0x08005dbc   Number         4  at6010_dma.o(.text.dma_set_src_gather_interval)
    [Anonymous Symbol]                       0x08005dc0   Section        0  at6010_dma.o(.text.dma_set_src_handshake_if)
    __arm_cp.56_0                            0x08005de0   Number         4  at6010_dma.o(.text.dma_set_src_handshake_if)
    [Anonymous Symbol]                       0x08005de4   Section        0  at6010_dma.o(.text.dma_set_src_handshake_polarity)
    __arm_cp.60_0                            0x08005e04   Number         4  at6010_dma.o(.text.dma_set_src_handshake_polarity)
    [Anonymous Symbol]                       0x08005e08   Section        0  at6010_dma.o(.text.dma_set_src_handshake_type)
    __arm_cp.52_0                            0x08005e28   Number         4  at6010_dma.o(.text.dma_set_src_handshake_type)
    [Anonymous Symbol]                       0x08005e2c   Section        0  at6010_dma.o(.text.dma_set_src_linked_list_en)
    __arm_cp.6_0                             0x08005e4c   Number         4  at6010_dma.o(.text.dma_set_src_linked_list_en)
    [Anonymous Symbol]                       0x08005e50   Section        0  at6010_dma.o(.text.dma_set_src_realod_en)
    [Anonymous Symbol]                       0x08005e70   Section        0  at6010_dma.o(.text.dma_set_src_status_addr)
    __arm_cp.44_0                            0x08005e84   Number         4  at6010_dma.o(.text.dma_set_src_status_addr)
    [Anonymous Symbol]                       0x08005e88   Section        0  at6010_dma.o(.text.dma_set_src_status_update_en)
    __arm_cp.42_0                            0x08005ea4   Number         4  at6010_dma.o(.text.dma_set_src_status_update_en)
    [Anonymous Symbol]                       0x08005ea8   Section        0  at6010_dma.o(.text.dma_set_src_tr_width)
    __arm_cp.24_0                            0x08005ec4   Number         4  at6010_dma.o(.text.dma_set_src_tr_width)
    [Anonymous Symbol]                       0x08005ec8   Section        0  at6010_fft.o(.text.fft_adc_1d_fft_cfg)
    __arm_cp.15_1                            0x08005f34   Number         4  at6010_fft.o(.text.fft_adc_1d_fft_cfg)
    __arm_cp.15_2                            0x08005f38   Number         4  at6010_fft.o(.text.fft_adc_1d_fft_cfg)
    [Anonymous Symbol]                       0x08005f3c   Section        0  at6010_fft.o(.text.fft_adc_1d_fft_enable)
    [Anonymous Symbol]                       0x08005f4c   Section        0  at6010_fft.o(.text.fft_adc_2d_fft_cfg)
    __arm_cp.17_1                            0x08005fd8   Number         4  at6010_fft.o(.text.fft_adc_2d_fft_cfg)
    __arm_cp.17_4                            0x08005fdc   Number         4  at6010_fft.o(.text.fft_adc_2d_fft_cfg)
    [Anonymous Symbol]                       0x08005fe0   Section        0  at6010_fft.o(.text.fft_adc_2d_fft_enable)
    __arm_cp.16_0                            0x08005ff0   Number         4  at6010_fft.o(.text.fft_adc_2d_fft_enable)
    [Anonymous Symbol]                       0x08005ff4   Section        0  at6010_fft.o(.text.fft_adc_fft_addr_set)
    __arm_cp.13_0                            0x08006014   Number         4  at6010_fft.o(.text.fft_adc_fft_addr_set)
    [Anonymous Symbol]                       0x08006018   Section        0  at6010_fft.o(.text.fft_adc_rdat_addr_set)
    [Anonymous Symbol]                       0x08006034   Section        0  at6010_fft.o(.text.fft_adc_rdat_cfg)
    __arm_cp.11_1                            0x08006078   Number         4  at6010_fft.o(.text.fft_adc_rdat_cfg)
    __arm_cp.11_2                            0x0800607c   Number         4  at6010_fft.o(.text.fft_adc_rdat_cfg)
    __arm_cp.11_3                            0x08006080   Number         4  at6010_fft.o(.text.fft_adc_rdat_cfg)
    __arm_cp.11_4                            0x08006084   Number         4  at6010_fft.o(.text.fft_adc_rdat_cfg)
    [Anonymous Symbol]                       0x08006088   Section        0  at6010_fft.o(.text.fft_adc_rdat_enable)
    [Anonymous Symbol]                       0x0800609c   Section        0  at6010_fft.o(.text.fft_adc_win_cfg)
    __arm_cp.6_0                             0x080060cc   Number         4  at6010_fft.o(.text.fft_adc_win_cfg)
    __arm_cp.6_2                             0x080060d0   Number         4  at6010_fft.o(.text.fft_adc_win_cfg)
    [Anonymous Symbol]                       0x080060d4   Section        0  at6010_fft.o(.text.fft_adc_win_enable)
    __arm_cp.5_0                             0x08006100   Number         4  at6010_fft.o(.text.fft_adc_win_enable)
    [Anonymous Symbol]                       0x08006104   Section        0  at6010_fft.o(.text.fft_dc_cut_enable)
    [Anonymous Symbol]                       0x08006118   Section        0  at6010_fft.o(.text.fft_dev_deinit)
    [Anonymous Symbol]                       0x0800614c   Section        0  at6010_fft.o(.text.fft_dev_init)
    __arm_cp.0_0                             0x08006180   Number         4  at6010_fft.o(.text.fft_dev_init)
    [Anonymous Symbol]                       0x08006184   Section        0  at6010_fft.o(.text.fft_input_data_type_set)
    [Anonymous Symbol]                       0x08006198   Section        0  at6010_fft.o(.text.fft_irq_callback_set)
    [Anonymous Symbol]                       0x080061a0   Section        0  at6010_fft.o(.text.fft_irq_enable)
    __arm_cp.1_0                             0x080061f0   Number         4  at6010_fft.o(.text.fft_irq_enable)
    __arm_cp.1_2                             0x08006200   Number         4  at6010_fft.o(.text.fft_irq_enable)
    [Anonymous Symbol]                       0x08006204   Section        0  at6010_fft.o(.text.fft_isr)
    __arm_cp.20_0                            0x08006234   Number         4  at6010_fft.o(.text.fft_isr)
    __arm_cp.20_1                            0x08006238   Number         4  at6010_fft.o(.text.fft_isr)
    [Anonymous Symbol]                       0x0800623c   Section        0  at6010_fft.o(.text.fft_user_fft_cfg)
    __arm_cp.18_1                            0x08006298   Number         4  at6010_fft.o(.text.fft_user_fft_cfg)
    __arm_cp.18_2                            0x0800629c   Number         4  at6010_fft.o(.text.fft_user_fft_cfg)
    __arm_cp.18_3                            0x080062a0   Number         4  at6010_fft.o(.text.fft_user_fft_cfg)
    __arm_cp.18_4                            0x080062a4   Number         4  at6010_fft.o(.text.fft_user_fft_cfg)
    __arm_cp.18_5                            0x080062a8   Number         4  at6010_fft.o(.text.fft_user_fft_cfg)
    [Anonymous Symbol]                       0x080062ac   Section        0  at6010_fft.o(.text.fft_user_fft_start)
    [Anonymous Symbol]                       0x080062c0   Section        0  at6010_fft.o(.text.fft_user_win_cfg)
    __arm_cp.4_1                             0x080062dc   Number         4  at6010_fft.o(.text.fft_user_win_cfg)
    __arm_cp.4_2                             0x080062e0   Number         4  at6010_fft.o(.text.fft_user_win_cfg)
    [Anonymous Symbol]                       0x080062e4   Section        0  at6010_fft.o(.text.fft_user_win_enable)
    __arm_cp.3_0                             0x080062fc   Number         4  at6010_fft.o(.text.fft_user_win_enable)
    [Anonymous Symbol]                       0x08006300   Section        0  at6010_radar.o(.text.fmcw_afc_freq_set)
    __arm_cp.21_0                            0x08006358   Number         4  at6010_radar.o(.text.fmcw_afc_freq_set)
    fmcw_afc_freq_set.cfg_Ntarget            0x0800635c   Number         0  at6010_radar.o(.text.fmcw_afc_freq_set)
    __arm_cp.21_2                            0x08006364   Number         4  at6010_radar.o(.text.fmcw_afc_freq_set)
    fmcw_afc_freq_set.cfg_delay_cycle        0x08006368   Number         0  at6010_radar.o(.text.fmcw_afc_freq_set)
    [Anonymous Symbol]                       0x0800636c   Section        0  at6010_pmu.o(.text.pmu_clk_dcdc_set)
    __arm_cp.8_0                             0x080063ac   Number         4  at6010_pmu.o(.text.pmu_clk_dcdc_set)
    [Anonymous Symbol]                       0x080063b0   Section        0  at6010_pmu.o(.text.pmu_por_osc_disable)
    __arm_cp.4_0                             0x080063bc   Number         4  at6010_pmu.o(.text.pmu_por_osc_disable)
    [Anonymous Symbol]                       0x080063c0   Section        0  at6010_pmu.o(.text.pmu_rf_pwr_on)
    __arm_cp.5_0                             0x080063cc   Number         4  at6010_pmu.o(.text.pmu_rf_pwr_on)
    [Anonymous Symbol]                       0x080063d0   Section        0  at6010_pmu.o(.text.pmu_set_dig_vcore)
    __arm_cp.26_0                            0x080063e4   Number         4  at6010_pmu.o(.text.pmu_set_dig_vcore)
    [Anonymous Symbol]                       0x080063e8   Section        0  at6010_radar.o(.text.radar_ant_rx_num_get)
    [Anonymous Symbol]                       0x080063f0   Section        0  at6010_radar.o(.text.radar_ant_rx_num_set)
    [Anonymous Symbol]                       0x080063fc   Section        0  at6010_radar.o(.text.radar_burst_init)
    __arm_cp.18_0                            0x08006410   Number         4  at6010_radar.o(.text.radar_burst_init)
    [Anonymous Symbol]                       0x08006414   Section        0  at6010_radar_frame.o(.text.radar_chirp_profile_config)
    __arm_cp.0_0                             0x08006540   Number         4  at6010_radar_frame.o(.text.radar_chirp_profile_config)
    __arm_cp.0_1                             0x08006544   Number         4  at6010_radar_frame.o(.text.radar_chirp_profile_config)
    __arm_cp.0_2                             0x08006548   Number         4  at6010_radar_frame.o(.text.radar_chirp_profile_config)
    __arm_cp.0_3                             0x0800654c   Number         4  at6010_radar_frame.o(.text.radar_chirp_profile_config)
    [Anonymous Symbol]                       0x08006550   Section        0  at6010_radar.o(.text.radar_deinit)
    __arm_cp.15_0                            0x08006630   Number         4  at6010_radar.o(.text.radar_deinit)
    __arm_cp.15_1                            0x08006634   Number         4  at6010_radar.o(.text.radar_deinit)
    __arm_cp.15_2                            0x08006638   Number         4  at6010_radar.o(.text.radar_deinit)
    [Anonymous Symbol]                       0x0800663c   Section        0  at6010_radar_frame.o(.text.radar_faston_time_set)
    __arm_cp.8_0                             0x08006650   Number         4  at6010_radar_frame.o(.text.radar_faston_time_set)
    [Anonymous Symbol]                       0x08006654   Section        0  at6010_radar_adc.o(.text.radar_filter_cfg)
    __arm_cp.0_0                             0x080066c8   Number         4  at6010_radar_adc.o(.text.radar_filter_cfg)
    [Anonymous Symbol]                       0x080066cc   Section        0  at6010_radar_adc.o(.text.radar_filter_dma_cfg)
    __arm_cp.4_0                             0x080066f4   Number         4  at6010_radar_adc.o(.text.radar_filter_dma_cfg)
    [Anonymous Symbol]                       0x080066f8   Section        0  at6010_radar_frame.o(.text.radar_frame_config)
    [Anonymous Symbol]                       0x08006768   Section        0  at6010_radar_frame.o(.text.radar_frame_interval_get)
    [Anonymous Symbol]                       0x0800677c   Section        0  at6010_radar_frame.o(.text.radar_frame_interval_set)
    [Anonymous Symbol]                       0x08006798   Section        0  at6010_radar_frame.o(.text.radar_frame_repeat_times_get)
    [Anonymous Symbol]                       0x080067a4   Section        0  at6010_radar_frame.o(.text.radar_frame_repeat_times_set)
    __arm_cp.11_0                            0x080067b8   Number         4  at6010_radar_frame.o(.text.radar_frame_repeat_times_set)
    __arm_cp.11_1                            0x080067bc   Number         4  at6010_radar_frame.o(.text.radar_frame_repeat_times_set)
    [Anonymous Symbol]                       0x080067c0   Section        0  at6010_radar_frame.o(.text.radar_frame_start)
    [Anonymous Symbol]                       0x080067cc   Section        0  at6010_radar_frame.o(.text.radar_frame_stop)
    [Anonymous Symbol]                       0x080067d8   Section        0  at6010_radar_frame.o(.text.radar_frame_trigger_mode_set)
    __arm_cp.5_0                             0x080067ec   Number         4  at6010_radar_frame.o(.text.radar_frame_trigger_mode_set)
    [Anonymous Symbol]                       0x080067f0   Section        0  at6010_radar.o(.text.radar_init)
    __arm_cp.17_0                            0x08006b7c   Number         4  at6010_radar.o(.text.radar_init)
    __arm_cp.17_1                            0x08006b80   Number         4  at6010_radar.o(.text.radar_init)
    __arm_cp.17_2                            0x08006b84   Number         4  at6010_radar.o(.text.radar_init)
    __arm_cp.17_3                            0x08006b88   Number         4  at6010_radar.o(.text.radar_init)
    __arm_cp.17_4                            0x08006b8c   Number         4  at6010_radar.o(.text.radar_init)
    __arm_cp.17_5                            0x08006b90   Number         4  at6010_radar.o(.text.radar_init)
    __arm_cp.17_6                            0x08006b94   Number         4  at6010_radar.o(.text.radar_init)
    [Anonymous Symbol]                       0x08006b98   Section        0  at6010_radar.o(.text.radar_isr)
    __arm_cp.2_0                             0x08006bcc   Number         4  at6010_radar.o(.text.radar_isr)
    radar_lp_enter                           0x08006bd1   Thumb Code    28  at6010_radar.o(.text.radar_lp_enter)
    [Anonymous Symbol]                       0x08006bd0   Section        0  at6010_radar.o(.text.radar_lp_enter)
    radar_lp_exit                            0x08006bed   Thumb Code    20  at6010_radar.o(.text.radar_lp_exit)
    [Anonymous Symbol]                       0x08006bec   Section        0  at6010_radar.o(.text.radar_lp_exit)
    [Anonymous Symbol]                       0x08006c00   Section        0  at6010_radar.o(.text.radar_lp_init)
    __arm_cp.3_0                             0x08006c18   Number         4  at6010_radar.o(.text.radar_lp_init)
    __arm_cp.3_1                             0x08006c1c   Number         4  at6010_radar.o(.text.radar_lp_init)
    __arm_cp.3_3                             0x08006c20   Number         4  at6010_radar.o(.text.radar_lp_init)
    [Anonymous Symbol]                       0x08006c24   Section        0  at6010_radar.o(.text.radar_lp_pause)
    [Anonymous Symbol]                       0x08006c38   Section        0  at6010_radar.o(.text.radar_lp_resume)
    __arm_cp.6_0                             0x08006c68   Number         4  at6010_radar.o(.text.radar_lp_resume)
    __arm_cp.6_1                             0x08006c6c   Number         4  at6010_radar.o(.text.radar_lp_resume)
    [Anonymous Symbol]                       0x08006c70   Section        0  at6010_radar.o(.text.radar_lp_timer_get)
    __arm_cp.7_0                             0x08006c78   Number         4  at6010_radar.o(.text.radar_lp_timer_get)
    [Anonymous Symbol]                       0x08006c7c   Section        0  at6010_radar.o(.text.radar_param_hpf1_freq_get)
    [Anonymous Symbol]                       0x08006c88   Section        0  at6010_radar.o(.text.radar_param_hpf1_freq_set)
    [Anonymous Symbol]                       0x08006cac   Section        0  at6010_radar.o(.text.radar_param_hpf1_gain_get)
    [Anonymous Symbol]                       0x08006cb8   Section        0  at6010_radar.o(.text.radar_param_hpf1_gain_set)
    __arm_cp.27_0                            0x08006cdc   Number         4  at6010_radar.o(.text.radar_param_hpf1_gain_set)
    [Anonymous Symbol]                       0x08006ce0   Section        0  at6010_radar.o(.text.radar_param_hpf2_freq_get)
    [Anonymous Symbol]                       0x08006cec   Section        0  at6010_radar.o(.text.radar_param_hpf2_freq_set)
    [Anonymous Symbol]                       0x08006d10   Section        0  at6010_radar.o(.text.radar_param_hpf2_gain_get)
    [Anonymous Symbol]                       0x08006d1c   Section        0  at6010_radar.o(.text.radar_param_hpf2_gain_set)
    __arm_cp.31_0                            0x08006d40   Number         4  at6010_radar.o(.text.radar_param_hpf2_gain_set)
    [Anonymous Symbol]                       0x08006d44   Section        0  at6010_radar.o(.text.radar_param_lpf_freq_get)
    [Anonymous Symbol]                       0x08006d50   Section        0  at6010_radar.o(.text.radar_param_lpf_freq_set)
    __arm_cp.37_0                            0x08006d74   Number         4  at6010_radar.o(.text.radar_param_lpf_freq_set)
    [Anonymous Symbol]                       0x08006d78   Section        0  at6010_radar.o(.text.radar_param_lpf_gain_get)
    [Anonymous Symbol]                       0x08006d84   Section        0  at6010_radar.o(.text.radar_param_lpf_gain_set)
    __arm_cp.35_0                            0x08006da8   Number         4  at6010_radar.o(.text.radar_param_lpf_gain_set)
    __arm_cp.35_1                            0x08006dac   Number         4  at6010_radar.o(.text.radar_param_lpf_gain_set)
    radar_rf_init                            0x08006db1   Thumb Code   456  at6010_radar.o(.text.radar_rf_init)
    [Anonymous Symbol]                       0x08006db0   Section        0  at6010_radar.o(.text.radar_rf_init)
    __arm_cp.13_0                            0x08006f78   Number         4  at6010_radar.o(.text.radar_rf_init)
    __arm_cp.13_1                            0x08006f7c   Number         4  at6010_radar.o(.text.radar_rf_init)
    __arm_cp.13_2                            0x08006f80   Number         4  at6010_radar.o(.text.radar_rf_init)
    __arm_cp.13_3                            0x08006f84   Number         4  at6010_radar.o(.text.radar_rf_init)
    [Anonymous Symbol]                       0x08006f88   Section        0  at6010_radar.o(.text.radar_rf_pwr_off)
    __arm_cp.14_0                            0x08006f94   Number         4  at6010_radar.o(.text.radar_rf_pwr_off)
    [Anonymous Symbol]                       0x08006f98   Section        0  at6010_radar.o(.text.radar_rf_pwr_on)
    __arm_cp.12_0                            0x08006fa4   Number         4  at6010_radar.o(.text.radar_rf_pwr_on)
    [Anonymous Symbol]                       0x08006fa8   Section        0  at6010_radar.o(.text.radar_rx_pf_cfg)
    __arm_cp.19_0                            0x08007000   Number         4  at6010_radar.o(.text.radar_rx_pf_cfg)
    [Anonymous Symbol]                       0x08007004   Section        0  at6010_radar_frame.o(.text.radar_subframe_profile_config)
    __arm_cp.2_0                             0x08007078   Number         4  at6010_radar_frame.o(.text.radar_subframe_profile_config)
    __arm_cp.2_1                             0x0800707c   Number         4  at6010_radar_frame.o(.text.radar_subframe_profile_config)
    __arm_cp.2_2                             0x08007080   Number         4  at6010_radar_frame.o(.text.radar_subframe_profile_config)
    [Anonymous Symbol]                       0x08007084   Section        0  at6010_radar_frame.o(.text.radar_tx_profile_config)
    __arm_cp.1_0                             0x080070a0   Number         4  at6010_radar_frame.o(.text.radar_tx_profile_config)
    [Anonymous Symbol]                       0x080070a4   Section        0  at6010_radar.o(.text.radar_ulp_deinit)
    radar_ulp_enter                          0x080070ad   Thumb Code    12  at6010_radar.o(.text.radar_ulp_enter)
    [Anonymous Symbol]                       0x080070ac   Section        0  at6010_radar.o(.text.radar_ulp_enter)
    __arm_cp.10_0                            0x080070b8   Number         4  at6010_radar.o(.text.radar_ulp_enter)
    [Anonymous Symbol]                       0x080070bc   Section        0  at6010_radar.o(.text.radar_ulp_init)
    __arm_cp.9_0                             0x080070c4   Number         4  at6010_radar.o(.text.radar_ulp_init)
    __arm_cp.9_1                             0x080070c8   Number         4  at6010_radar.o(.text.radar_ulp_init)
    i.__ARM_common_ll_muluu                  0x080070e4   Section        0  btod.o(i.__ARM_common_ll_muluu)
    i.__ARM_fpclassify                       0x08007114   Section        0  fpclassify.o(i.__ARM_fpclassify)
    i._dgr                                   0x08007140   Section        0  dcmp.o(i._dgr)
    i._dleq                                  0x08007156   Section        0  dcmp.o(i._dleq)
    i._dls                                   0x08007170   Section        0  dcmp.o(i._dls)
    i._is_digit                              0x08007186   Section        0  __printf_wp.o(i._is_digit)
    i.sqrt                                   0x08007194   Section        0  sqrt.o(i.sqrt)
    locale$$code                             0x080071dc   Section       44  lc_numeric_c.o(locale$$code)
    x$fpl$dgeqf                              0x08007208   Section      100  dgef.o(x$fpl$dgeqf)
    x$fpl$dleqf                              0x0800726c   Section      100  dlef.o(x$fpl$dleqf)
    x$fpl$fmul                               0x080072d0   Section      176  fmul.o(x$fpl$fmul)
    x$fpl$printf1                            0x08007380   Section       16  printf1.o(x$fpl$printf1)
    fdiv_tab                                 0x08007390   Data          64  fdiv.o(.constdata)
    .constdata                               0x08007390   Section       64  fdiv.o(.constdata)
    x$fpl$usenofp                            0x08007390   Section        0  usenofp.o(x$fpl$usenofp)
    tenpwrs_x                                0x080073d0   Data          60  bigflt0.o(.constdata)
    .constdata                               0x080073d0   Section      148  bigflt0.o(.constdata)
    tenpwrs_i                                0x0800740c   Data          64  bigflt0.o(.constdata)
    [Anonymous Symbol]                       0x08007468   Section        0  range_fft_base_main.o(.rodata..L__const.adc_fft_win_cfg.win_cfg)
    [Anonymous Symbol]                       0x08007470   Section        0  radar_cfg_hal.o(.rodata..L__const.radar_fmcw_cfg.profile)
    M_CHANNEL_BIT_SHIFT                      0x080075b4   Data           4  at6010_dma.o(.rodata.cst4)
    [Anonymous Symbol]                       0x080075b4   Section        0  at6010_dma.o(.rodata.cst4)
    CHANNEL_OFFSET_TAB                       0x080075b8   Data           8  at6010_dma.o(.rodata.cst8)
    [Anonymous Symbol]                       0x080075b8   Section        0  at6010_dma.o(.rodata.cst8)
    [Anonymous Symbol]                       0x080075c0   Section        0  at6010_radar.o(.rodata.cst8)
    m_uart_hwd                               0x080075c8   Data          12  at6010_uart.o(.rodata.m_uart_hwd)
    [Anonymous Symbol]                       0x080075c8   Section        0  at6010_uart.o(.rodata.m_uart_hwd)
    radar_param_func                         0x080075d4   Data          72  hal_radar.o(.rodata.radar_param_func)
    [Anonymous Symbol]                       0x080075d4   Section        0  hal_radar.o(.rodata.radar_param_func)
    .L.str.2                                 0x0800761c   Data          92  range_fft_base_main.o(.rodata.str1.1)
    [Anonymous Symbol]                       0x0800761c   Section        0  range_fft_base_main.o(.rodata.str1.1)
    .L.str.3                                 0x08007678   Data          32  range_fft_base_main.o(.rodata.str1.1)
    .L.str.6                                 0x08007698   Data          54  hal_dma.o(.rodata.str1.1)
    [Anonymous Symbol]                       0x08007698   Section        0  hal_dma.o(.rodata.str1.1)
    .L.str.5                                 0x080076ce   Data          54  hal_dma.o(.rodata.str1.1)
    .L.str.4                                 0x08007704   Data          49  hal_dma.o(.rodata.str1.1)
    .L.str.3                                 0x08007735   Data          49  hal_dma.o(.rodata.str1.1)
    .L.str.17                                0x08007766   Data          59  hal_dma.o(.rodata.str1.1)
    .L.str.19                                0x080077a1   Data          61  hal_dma.o(.rodata.str1.1)
    .L.str.16                                0x080077de   Data          49  hal_dma.o(.rodata.str1.1)
    .L.str.18                                0x0800780f   Data          51  hal_dma.o(.rodata.str1.1)
    .L__func__.hal_dma_init                  0x08007842   Data          13  hal_dma.o(.rodata.str1.1)
    locale$$data                             0x080078a0   Section       28  lc_numeric_c.o(locale$$data)
    __lcnum_c_name                           0x080078a4   Data           2  lc_numeric_c.o(locale$$data)
    __lcnum_c_start                          0x080078ac   Data           0  lc_numeric_c.o(locale$$data)
    __lcnum_c_point                          0x080078b8   Data           0  lc_numeric_c.o(locale$$data)
    __lcnum_c_thousands                      0x080078ba   Data           0  lc_numeric_c.o(locale$$data)
    __lcnum_c_grouping                       0x080078bb   Data           0  lc_numeric_c.o(locale$$data)
    __lcnum_c_end                            0x080078bc   Data           0  lc_numeric_c.o(locale$$data)
    [Anonymous Symbol]                       0x20001000   Section        0  cpu-at601x.o(.ram_region)
    __arm_cp.0_0                             0x2000101c   Number         4  cpu-at601x.o(.ram_region)
    __arm_cp.0_1                             0x20001020   Number         4  cpu-at601x.o(.ram_region)
    __arm_cp.1_0                             0x2000103c   Number         4  cpu-at601x.o(.ram_region)
    __arm_cp.1_1                             0x20001040   Number         4  cpu-at601x.o(.ram_region)
    m_clk_inst.0.0                           0x20001048   Data           4  hal_clock.o(.data.m_clk_inst.0.0)
    [Anonymous Symbol]                       0x20001048   Section        0  hal_clock.o(.data.m_clk_inst.0.0)
    m_clk_inst.0.1                           0x2000104c   Data           4  hal_clock.o(.data.m_clk_inst.0.1)
    [Anonymous Symbol]                       0x2000104c   Section        0  hal_clock.o(.data.m_clk_inst.0.1)
    m_dualtimer_dev                          0x20001050   Data          16  at6010_dualtimer.o(.data.m_dualtimer_dev)
    [Anonymous Symbol]                       0x20001050   Section        0  at6010_dualtimer.o(.data.m_dualtimer_dev)
    m_lp_timer_id                            0x20001060   Data           1  at6010_radar.o(.data.m_lp_timer_id)
    [Anonymous Symbol]                       0x20001060   Section        0  at6010_radar.o(.data.m_lp_timer_id)
    m_timer_dev                              0x20001064   Data          32  at6010_timer.o(.data.m_timer_dev)
    [Anonymous Symbol]                       0x20001064   Section        0  at6010_timer.o(.data.m_timer_dev)
    .bss                                     0x20001088   Section       96  libspace.o(.bss)
    _fft_handle                              0x2000113c   Data         112  hal_fft.o(.bss._fft_handle)
    [Anonymous Symbol]                       0x2000113c   Section        0  hal_fft.o(.bss._fft_handle)
    _irqs_disabled_counter                   0x200011ac   Data           4  cpu-at601x.o(.bss._irqs_disabled_counter)
    [Anonymous Symbol]                       0x200011ac   Section        0  cpu-at601x.o(.bss._irqs_disabled_counter)
    _irqs_disabled_flag                      0x200011b0   Data           4  cpu-at601x.o(.bss._irqs_disabled_flag)
    [Anonymous Symbol]                       0x200011b0   Section        0  cpu-at601x.o(.bss._irqs_disabled_flag)
    cfar_dev_irq_cb                          0x200011b4   Data           4  at6010_cfar.o(.bss.cfar_dev_irq_cb)
    [Anonymous Symbol]                       0x200011b4   Section        0  at6010_cfar.o(.bss.cfar_dev_irq_cb)
    fft_dev_irq_cb                           0x200011b8   Data           4  at6010_fft.o(.bss.fft_dev_irq_cb)
    [Anonymous Symbol]                       0x200011b8   Section        0  at6010_fft.o(.bss.fft_dev_irq_cb)
    fifo_state                               0x200011bc   Data           4  range_fft_base_main.o(.bss.fifo_state)
    [Anonymous Symbol]                       0x200011bc   Section        0  range_fft_base_main.o(.bss.fifo_state)
    hdmax                                    0x200011c0   Data         100  output_config.o(.bss.hdmax)
    [Anonymous Symbol]                       0x200011c0   Section        0  output_config.o(.bss.hdmax)
    m_clk_inst.1                             0x20001224   Data           1  hal_clock.o(.bss.m_clk_inst.1)
    [Anonymous Symbol]                       0x20001224   Section        0  hal_clock.o(.bss.m_clk_inst.1)
    m_clk_inst.2                             0x20001228   Data           1  hal_clock.o(.bss.m_clk_inst.2)
    [Anonymous Symbol]                       0x20001228   Section        0  hal_clock.o(.bss.m_clk_inst.2)
    m_clk_mcu                                0x2000122c   Data           4  at6010_clock.o(.bss.m_clk_mcu)
    [Anonymous Symbol]                       0x2000122c   Section        0  at6010_clock.o(.bss.m_clk_mcu)
    m_gpio_hdl                               0x20001230   Data          64  at6010_gpio.o(.bss.m_gpio_hdl)
    [Anonymous Symbol]                       0x20001230   Section        0  at6010_gpio.o(.bss.m_gpio_hdl)
    m_lp_timer_en                            0x20001270   Data           1  at6010_radar.o(.bss.m_lp_timer_en)
    [Anonymous Symbol]                       0x20001270   Section        0  at6010_radar.o(.bss.m_lp_timer_en)
    m_radar_cb                               0x20001274   Data           4  at6010_radar.o(.bss.m_radar_cb)
    [Anonymous Symbol]                       0x20001274   Section        0  at6010_radar.o(.bss.m_radar_cb)
    m_rx_num                                 0x20001278   Data           1  at6010_radar.o(.bss.m_rx_num)
    [Anonymous Symbol]                       0x20001278   Section        0  at6010_radar.o(.bss.m_rx_num)
    m_timer_cfg                              0x20001279   Data          12  hal_timer.o(.bss.m_timer_cfg)
    [Anonymous Symbol]                       0x20001279   Section        0  hal_timer.o(.bss.m_timer_cfg)
    m_uart_hdl                               0x20001288   Data          72  at6010_uart.o(.bss.m_uart_hdl)
    [Anonymous Symbol]                       0x20001288   Section        0  at6010_uart.o(.bss.m_uart_hdl)
    m_uart_state                             0x200012d0   Data           3  hal_uart.o(.bss.m_uart_state)
    [Anonymous Symbol]                       0x200012d0   Section        0  hal_uart.o(.bss.m_uart_state)
    m_vco_cap                                0x200012d3   Data           1  at6010_radar.o(.bss.m_vco_cap)
    [Anonymous Symbol]                       0x200012d3   Section        0  at6010_radar.o(.bss.m_vco_cap)
    range_fft_buffer                         0x200012d4   Data           4  range_fft_base_main.o(.bss.range_fft_buffer)
    [Anonymous Symbol]                       0x200012d4   Section        0  range_fft_base_main.o(.bss.range_fft_buffer)
    uart_handle                              0x200012d8   Data          24  output_config.o(.bss.uart_handle)
    [Anonymous Symbol]                       0x200012d8   Section        0  output_config.o(.bss.uart_handle)
    Heap_Mem                                 0x200012f0   Data           0  startup_cmsdk_cm0plus.o(HEAP)
    Stack_Mem                                0x200012f0   Data           0  startup_cmsdk_cm0plus.o(STACK)
    __initial_sp                             0x200012f0   Data           0  startup_cmsdk_cm0plus.o(STACK)
    HEAP                                     0x200012f0   Section        0  startup_cmsdk_cm0plus.o(HEAP)
    STACK                                    0x200012f0   Section        0  startup_cmsdk_cm0plus.o(STACK)
    fft_out_buf                              0x20010000   Data        1304  range_fft_base_main.o(.radar_mem)
    [Anonymous Symbol]                       0x20010000   Section        0  range_fft_base_main.o(.radar_mem)
    win                                      0x40011000   Data        1024  range_fft_base_main.o(.fft_win_mem)
    [Anonymous Symbol]                       0x40011000   Section        0  range_fft_base_main.o(.fft_win_mem)

    Global Symbols

    Symbol Name                              Value     Ov Type        Size  Object(Section)

    BuildAttributes$$THM_ISAv3M$S$PE$A:L22$X:L11$S22$IEEE1$IW$~IW$USESV6$~STKCKD$USESV7$~SHL$OTIME$ROPI$IEEEJ$EBA8$UX$STANDARDLIB$REQ8$PRES8$EABIv2 0x00000000   Number         0  anon$$obj.o ABSOLUTE
    _printf_flags                            0x00000000   Number         0  printf_stubs.o ABSOLUTE
    _printf_return_value                     0x00000000   Number         0  printf_stubs.o ABSOLUTE
    _printf_sizespec                         0x00000000   Number         0  printf_stubs.o ABSOLUTE
    _printf_widthprec                        0x00000000   Number         0  printf_stubs.o ABSOLUTE
    __ARM_exceptions_init                     - Undefined Weak Reference
    __alloca_initialize                       - Undefined Weak Reference
    __arm_preinit_                            - Undefined Weak Reference
    __cpp_initialize__aeabi_                  - Undefined Weak Reference
    __cxa_finalize                            - Undefined Weak Reference
    __sigvec_lookup                           - Undefined Weak Reference
    _atexit_init                              - Undefined Weak Reference
    _call_atexit_fns                          - Undefined Weak Reference
    _clock_init                               - Undefined Weak Reference
    _fp_trap_init                             - Undefined Weak Reference
    _fp_trap_shutdown                         - Undefined Weak Reference
    _get_lc_collate                           - Undefined Weak Reference
    _get_lc_ctype                             - Undefined Weak Reference
    _get_lc_monetary                          - Undefined Weak Reference
    _get_lc_time                              - Undefined Weak Reference
    _getenv_init                              - Undefined Weak Reference
    _handle_redirection                       - Undefined Weak Reference
    _init_alloc                               - Undefined Weak Reference
    _init_user_alloc                          - Undefined Weak Reference
    _initio                                   - Undefined Weak Reference
    _printf_mbtowc                            - Undefined Weak Reference
    _printf_post_padding                      - Undefined Weak Reference
    _printf_pre_padding                       - Undefined Weak Reference
    _printf_truncate_signed                   - Undefined Weak Reference
    _printf_truncate_unsigned                 - Undefined Weak Reference
    _rand_init                                - Undefined Weak Reference
    _signal_finish                            - Undefined Weak Reference
    _signal_init                              - Undefined Weak Reference
    _terminate_alloc                          - Undefined Weak Reference
    _terminate_user_alloc                     - Undefined Weak Reference
    _terminateio                              - Undefined Weak Reference
    __Vectors_Size                           0x000000c0   Number         0  startup_cmsdk_cm0plus.o ABSOLUTE
    __Vectors                                0x08000100   Data           4  startup_cmsdk_cm0plus.o(RESET)
    __Vectors_End                            0x080001c0   Data           0  startup_cmsdk_cm0plus.o(RESET)
    __main                                   0x080001c1   Thumb Code     8  __main.o(!!!main)
    __scatterload                            0x080001c9   Thumb Code     0  __scatter.o(!!!scatter)
    __scatterload_rt2                        0x080001c9   Thumb Code    52  __scatter.o(!!!scatter)
    __scatterload_rt2_thumb_only             0x080001c9   Thumb Code     0  __scatter.o(!!!scatter)
    __scatterload_null                       0x080001d9   Thumb Code     0  __scatter.o(!!!scatter)
    __scatterload_copy                       0x08000205   Thumb Code    26  __scatter_copy.o(!!handler_copy)
    __scatterload_zeroinit                   0x08000221   Thumb Code    28  __scatter_zi.o(!!handler_zi)
    _printf_percent                          0x0800023d   Thumb Code     0  _printf_percent.o(.ARM.Collect$$_printf_percent$$00000000)
    _printf_f                                0x0800023f   Thumb Code     0  _printf_f.o(.ARM.Collect$$_printf_percent$$00000003)
    _printf_d                                0x08000249   Thumb Code     0  _printf_d.o(.ARM.Collect$$_printf_percent$$00000009)
    _printf_s                                0x08000253   Thumb Code     0  _printf_s.o(.ARM.Collect$$_printf_percent$$00000014)
    _printf_percent_end                      0x0800025d   Thumb Code     0  _printf_percent_end.o(.ARM.Collect$$_printf_percent$$00000017)
    __rt_lib_init                            0x08000261   Thumb Code     0  libinit.o(.ARM.Collect$$libinit$$00000000)
    __rt_lib_init_fp_1                       0x08000263   Thumb Code     0  libinit2.o(.ARM.Collect$$libinit$$00000002)
    __rt_lib_init_heap_1                     0x08000263   Thumb Code     0  libinit2.o(.ARM.Collect$$libinit$$0000000A)
    __rt_lib_init_lc_common                  0x08000263   Thumb Code     0  libinit2.o(.ARM.Collect$$libinit$$0000000F)
    __rt_lib_init_preinit_1                  0x08000263   Thumb Code     0  libinit2.o(.ARM.Collect$$libinit$$00000004)
    __rt_lib_init_rand_1                     0x08000263   Thumb Code     0  libinit2.o(.ARM.Collect$$libinit$$0000000E)
    __rt_lib_init_user_alloc_1               0x08000263   Thumb Code     0  libinit2.o(.ARM.Collect$$libinit$$0000000C)
    __rt_lib_init_lc_collate_1               0x08000269   Thumb Code     0  libinit2.o(.ARM.Collect$$libinit$$00000011)
    __rt_lib_init_lc_ctype_1                 0x08000269   Thumb Code     0  libinit2.o(.ARM.Collect$$libinit$$00000013)
    __rt_lib_init_lc_monetary_1              0x08000269   Thumb Code     0  libinit2.o(.ARM.Collect$$libinit$$00000015)
    __rt_lib_init_lc_numeric_2               0x08000269   Thumb Code     0  libinit2.o(.ARM.Collect$$libinit$$00000016)
    __rt_lib_init_alloca_1                   0x08000273   Thumb Code     0  libinit2.o(.ARM.Collect$$libinit$$0000002E)
    __rt_lib_init_argv_1                     0x08000273   Thumb Code     0  libinit2.o(.ARM.Collect$$libinit$$0000002C)
    __rt_lib_init_atexit_1                   0x08000273   Thumb Code     0  libinit2.o(.ARM.Collect$$libinit$$0000001B)
    __rt_lib_init_clock_1                    0x08000273   Thumb Code     0  libinit2.o(.ARM.Collect$$libinit$$00000021)
    __rt_lib_init_cpp_1                      0x08000273   Thumb Code     0  libinit2.o(.ARM.Collect$$libinit$$00000032)
    __rt_lib_init_exceptions_1               0x08000273   Thumb Code     0  libinit2.o(.ARM.Collect$$libinit$$00000030)
    __rt_lib_init_fp_trap_1                  0x08000273   Thumb Code     0  libinit2.o(.ARM.Collect$$libinit$$0000001F)
    __rt_lib_init_getenv_1                   0x08000273   Thumb Code     0  libinit2.o(.ARM.Collect$$libinit$$00000023)
    __rt_lib_init_lc_numeric_1               0x08000273   Thumb Code     0  libinit2.o(.ARM.Collect$$libinit$$00000017)
    __rt_lib_init_lc_time_1                  0x08000273   Thumb Code     0  libinit2.o(.ARM.Collect$$libinit$$00000019)
    __rt_lib_init_return                     0x08000273   Thumb Code     0  libinit2.o(.ARM.Collect$$libinit$$00000033)
    __rt_lib_init_signal_1                   0x08000273   Thumb Code     0  libinit2.o(.ARM.Collect$$libinit$$0000001D)
    __rt_lib_init_stdio_1                    0x08000273   Thumb Code     0  libinit2.o(.ARM.Collect$$libinit$$00000025)
    __rt_lib_shutdown                        0x08000275   Thumb Code     0  libshutdown.o(.ARM.Collect$$libshutdown$$00000000)
    __rt_lib_shutdown_cpp_1                  0x08000277   Thumb Code     0  libshutdown2.o(.ARM.Collect$$libshutdown$$00000002)
    __rt_lib_shutdown_fp_trap_1              0x08000277   Thumb Code     0  libshutdown2.o(.ARM.Collect$$libshutdown$$00000007)
    __rt_lib_shutdown_heap_1                 0x08000277   Thumb Code     0  libshutdown2.o(.ARM.Collect$$libshutdown$$0000000F)
    __rt_lib_shutdown_return                 0x08000277   Thumb Code     0  libshutdown2.o(.ARM.Collect$$libshutdown$$00000010)
    __rt_lib_shutdown_signal_1               0x08000277   Thumb Code     0  libshutdown2.o(.ARM.Collect$$libshutdown$$0000000A)
    __rt_lib_shutdown_stdio_1                0x08000277   Thumb Code     0  libshutdown2.o(.ARM.Collect$$libshutdown$$00000004)
    __rt_lib_shutdown_user_alloc_1           0x08000277   Thumb Code     0  libshutdown2.o(.ARM.Collect$$libshutdown$$0000000C)
    __rt_entry                               0x08000279   Thumb Code     0  __rtentry.o(.ARM.Collect$$rtentry$$00000000)
    __rt_entry_presh_1                       0x08000279   Thumb Code     0  __rtentry2.o(.ARM.Collect$$rtentry$$00000002)
    __rt_entry_sh                            0x08000279   Thumb Code     0  __rtentry7.o(.ARM.Collect$$rtentry$$00000007)
    __rt_entry_li                            0x0800027d   Thumb Code     0  __rtentry2.o(.ARM.Collect$$rtentry$$0000000A)
    __rt_entry_postsh_1                      0x0800027d   Thumb Code     0  __rtentry2.o(.ARM.Collect$$rtentry$$00000009)
    __rt_entry_main                          0x08000281   Thumb Code     0  __rtentry2.o(.ARM.Collect$$rtentry$$0000000D)
    __rt_entry_postli_1                      0x08000281   Thumb Code     0  __rtentry2.o(.ARM.Collect$$rtentry$$0000000C)
    __rt_exit                                0x0800028d   Thumb Code     0  rtexit.o(.ARM.Collect$$rtexit$$00000000)
    __rt_exit_ls                             0x0800028f   Thumb Code     0  rtexit2.o(.ARM.Collect$$rtexit$$00000003)
    __rt_exit_prels_1                        0x0800028f   Thumb Code     0  rtexit2.o(.ARM.Collect$$rtexit$$00000002)
    __rt_exit_exit                           0x08000293   Thumb Code     0  rtexit2.o(.ARM.Collect$$rtexit$$00000004)
    __aeabi_memcpy4                          0x08000299   Thumb Code    56  rt_memcpy.o(.emb_text)
    __aeabi_memcpy8                          0x08000299   Thumb Code     0  rt_memcpy.o(.emb_text)
    Reset_Handler                            0x080002d1   Thumb Code     8  startup_cmsdk_cm0plus.o(.text)
    AFC_PLL_Handler                          0x080002e3   Thumb Code     0  startup_cmsdk_cm0plus.o(.text)
    AUX_ADC_Handler                          0x080002e3   Thumb Code     0  startup_cmsdk_cm0plus.o(.text)
    BOR_Handler                              0x080002e3   Thumb Code     0  startup_cmsdk_cm0plus.o(.text)
    CACHE_Handler                            0x080002e3   Thumb Code     0  startup_cmsdk_cm0plus.o(.text)
    EFUSE_Handler                            0x080002e3   Thumb Code     0  startup_cmsdk_cm0plus.o(.text)
    LIGHT_Handler                            0x080002e3   Thumb Code     0  startup_cmsdk_cm0plus.o(.text)
    LOW_BAT_Handler                          0x080002e3   Thumb Code     0  startup_cmsdk_cm0plus.o(.text)
    PLL_Handler                              0x080002e3   Thumb Code     0  startup_cmsdk_cm0plus.o(.text)
    RC_CAL_Handler                           0x080002e3   Thumb Code     0  startup_cmsdk_cm0plus.o(.text)
    __user_initial_stackheap                 0x080002e5   Thumb Code    10  startup_cmsdk_cm0plus.o(.text)
    fputc                                    0x08000301   Thumb Code    12  retarget.o(.text)
    fgetc                                    0x0800030d   Thumb Code    20  retarget.o(.text)
    ferror                                   0x08000321   Thumb Code     6  retarget.o(.text)
    _sys_open                                0x08000327   Thumb Code     6  retarget.o(.text)
    _sys_close                               0x0800032d   Thumb Code     4  retarget.o(.text)
    _sys_write                               0x08000331   Thumb Code     4  retarget.o(.text)
    _sys_read                                0x08000335   Thumb Code     4  retarget.o(.text)
    _ttywrch                                 0x08000339   Thumb Code    12  retarget.o(.text)
    _sys_istty                               0x08000345   Thumb Code     4  retarget.o(.text)
    _sys_seek                                0x08000349   Thumb Code     6  retarget.o(.text)
    _sys_ensure                              0x0800034f   Thumb Code     4  retarget.o(.text)
    _sys_flen                                0x08000353   Thumb Code     4  retarget.o(.text)
    _sys_tmpnam                              0x08000357   Thumb Code     4  retarget.o(.text)
    _sys_exit                                0x0800035b   Thumb Code     2  retarget.o(.text)
    time                                     0x0800035d   Thumb Code     4  retarget.o(.text)
    delay_us                                 0x08000361   Thumb Code     8  retarget.o(.text)
    delay_ms                                 0x08000369   Thumb Code     8  retarget.o(.text)
    isLittleEndian                           0x08000371   Thumb Code     4  range_fft_base_main.o(.text)
    checkEndianness                          0x08000375   Thumb Code    36  range_fft_base_main.o(.text)
    yihe_ack                                 0x08000399   Thumb Code    88  range_fft_base_main.o(.text)
    main                                     0x080003f1   Thumb Code   388  range_fft_base_main.o(.text)
    findMaxMagnitudeIndex                    0x080005a5   Thumb Code   500  range_fft_base_main.o(.text)
    complexMagnitude                         0x08000799   Thumb Code    52  range_fft_base_main.o(.text)
    SystemCoreClockUpdate                    0x080007cd   Thumb Code    16  system_cmsdk_cm0plus.o(.text)
    SystemInit                               0x080007dd   Thumb Code    56  system_cmsdk_cm0plus.o(.text)
    hal_clk_init                             0x08000811   Thumb Code    44  hal_clock.o(.text)
    hal_setup_clk                            0x0800083d   Thumb Code   284  hal_clock.o(.text)
    hal_get_spi_flash_clk                    0x08000959   Thumb Code    12  hal_clock.o(.text)
    hal_get_system_clk                       0x08000965   Thumb Code    12  hal_clock.o(.text)
    hal_get_xtal_type                        0x08000971   Thumb Code    12  hal_clock.o(.text)
    hal_setup_adc_clk                        0x0800097d   Thumb Code    16  hal_clock.o(.text)
    hal_ms_to_ticks                          0x0800098d   Thumb Code    24  hal_clock.o(.text)
    hal_uart_init                            0x080009a5   Thumb Code   264  hal_uart.o(.text)
    hal_uart_deinit                          0x08000aad   Thumb Code    36  hal_uart.o(.text)
    hal_uart_state_get                       0x08000ad1   Thumb Code    12  hal_uart.o(.text)
    hal_uart_send_wait                       0x08000add   Thumb Code    40  hal_uart.o(.text)
    hal_uart_recv_wait                       0x08000b05   Thumb Code    68  hal_uart.o(.text)
    hal_uart_transmit_dma_it                 0x08000b49   Thumb Code    54  hal_uart.o(.text)
    hal_uart_receive_dma_it                  0x08000b7f   Thumb Code    54  hal_uart.o(.text)
    hal_uart_transmit_dma                    0x08000bb5   Thumb Code    54  hal_uart.o(.text)
    hal_uart_receive_dma                     0x08000beb   Thumb Code    54  hal_uart.o(.text)
    hal_fft_init                             0x08000c21   Thumb Code    20  hal_fft.o(.text)
    hal_fft_notify_set                       0x08000c89   Thumb Code    24  hal_fft.o(.text)
    hal_fft_deinit                           0x08000ccd   Thumb Code     8  hal_fft.o(.text)
    hal_fft_set_config                       0x08000cd5   Thumb Code   788  hal_fft.o(.text)
    fft_range_fft_suspend                    0x08001053   Thumb Code    10  hal_fft.o(.text)
    fft_range_fft_resume                     0x0800105d   Thumb Code    10  hal_fft.o(.text)
    fft_doppler_fft_suspend                  0x08001067   Thumb Code    10  hal_fft.o(.text)
    fft_doppler_fft_resume                   0x08001071   Thumb Code    10  hal_fft.o(.text)
    fft_process_trigger                      0x0800107b   Thumb Code    12  hal_fft.o(.text)
    radar_fmcw_cfg                           0x0800111d   Thumb Code    72  radar_cfg_hal.o(.text)
    hal_radar_init                           0x08001165   Thumb Code   664  hal_radar.o(.text)
    hal_radar_burst_init                     0x080013fd   Thumb Code    18  hal_radar.o(.text)
    hal_radar_stop                           0x0800140f   Thumb Code    12  hal_radar.o(.text)
    hal_radar_start                          0x0800141b   Thumb Code    12  hal_radar.o(.text)
    hal_radar_deinit                         0x08001427   Thumb Code    10  hal_radar.o(.text)
    hal_radar_lp_start                       0x08001431   Thumb Code    60  hal_radar.o(.text)
    hal_radar_lp_stop                        0x0800146d   Thumb Code     8  hal_radar.o(.text)
    hal_radar_ulp_start                      0x08001475   Thumb Code     8  hal_radar.o(.text)
    hal_radar_ulp_stop                       0x0800147d   Thumb Code     8  hal_radar.o(.text)
    hal_radar_param_set                      0x08001485   Thumb Code    20  hal_radar.o(.text)
    hal_radar_param_get                      0x08001499   Thumb Code    24  hal_radar.o(.text)
    hal_timer_init                           0x080014b1   Thumb Code   168  hal_timer.o(.text)
    hal_timer_deinit                         0x080015b9   Thumb Code    72  hal_timer.o(.text)
    hal_timer_get_free                       0x08001601   Thumb Code    40  hal_timer.o(.text)
    hal_timer_set                            0x08001629   Thumb Code    52  hal_timer.o(.text)
    hal_timer_start                          0x0800165d   Thumb Code     8  hal_timer.o(.text)
    hal_timer_stop                           0x08001665   Thumb Code     8  hal_timer.o(.text)
    hal_timer_value_get                      0x0800166d   Thumb Code    32  hal_timer.o(.text)
    hal_dualtimer_init                       0x0800168d   Thumb Code    84  hal_dualtimer.o(.text)
    hal_dualtimer_config                     0x080016e1   Thumb Code   100  hal_dualtimer.o(.text)
    hal_dualtimer_set_time                   0x08001745   Thumb Code    36  hal_dualtimer.o(.text)
    hal_dualtimer_start                      0x08001769   Thumb Code     8  hal_dualtimer.o(.text)
    hal_dualtimer_stop                       0x08001771   Thumb Code     8  hal_dualtimer.o(.text)
    hal_dualtimer_delay_us                   0x08001779   Thumb Code    56  hal_dualtimer.o(.text)
    hal_dualtimer_delay_ms                   0x080017b1   Thumb Code    14  hal_dualtimer.o(.text)
    hal_get_start_cnt_value                  0x080017bf   Thumb Code    10  hal_dualtimer.o(.text)
    hal_get_elapsed_time_us                  0x080017c9   Thumb Code    40  hal_dualtimer.o(.text)
    hal_dualtimer_deinit                     0x080017f1   Thumb Code    28  hal_dualtimer.o(.text)
    hal_dma_init                             0x0800180d   Thumb Code  1240  hal_dma.o(.text)
    hal_dma_deinit                           0x08001d45   Thumb Code   608  hal_dma.o(.text)
    hal_dma_init_struct_init                 0x08001fa5   Thumb Code    96  hal_dma.o(.text)
    hal_dma_lli_struct_init                  0x08002005   Thumb Code    96  hal_dma.o(.text)
    hal_dma_start                            0x08002065   Thumb Code   106  hal_dma.o(.text)
    hal_dma_abort                            0x080020fb   Thumb Code   178  hal_dma.o(.text)
    hal_dma_poll_transfer                    0x080021ad   Thumb Code    58  hal_dma.o(.text)
    hal_dma_start_it                         0x080021e7   Thumb Code   306  hal_dma.o(.text)
    hal_dma_aboart_it                        0x08002319   Thumb Code    42  hal_dma.o(.text)
    hal_dma_irq_handler                      0x08002345   Thumb Code   566  hal_dma.o(.text)
    hal_dma_register_callbacks               0x0800257d   Thumb Code    80  hal_dma.o(.text)
    hal_dma_unregister_callbacks             0x080025cd   Thumb Code   108  hal_dma.o(.text)
    hal_dma_get_state                        0x08002639   Thumb Code     6  hal_dma.o(.text)
    hal_dma_get_error                        0x0800263f   Thumb Code     4  hal_dma.o(.text)
    uart_baudrate_set                        0x08002645   Thumb Code    72  at6010_uart.o(.text)
    uart_baudrate_reset                      0x0800268d   Thumb Code    72  at6010_uart.o(.text)
    uart_data_width_set                      0x080026d5   Thumb Code    24  at6010_uart.o(.text)
    uart_parity_set                          0x080026ed   Thumb Code    44  at6010_uart.o(.text)
    uart_stop_bits_set                       0x08002719   Thumb Code    28  at6010_uart.o(.text)
    uart_set_dma_mode                        0x08002735   Thumb Code    16  at6010_uart.o(.text)
    uart_send_byte                           0x08002745   Thumb Code    24  at6010_uart.o(.text)
    uart_send_bs                             0x0800275d   Thumb Code    36  at6010_uart.o(.text)
    uart_send_str                            0x08002781   Thumb Code    36  at6010_uart.o(.text)
    uart_recv_byte                           0x080027a5   Thumb Code    24  at6010_uart.o(.text)
    uart_get_status                          0x080027bd   Thumb Code   108  at6010_uart.o(.text)
    uart_set_hdl                             0x08002829   Thumb Code    20  at6010_uart.o(.text)
    uart_irq_enable                          0x0800283d   Thumb Code    52  at6010_uart.o(.text)
    uart_irq_disable                         0x08002871   Thumb Code    52  at6010_uart.o(.text)
    uart_isr                                 0x080028a5   Thumb Code   116  at6010_uart.o(.text)
    uart_fifo_init                           0x08002919   Thumb Code    36  at6010_uart.o(.text)
    uart_tx_fifo_clr                         0x0800293d   Thumb Code    24  at6010_uart.o(.text)
    uart_rx_fifo_clr                         0x08002955   Thumb Code    24  at6010_uart.o(.text)
    uart_get_dr_addr                         0x0800296d   Thumb Code    12  at6010_uart.o(.text)
    clock_init                               0x08002979   Thumb Code    16  at6010_clock.o(.text)
    clock_xtal_type_get                      0x08002989   Thumb Code     4  at6010_clock.o(.text)
    pll_ana_clk_config                       0x0800298d   Thumb Code     2  at6010_clock.o(.text)
    set_pll_clk_divider                      0x08002991   Thumb Code    68  at6010_clock.o(.text)
    disable_pll_clk                          0x080029d5   Thumb Code    20  at6010_clock.o(.text)
    clk_mcu_src_set                          0x080029e9   Thumb Code    52  at6010_clock.o(.text)
    set_sys_clk_divider                      0x08002a1d   Thumb Code    96  at6010_clock.o(.text)
    set_spi_flash_clk_divider                0x08002a7d   Thumb Code    72  at6010_clock.o(.text)
    sys_clk_set_adc_clk                      0x08002ac5   Thumb Code     2  at6010_clock.o(.text)
    xtal_freq_get                            0x08002ac9   Thumb Code     8  at6010_clock.o(.text)
    clk_mcu_set                              0x08002ad1   Thumb Code   304  at6010_clock.o(.text)
    clk_mcu_get                              0x08002c01   Thumb Code    12  at6010_clock.o(.text)
    sys_clk_adc_sdm_inv_set                  0x08002c0d   Thumb Code    32  at6010_clock.o(.text)
    sys_clk_enable_radar                     0x08002c2d   Thumb Code    24  at6010_clock.o(.text)
    sys_clk_disable_radar                    0x08002c45   Thumb Code    28  at6010_clock.o(.text)
    sys_clk_enable_dualtimer                 0x08002c61   Thumb Code    24  at6010_clock.o(.text)
    sys_clk_disable_dualtimer                0x08002c79   Thumb Code    24  at6010_clock.o(.text)
    sys_clk_enable_gpio                      0x08002c91   Thumb Code    24  at6010_clock.o(.text)
    sys_clk_disable_gpio                     0x08002ca9   Thumb Code    28  at6010_clock.o(.text)
    sys_clk_enable_spi0                      0x08002cc5   Thumb Code    24  at6010_clock.o(.text)
    sys_clk_enable_spi1                      0x08002cdd   Thumb Code    24  at6010_clock.o(.text)
    sys_clk_disable_spi0                     0x08002cf5   Thumb Code    28  at6010_clock.o(.text)
    sys_clk_disable_spi1                     0x08002d11   Thumb Code    28  at6010_clock.o(.text)
    sys_clk_enable_dma                       0x08002d2d   Thumb Code    24  at6010_clock.o(.text)
    sys_clk_disable_dma                      0x08002d45   Thumb Code    24  at6010_clock.o(.text)
    sys_clk_enable_pwm                       0x08002d5d   Thumb Code    24  at6010_clock.o(.text)
    sys_clk_disable_pwm                      0x08002d75   Thumb Code    28  at6010_clock.o(.text)
    sys_clk_enable_i2c                       0x08002d91   Thumb Code    24  at6010_clock.o(.text)
    sys_clk_disable_i2c                      0x08002da9   Thumb Code    28  at6010_clock.o(.text)
    sys_clk_enable_uart0                     0x08002dc5   Thumb Code    24  at6010_clock.o(.text)
    sys_clk_disable_uart0                    0x08002ddd   Thumb Code    24  at6010_clock.o(.text)
    sys_clk_enable_uart1                     0x08002df5   Thumb Code    24  at6010_clock.o(.text)
    sys_clk_disable_uart1                    0x08002e0d   Thumb Code    24  at6010_clock.o(.text)
    sys_clk_enable_uart2                     0x08002e25   Thumb Code    24  at6010_clock.o(.text)
    sys_clk_disable_uart2                    0x08002e3d   Thumb Code    28  at6010_clock.o(.text)
    sys_clk_enable_timer0                    0x08002e59   Thumb Code    24  at6010_clock.o(.text)
    sys_clk_enable_timer1                    0x08002e71   Thumb Code    24  at6010_clock.o(.text)
    sys_clk_enable_timer2                    0x08002e89   Thumb Code    24  at6010_clock.o(.text)
    sys_clk_enable_timer3                    0x08002ea1   Thumb Code    24  at6010_clock.o(.text)
    sys_clk_disable_timer0                   0x08002eb9   Thumb Code    24  at6010_clock.o(.text)
    sys_clk_disable_timer1                   0x08002ed1   Thumb Code    24  at6010_clock.o(.text)
    sys_clk_disable_timer2                   0x08002ee9   Thumb Code    24  at6010_clock.o(.text)
    sys_clk_disable_timer3                   0x08002f01   Thumb Code    24  at6010_clock.o(.text)
    NMI_Handler                              0x08002f19   Thumb Code     2  at6010_irq.o(.text)
    HardFault_Handler                        0x08002f1b   Thumb Code     2  at6010_irq.o(.text)
    SVC_Handler                              0x08002f1d   Thumb Code     2  at6010_irq.o(.text)
    PendSV_Handler                           0x08002f1f   Thumb Code     2  at6010_irq.o(.text)
    SysTick_Handler                          0x08002f21   Thumb Code     2  at6010_irq.o(.text)
    TIMER0_Handler                           0x08002f23   Thumb Code    10  at6010_irq.o(.text)
    TIMER1_Handler                           0x08002f2d   Thumb Code    10  at6010_irq.o(.text)
    TIMER2_Handler                           0x08002f37   Thumb Code    10  at6010_irq.o(.text)
    TIMER3_Handler                           0x08002f41   Thumb Code    10  at6010_irq.o(.text)
    DUALTIMER_Handler                        0x08002f4b   Thumb Code     8  at6010_irq.o(.text)
    UART0_Handler                            0x08002f53   Thumb Code     2  at6010_irq.o(.text)
    UART1_Handler                            0x08002f55   Thumb Code     2  at6010_irq.o(.text)
    UART2_Handler                            0x08002f57   Thumb Code     2  at6010_irq.o(.text)
    SPI0_Handler                             0x08002f59   Thumb Code     2  at6010_irq.o(.text)
    SPI1_Handler                             0x08002f5b   Thumb Code     2  at6010_irq.o(.text)
    I2C_Handler                              0x08002f5d   Thumb Code     2  at6010_irq.o(.text)
    GPIO_Handler                             0x08002f5f   Thumb Code     2  at6010_irq.o(.text)
    DMA_Handler                              0x08002f61   Thumb Code     2  at6010_irq.o(.text)
    RADAR_Handler                            0x08002f63   Thumb Code     8  at6010_irq.o(.text)
    KEY_Handler                              0x08002f6b   Thumb Code     2  at6010_irq.o(.text)
    GPIO0_Handler                            0x08002f6d   Thumb Code     2  at6010_irq.o(.text)
    GPIO1_Handler                            0x08002f6f   Thumb Code     2  at6010_irq.o(.text)
    GPIO2_Handler                            0x08002f71   Thumb Code     2  at6010_irq.o(.text)
    GPIO3_Handler                            0x08002f73   Thumb Code     2  at6010_irq.o(.text)
    GPIO4_Handler                            0x08002f75   Thumb Code     2  at6010_irq.o(.text)
    GPIO5_Handler                            0x08002f77   Thumb Code     2  at6010_irq.o(.text)
    GPIO6_Handler                            0x08002f79   Thumb Code     2  at6010_irq.o(.text)
    AON_WDT_Handler                          0x08002f7b   Thumb Code     2  at6010_irq.o(.text)
    gpio_get_direction                       0x08002f7d   Thumb Code    52  at6010_gpio.o(.text)
    gpio_set_direction                       0x08002fb1   Thumb Code    72  at6010_gpio.o(.text)
    gpio_get_value                           0x08002ff9   Thumb Code    44  at6010_gpio.o(.text)
    gpio_set_value                           0x08003025   Thumb Code    64  at6010_gpio.o(.text)
    gpio_direction_input                     0x08003065   Thumb Code    14  at6010_gpio.o(.text)
    gpio_direction_output                    0x08003073   Thumb Code    22  at6010_gpio.o(.text)
    gpio_set_pinmux                          0x08003089   Thumb Code    72  at6010_gpio.o(.text)
    gpio_set_alternate_function              0x080030d1   Thumb Code    40  at6010_gpio.o(.text)
    gpio_set_analog_en                       0x080030f9   Thumb Code    68  at6010_gpio.o(.text)
    gpio_set_rd_en                           0x0800313d   Thumb Code    28  at6010_gpio.o(.text)
    gpio_set_pull_up                         0x08003159   Thumb Code    68  at6010_gpio.o(.text)
    gpio_set_pull_down                       0x0800319d   Thumb Code    68  at6010_gpio.o(.text)
    gpio_init                                0x080031e1   Thumb Code   188  at6010_gpio.o(.text)
    gpio_set_irq_type                        0x0800329d   Thumb Code    92  at6010_gpio.o(.text)
    gpio_irq_hdl                             0x080032f9   Thumb Code    20  at6010_gpio.o(.text)
    gpio_isr                                 0x0800330d   Thumb Code    44  at6010_gpio.o(.text)
    gpio_irq_set_hdl                         0x08003339   Thumb Code    20  at6010_gpio.o(.text)
    gpio_irq_enable                          0x0800334d   Thumb Code    20  at6010_gpio.o(.text)
    gpio_irq_disable                         0x08003361   Thumb Code    20  at6010_gpio.o(.text)
    gpio_irq_clr_flag                        0x08003375   Thumb Code    20  at6010_gpio.o(.text)
    gpio_irq_get_status                      0x08003389   Thumb Code    24  at6010_gpio.o(.text)
    gpio_irq_rise_get_status                 0x080033a1   Thumb Code    24  at6010_gpio.o(.text)
    gpio_toggle_init                         0x080033b9   Thumb Code    60  at6010_gpio.o(.text)
    gpio_toggle                              0x080033f5   Thumb Code    24  at6010_gpio.o(.text)
    timer_init                               0x0800340d   Thumb Code    44  at6010_timer.o(.text)
    timer_irq_enable                         0x08003439   Thumb Code    52  at6010_timer.o(.text)
    timer_irq_disable                        0x0800346d   Thumb Code    52  at6010_timer.o(.text)
    timer_start                              0x080034a1   Thumb Code    24  at6010_timer.o(.text)
    timer_stop                               0x080034b9   Thumb Code    24  at6010_timer.o(.text)
    timer_value_get                          0x080034d1   Thumb Code    16  at6010_timer.o(.text)
    timer_value_set                          0x080034e1   Thumb Code    16  at6010_timer.o(.text)
    timer_reload_get                         0x080034f1   Thumb Code    16  at6010_timer.o(.text)
    timer_reload_set                         0x08003501   Thumb Code    16  at6010_timer.o(.text)
    timer_irq_clear                          0x08003511   Thumb Code    20  at6010_timer.o(.text)
    timer_irq_status                         0x08003525   Thumb Code    16  at6010_timer.o(.text)
    timer_cb_set                             0x08003535   Thumb Code    12  at6010_timer.o(.text)
    timer_isr                                0x08003541   Thumb Code    32  at6010_timer.o(.text)
    dualtimer_init                           0x08003561   Thumb Code     8  at6010_dualtimer.o(.text)
    dualtimer_deinit                         0x08003569   Thumb Code    36  at6010_dualtimer.o(.text)
    dualtimer_get_default_config             0x0800358d   Thumb Code    16  at6010_dualtimer.o(.text)
    dualtimer_set_config                     0x0800359d   Thumb Code    60  at6010_dualtimer.o(.text)
    dualtimer_set_load                       0x080035d9   Thumb Code    24  at6010_dualtimer.o(.text)
    dualtimer_start                          0x080035f1   Thumb Code    24  at6010_dualtimer.o(.text)
    dualtimer_stop                           0x08003609   Thumb Code    24  at6010_dualtimer.o(.text)
    dualtimer_irq_clear                      0x08003621   Thumb Code    20  at6010_dualtimer.o(.text)
    dualtimer_get_value                      0x08003635   Thumb Code    16  at6010_dualtimer.o(.text)
    dualtimer_set_cb                         0x08003645   Thumb Code    12  at6010_dualtimer.o(.text)
    dualtimer_is_enabled                     0x08003651   Thumb Code    20  at6010_dualtimer.o(.text)
    dualtimer_hdl_proc                       0x08003665   Thumb Code    52  at6010_dualtimer.o(.text)
    output_dma_config                        0x08003699   Thumb Code   124  output_config.o(.text)
    output_port_send_data                    0x08003715   Thumb Code   104  output_config.o(.text)
    write_data_frame_header                  0x080037a5   Thumb Code   128  frame_header.o(.text)
    __use_no_semihosting                     0x08003825   Thumb Code     2  use_no_semi_2.o(.text)
    __aeabi_uldivmod                         0x08003827   Thumb Code   258  lludiv.o(.text)
    _ll_udiv                                 0x08003827   Thumb Code     0  lludiv.o(.text)
    __2printf                                0x08003929   Thumb Code    22  noretval__2printf.o(.text)
    _printf_str                              0x08003945   Thumb Code    82  _printf_str.o(.text)
    _printf_int_dec                          0x08003999   Thumb Code    90  _printf_dec.o(.text)
    __printf                                 0x08003a05   Thumb Code   270  __printf_wp.o(.text)
    puts                                     0x08003b15   Thumb Code    38  puts.o(.text)
    __aeabi_memcpy                           0x08003b41   Thumb Code   130  rt_memcpy.o(.text)
    __rt_memcpy                              0x08003b41   Thumb Code     0  rt_memcpy.o(.text)
    _memset_w                                0x08003bc3   Thumb Code    26  rt_memclr.o(.text)
    _memset                                  0x08003bdd   Thumb Code    30  rt_memclr.o(.text)
    __aeabi_memclr                           0x08003bfb   Thumb Code     4  rt_memclr.o(.text)
    __rt_memclr                              0x08003bfb   Thumb Code     0  rt_memclr.o(.text)
    __aeabi_memclr4                          0x08003bff   Thumb Code     0  rt_memclr.o(.text)
    __aeabi_memclr8                          0x08003bff   Thumb Code     0  rt_memclr.o(.text)
    __rt_memclr_w                            0x08003bff   Thumb Code     4  rt_memclr.o(.text)
    __aeabi_uidiv                            0x08003c03   Thumb Code     0  aeabi_sdiv.o(.text)
    __aeabi_uidivmod                         0x08003c03   Thumb Code    20  aeabi_sdiv.o(.text)
    __aeabi_idiv                             0x08003c17   Thumb Code     0  aeabi_sdiv.o(.text)
    __aeabi_idivmod                          0x08003c17   Thumb Code   326  aeabi_sdiv.o(.text)
    __use_two_region_memory                  0x08003d5d   Thumb Code     2  heapauxi.o(.text)
    __rt_heap_escrow$2region                 0x08003d5f   Thumb Code     2  heapauxi.o(.text)
    __rt_heap_expand$2region                 0x08003d61   Thumb Code     2  heapauxi.o(.text)
    __aeabi_dadd                             0x0800405d   Thumb Code     0  daddsub.o(.text)
    _dadd                                    0x0800405d   Thumb Code    26  daddsub.o(.text)
    __aeabi_dsub                             0x08004077   Thumb Code     0  daddsub.o(.text)
    _dsub                                    0x08004077   Thumb Code    22  daddsub.o(.text)
    __aeabi_drsub                            0x0800408d   Thumb Code     0  daddsub.o(.text)
    _drsb                                    0x0800408d   Thumb Code    28  daddsub.o(.text)
    __aeabi_d2uiz                            0x080040bd   Thumb Code     0  dfixui.o(.text)
    _dfixu                                   0x080040bd   Thumb Code    68  dfixui.o(.text)
    __aeabi_i2d_normalise                    0x08004105   Thumb Code    66  dflti.o(.text)
    __aeabi_i2d                              0x08004147   Thumb Code    16  dflti.o(.text)
    _dflt                                    0x08004147   Thumb Code     0  dflti.o(.text)
    __aeabi_ui2d                             0x08004157   Thumb Code     6  dflti.o(.text)
    _dfltu                                   0x08004157   Thumb Code     0  dflti.o(.text)
    __aeabi_dmul                             0x0800415d   Thumb Code     0  dmul.o(.text)
    _dmul                                    0x0800415d   Thumb Code   558  dmul.o(.text)
    __aeabi_f2d                              0x080043a5   Thumb Code     0  f2d.o(.text)
    _f2d                                     0x080043a5   Thumb Code    80  f2d.o(.text)
    __aeabi_fdiv                             0x080043f9   Thumb Code     0  fdiv.o(.text)
    _fdiv                                    0x080043f9   Thumb Code   334  fdiv.o(.text)
    _frdiv                                   0x08004547   Thumb Code     8  fdiv.o(.text)
    __aeabi_i2f_normalise                    0x08004559   Thumb Code    72  fflti.o(.text)
    __aeabi_i2f                              0x080045a1   Thumb Code    16  fflti.o(.text)
    _fflt                                    0x080045a1   Thumb Code     0  fflti.o(.text)
    __aeabi_ui2f                             0x080045b1   Thumb Code     6  fflti.o(.text)
    _ffltu                                   0x080045b1   Thumb Code     0  fflti.o(.text)
    __I$use$semihosting                      0x080045b7   Thumb Code     0  use_no_semi.o(.text)
    __use_no_semihosting_swi                 0x080045b7   Thumb Code     2  use_no_semi.o(.text)
    __read_errno                             0x080045b9   Thumb Code    10  _rserrno.o(.text)
    __set_errno                              0x080045c3   Thumb Code    12  _rserrno.o(.text)
    _printf_int_common                       0x080045cf   Thumb Code   176  _printf_intcommon.o(.text)
    _printf_fp_dec_real                      0x0800481d   Thumb Code   620  _printf_fp_dec.o(.text)
    _printf_cs_common                        0x08004a95   Thumb Code    22  _printf_char.o(.text)
    _printf_char                             0x08004aab   Thumb Code    16  _printf_char.o(.text)
    _printf_string                           0x08004abb   Thumb Code     8  _printf_char.o(.text)
    _printf_char_file                        0x08004ac5   Thumb Code    34  _printf_char_file.o(.text)
    __rt_udiv10                              0x08004aed   Thumb Code    40  rtudiv10.o(.text)
    _dsqrt                                   0x08004b15   Thumb Code   248  dsqrt.o(.text)
    __rt_locale                              0x08004c15   Thumb Code     8  rt_locale_intlibspace.o(.text)
    __aeabi_errno_addr                       0x08004c1d   Thumb Code     8  rt_errno_addr_intlibspace.o(.text)
    __errno$intlibspace                      0x08004c1d   Thumb Code     0  rt_errno_addr_intlibspace.o(.text)
    __rt_errno_addr$intlibspace              0x08004c1d   Thumb Code     0  rt_errno_addr_intlibspace.o(.text)
    _ll_udiv10                               0x08004c25   Thumb Code   122  lludiv10.o(.text)
    _printf_char_common                      0x08004cab   Thumb Code    32  _printf_char_common.o(.text)
    _printf_fp_infnan                        0x08004cd1   Thumb Code   120  _printf_fp_infnan.o(.text)
    _btod_etento                             0x08004d59   Thumb Code   210  bigflt0.o(.text)
    _btod_d2e                                0x08004e31   Thumb Code    64  btod.o(.text)
    _btod_emul                               0x08005265   Thumb Code    28  btod.o(.text)
    _btod_emuld                              0x08005281   Thumb Code   144  btod.o(.text)
    _btod_ediv                               0x08005311   Thumb Code    26  btod.o(.text)
    _btod_edivd                              0x0800532b   Thumb Code   124  btod.o(.text)
    __fpl_dcmp_InfNaN                        0x080053b1   Thumb Code   154  dcmpin.o(.text)
    exit                                     0x08005451   Thumb Code    16  exit.o(.text)
    strcmp                                   0x08005461   Thumb Code   132  strcmp.o(.text)
    __fpl_cmpreturn                          0x080054e9   Thumb Code    46  cmpret.o(.text)
    __fpl_dcheck_NaN2                        0x08005519   Thumb Code    14  dnan2.o(.text)
    __fpl_return_NaN                         0x0800552d   Thumb Code    94  retnan.o(.text)
    __decompress                             0x0800558b   Thumb Code     0  __dczerorl.o(.text)
    __decompress0                            0x0800558b   Thumb Code    58  __dczerorl.o(.text)
    cache_init                               0x080055e9   Thumb Code    32  at6010_cache.o(.text.cache_init)
    cfar_abs_threshold_cfg                   0x08005615   Thumb Code     8  at6010_cfar.o(.text.cfar_abs_threshold_cfg)
    cfar_det_bmap_addr_cfg                   0x08005621   Thumb Code    40  at6010_cfar.o(.text.cfar_det_bmap_addr_cfg)
    cfar_enable                              0x08005651   Thumb Code    16  at6010_cfar.o(.text.cfar_enable)
    cfar_irq_callback_set                    0x08005661   Thumb Code     8  at6010_cfar.o(.text.cfar_irq_callback_set)
    cfar_irq_enable                          0x08005669   Thumb Code    28  at6010_cfar.o(.text.cfar_irq_enable)
    cfar_isr                                 0x08005689   Thumb Code    24  at6010_cfar.o(.text.cfar_isr)
    cfar_range_dim_cfg                       0x080056a9   Thumb Code    56  at6010_cfar.o(.text.cfar_range_dim_cfg)
    cfar_vel_dim_cfg                         0x080056e5   Thumb Code    44  at6010_cfar.o(.text.cfar_vel_dim_cfg)
    dma_clear_block_done_flag                0x08005719   Thumb Code    24  at6010_dma.o(.text.dma_clear_block_done_flag)
    dma_clear_it_block                       0x08005731   Thumb Code    20  at6010_dma.o(.text.dma_clear_it_block)
    dma_clear_it_dst_tran                    0x08005745   Thumb Code    20  at6010_dma.o(.text.dma_clear_it_dst_tran)
    dma_clear_it_error                       0x08005759   Thumb Code    20  at6010_dma.o(.text.dma_clear_it_error)
    dma_clear_it_src_tran                    0x0800576d   Thumb Code    20  at6010_dma.o(.text.dma_clear_it_src_tran)
    dma_clear_it_tfr                         0x08005781   Thumb Code    20  at6010_dma.o(.text.dma_clear_it_tfr)
    dma_disable_channel                      0x08005795   Thumb Code    20  at6010_dma.o(.text.dma_disable_channel)
    dma_disable_it_block                     0x080057a9   Thumb Code    20  at6010_dma.o(.text.dma_disable_it_block)
    dma_disable_it_dst_tran                  0x080057bd   Thumb Code    20  at6010_dma.o(.text.dma_disable_it_dst_tran)
    dma_disable_it_error                     0x080057d1   Thumb Code    20  at6010_dma.o(.text.dma_disable_it_error)
    dma_disable_it_src_tran                  0x080057e5   Thumb Code    20  at6010_dma.o(.text.dma_disable_it_src_tran)
    dma_disable_it_tfr                       0x080057f9   Thumb Code    20  at6010_dma.o(.text.dma_disable_it_tfr)
    dma_enable_channel                       0x0800580d   Thumb Code    24  at6010_dma.o(.text.dma_enable_channel)
    dma_enable_global                        0x08005825   Thumb Code    22  at6010_dma.o(.text.dma_enable_global)
    dma_enable_it_block                      0x0800583d   Thumb Code    24  at6010_dma.o(.text.dma_enable_it_block)
    dma_enable_it_dst_tran                   0x08005855   Thumb Code    24  at6010_dma.o(.text.dma_enable_it_dst_tran)
    dma_enable_it_error                      0x0800586d   Thumb Code    24  at6010_dma.o(.text.dma_enable_it_error)
    dma_enable_it_src_tran                   0x08005885   Thumb Code    24  at6010_dma.o(.text.dma_enable_it_src_tran)
    dma_enable_it_tfr                        0x0800589d   Thumb Code    24  at6010_dma.o(.text.dma_enable_it_tfr)
    dma_get_raw_tfr                          0x080058b5   Thumb Code    24  at6010_dma.o(.text.dma_get_raw_tfr)
    dma_get_status_block                     0x080058cd   Thumb Code    24  at6010_dma.o(.text.dma_get_status_block)
    dma_get_status_dst_tran                  0x080058e5   Thumb Code    24  at6010_dma.o(.text.dma_get_status_dst_tran)
    dma_get_status_error                     0x080058fd   Thumb Code    24  at6010_dma.o(.text.dma_get_status_error)
    dma_get_status_src_tran                  0x08005915   Thumb Code    24  at6010_dma.o(.text.dma_get_status_src_tran)
    dma_get_status_tfr                       0x0800592d   Thumb Code    24  at6010_dma.o(.text.dma_get_status_tfr)
    dma_is_active_channel                    0x08005945   Thumb Code    24  at6010_dma.o(.text.dma_is_active_channel)
    dma_is_enabled_it_block                  0x0800595d   Thumb Code    24  at6010_dma.o(.text.dma_is_enabled_it_block)
    dma_is_enabled_it_dst_tran               0x08005975   Thumb Code    24  at6010_dma.o(.text.dma_is_enabled_it_dst_tran)
    dma_is_enabled_it_error                  0x0800598d   Thumb Code    24  at6010_dma.o(.text.dma_is_enabled_it_error)
    dma_is_enabled_it_src_tran               0x080059a5   Thumb Code    24  at6010_dma.o(.text.dma_is_enabled_it_src_tran)
    dma_is_enabled_it_tfr                    0x080059bd   Thumb Code    24  at6010_dma.o(.text.dma_is_enabled_it_tfr)
    dma_set_block_transfer_size              0x080059d9   Thumb Code    28  at6010_dma.o(.text.dma_set_block_transfer_size)
    dma_set_channel_priority                 0x080059fd   Thumb Code    28  at6010_dma.o(.text.dma_set_channel_priority)
    dma_set_channel_suspend                  0x08005a19   Thumb Code    32  at6010_dma.o(.text.dma_set_channel_suspend)
    dma_set_dst_addr                         0x08005a39   Thumb Code    20  at6010_dma.o(.text.dma_set_dst_addr)
    dma_set_dst_addr_inc                     0x08005a4d   Thumb Code    32  at6010_dma.o(.text.dma_set_dst_addr_inc)
    dma_set_dst_burst_length                 0x08005a6d   Thumb Code    32  at6010_dma.o(.text.dma_set_dst_burst_length)
    dma_set_dst_handshake_if                 0x08005a91   Thumb Code    32  at6010_dma.o(.text.dma_set_dst_handshake_if)
    dma_set_dst_handshake_polarity           0x08005ab1   Thumb Code    32  at6010_dma.o(.text.dma_set_dst_handshake_polarity)
    dma_set_dst_handshake_type               0x08005ad1   Thumb Code    32  at6010_dma.o(.text.dma_set_dst_handshake_type)
    dma_set_dst_linked_list_en               0x08005af1   Thumb Code    32  at6010_dma.o(.text.dma_set_dst_linked_list_en)
    dma_set_dst_reload_en                    0x08005b11   Thumb Code    28  at6010_dma.o(.text.dma_set_dst_reload_en)
    dma_set_dst_scatter_cnt                  0x08005b2d   Thumb Code    28  at6010_dma.o(.text.dma_set_dst_scatter_cnt)
    dma_set_dst_scatter_en                   0x08005b49   Thumb Code    32  at6010_dma.o(.text.dma_set_dst_scatter_en)
    dma_set_dst_scatter_interval             0x08005b69   Thumb Code    28  at6010_dma.o(.text.dma_set_dst_scatter_interval)
    dma_set_dst_status_addr                  0x08005b85   Thumb Code    20  at6010_dma.o(.text.dma_set_dst_status_addr)
    dma_set_dst_status_update_en             0x08005b99   Thumb Code    28  at6010_dma.o(.text.dma_set_dst_status_update_en)
    dma_set_dst_tr_width                     0x08005bb5   Thumb Code    28  at6010_dma.o(.text.dma_set_dst_tr_width)
    dma_set_fifo_mode                        0x08005bd1   Thumb Code    28  at6010_dma.o(.text.dma_set_fifo_mode)
    dma_set_flow_control_mode                0x08005bed   Thumb Code    28  at6010_dma.o(.text.dma_set_flow_control_mode)
    dma_set_flowctrl                         0x08005c09   Thumb Code    32  at6010_dma.o(.text.dma_set_flowctrl)
    dma_set_int_en                           0x08005c29   Thumb Code    28  at6010_dma.o(.text.dma_set_int_en)
    dma_set_linked_list_loc                  0x08005c45   Thumb Code    28  at6010_dma.o(.text.dma_set_linked_list_loc)
    dma_set_lock_bus                         0x08005c61   Thumb Code    32  at6010_dma.o(.text.dma_set_lock_bus)
    dma_set_lock_bus_level                   0x08005c81   Thumb Code    32  at6010_dma.o(.text.dma_set_lock_bus_level)
    dma_set_lock_channel                     0x08005ca1   Thumb Code    32  at6010_dma.o(.text.dma_set_lock_channel)
    dma_set_lock_channel_level               0x08005cc1   Thumb Code    32  at6010_dma.o(.text.dma_set_lock_channel_level)
    dma_set_protection_control               0x08005ce1   Thumb Code    28  at6010_dma.o(.text.dma_set_protection_control)
    dma_set_src_addr                         0x08005cfd   Thumb Code    20  at6010_dma.o(.text.dma_set_src_addr)
    dma_set_src_addr_inc                     0x08005d11   Thumb Code    32  at6010_dma.o(.text.dma_set_src_addr_inc)
    dma_set_src_burst_length                 0x08005d31   Thumb Code    32  at6010_dma.o(.text.dma_set_src_burst_length)
    dma_set_src_gather_cnt                   0x08005d55   Thumb Code    28  at6010_dma.o(.text.dma_set_src_gather_cnt)
    dma_set_src_gather_en                    0x08005d75   Thumb Code    32  at6010_dma.o(.text.dma_set_src_gather_en)
    dma_set_src_gather_interval              0x08005d99   Thumb Code    28  at6010_dma.o(.text.dma_set_src_gather_interval)
    dma_set_src_handshake_if                 0x08005dc1   Thumb Code    32  at6010_dma.o(.text.dma_set_src_handshake_if)
    dma_set_src_handshake_polarity           0x08005de5   Thumb Code    32  at6010_dma.o(.text.dma_set_src_handshake_polarity)
    dma_set_src_handshake_type               0x08005e09   Thumb Code    32  at6010_dma.o(.text.dma_set_src_handshake_type)
    dma_set_src_linked_list_en               0x08005e2d   Thumb Code    32  at6010_dma.o(.text.dma_set_src_linked_list_en)
    dma_set_src_realod_en                    0x08005e51   Thumb Code    32  at6010_dma.o(.text.dma_set_src_realod_en)
    dma_set_src_status_addr                  0x08005e71   Thumb Code    20  at6010_dma.o(.text.dma_set_src_status_addr)
    dma_set_src_status_update_en             0x08005e89   Thumb Code    28  at6010_dma.o(.text.dma_set_src_status_update_en)
    dma_set_src_tr_width                     0x08005ea9   Thumb Code    28  at6010_dma.o(.text.dma_set_src_tr_width)
    fft_adc_1d_fft_cfg                       0x08005ec9   Thumb Code   108  at6010_fft.o(.text.fft_adc_1d_fft_cfg)
    fft_adc_1d_fft_enable                    0x08005f3d   Thumb Code    16  at6010_fft.o(.text.fft_adc_1d_fft_enable)
    fft_adc_2d_fft_cfg                       0x08005f4d   Thumb Code   140  at6010_fft.o(.text.fft_adc_2d_fft_cfg)
    fft_adc_2d_fft_enable                    0x08005fe1   Thumb Code    16  at6010_fft.o(.text.fft_adc_2d_fft_enable)
    fft_adc_fft_addr_set                     0x08005ff5   Thumb Code    32  at6010_fft.o(.text.fft_adc_fft_addr_set)
    fft_adc_rdat_addr_set                    0x08006019   Thumb Code    28  at6010_fft.o(.text.fft_adc_rdat_addr_set)
    fft_adc_rdat_cfg                         0x08006035   Thumb Code    68  at6010_fft.o(.text.fft_adc_rdat_cfg)
    fft_adc_rdat_enable                      0x08006089   Thumb Code    20  at6010_fft.o(.text.fft_adc_rdat_enable)
    fft_adc_win_cfg                          0x0800609d   Thumb Code    48  at6010_fft.o(.text.fft_adc_win_cfg)
    fft_adc_win_enable                       0x080060d5   Thumb Code    44  at6010_fft.o(.text.fft_adc_win_enable)
    fft_dc_cut_enable                        0x08006105   Thumb Code    20  at6010_fft.o(.text.fft_dc_cut_enable)
    fft_dev_deinit                           0x08006119   Thumb Code    52  at6010_fft.o(.text.fft_dev_deinit)
    fft_dev_init                             0x0800614d   Thumb Code    52  at6010_fft.o(.text.fft_dev_init)
    fft_input_data_type_set                  0x08006185   Thumb Code    20  at6010_fft.o(.text.fft_input_data_type_set)
    fft_irq_callback_set                     0x08006199   Thumb Code     8  at6010_fft.o(.text.fft_irq_callback_set)
    fft_irq_enable                           0x080061a1   Thumb Code    80  at6010_fft.o(.text.fft_irq_enable)
    fft_isr                                  0x08006205   Thumb Code    48  at6010_fft.o(.text.fft_isr)
    fft_user_fft_cfg                         0x0800623d   Thumb Code    92  at6010_fft.o(.text.fft_user_fft_cfg)
    fft_user_fft_start                       0x080062ad   Thumb Code    20  at6010_fft.o(.text.fft_user_fft_start)
    fft_user_win_cfg                         0x080062c1   Thumb Code    28  at6010_fft.o(.text.fft_user_win_cfg)
    fft_user_win_enable                      0x080062e5   Thumb Code    24  at6010_fft.o(.text.fft_user_win_enable)
    fmcw_afc_freq_set                        0x08006301   Thumb Code    88  at6010_radar.o(.text.fmcw_afc_freq_set)
    pmu_clk_dcdc_set                         0x0800636d   Thumb Code    64  at6010_pmu.o(.text.pmu_clk_dcdc_set)
    pmu_por_osc_disable                      0x080063b1   Thumb Code    12  at6010_pmu.o(.text.pmu_por_osc_disable)
    pmu_rf_pwr_on                            0x080063c1   Thumb Code    12  at6010_pmu.o(.text.pmu_rf_pwr_on)
    pmu_set_dig_vcore                        0x080063d1   Thumb Code    20  at6010_pmu.o(.text.pmu_set_dig_vcore)
    radar_ant_rx_num_get                     0x080063e9   Thumb Code     8  at6010_radar.o(.text.radar_ant_rx_num_get)
    radar_ant_rx_num_set                     0x080063f1   Thumb Code    12  at6010_radar.o(.text.radar_ant_rx_num_set)
    radar_burst_init                         0x080063fd   Thumb Code    20  at6010_radar.o(.text.radar_burst_init)
    radar_chirp_profile_config               0x08006415   Thumb Code   300  at6010_radar_frame.o(.text.radar_chirp_profile_config)
    radar_deinit                             0x08006551   Thumb Code   224  at6010_radar.o(.text.radar_deinit)
    radar_faston_time_set                    0x0800663d   Thumb Code    20  at6010_radar_frame.o(.text.radar_faston_time_set)
    radar_filter_cfg                         0x08006655   Thumb Code   116  at6010_radar_adc.o(.text.radar_filter_cfg)
    radar_filter_dma_cfg                     0x080066cd   Thumb Code    40  at6010_radar_adc.o(.text.radar_filter_dma_cfg)
    radar_frame_config                       0x080066f9   Thumb Code   112  at6010_radar_frame.o(.text.radar_frame_config)
    radar_frame_interval_get                 0x08006769   Thumb Code    20  at6010_radar_frame.o(.text.radar_frame_interval_get)
    radar_frame_interval_set                 0x0800677d   Thumb Code    28  at6010_radar_frame.o(.text.radar_frame_interval_set)
    radar_frame_repeat_times_get             0x08006799   Thumb Code    12  at6010_radar_frame.o(.text.radar_frame_repeat_times_get)
    radar_frame_repeat_times_set             0x080067a5   Thumb Code    20  at6010_radar_frame.o(.text.radar_frame_repeat_times_set)
    radar_frame_start                        0x080067c1   Thumb Code    12  at6010_radar_frame.o(.text.radar_frame_start)
    radar_frame_stop                         0x080067cd   Thumb Code    12  at6010_radar_frame.o(.text.radar_frame_stop)
    radar_frame_trigger_mode_set             0x080067d9   Thumb Code    20  at6010_radar_frame.o(.text.radar_frame_trigger_mode_set)
    radar_init                               0x080067f1   Thumb Code   908  at6010_radar.o(.text.radar_init)
    radar_isr                                0x08006b99   Thumb Code    52  at6010_radar.o(.text.radar_isr)
    radar_lp_init                            0x08006c01   Thumb Code    24  at6010_radar.o(.text.radar_lp_init)
    radar_lp_pause                           0x08006c25   Thumb Code    20  at6010_radar.o(.text.radar_lp_pause)
    radar_lp_resume                          0x08006c39   Thumb Code    48  at6010_radar.o(.text.radar_lp_resume)
    radar_lp_timer_get                       0x08006c71   Thumb Code     8  at6010_radar.o(.text.radar_lp_timer_get)
    radar_param_hpf1_freq_get                0x08006c7d   Thumb Code    12  at6010_radar.o(.text.radar_param_hpf1_freq_get)
    radar_param_hpf1_freq_set                0x08006c89   Thumb Code    36  at6010_radar.o(.text.radar_param_hpf1_freq_set)
    radar_param_hpf1_gain_get                0x08006cad   Thumb Code    12  at6010_radar.o(.text.radar_param_hpf1_gain_get)
    radar_param_hpf1_gain_set                0x08006cb9   Thumb Code    36  at6010_radar.o(.text.radar_param_hpf1_gain_set)
    radar_param_hpf2_freq_get                0x08006ce1   Thumb Code    12  at6010_radar.o(.text.radar_param_hpf2_freq_get)
    radar_param_hpf2_freq_set                0x08006ced   Thumb Code    36  at6010_radar.o(.text.radar_param_hpf2_freq_set)
    radar_param_hpf2_gain_get                0x08006d11   Thumb Code    12  at6010_radar.o(.text.radar_param_hpf2_gain_get)
    radar_param_hpf2_gain_set                0x08006d1d   Thumb Code    36  at6010_radar.o(.text.radar_param_hpf2_gain_set)
    radar_param_lpf_freq_get                 0x08006d45   Thumb Code    12  at6010_radar.o(.text.radar_param_lpf_freq_get)
    radar_param_lpf_freq_set                 0x08006d51   Thumb Code    36  at6010_radar.o(.text.radar_param_lpf_freq_set)
    radar_param_lpf_gain_get                 0x08006d79   Thumb Code    12  at6010_radar.o(.text.radar_param_lpf_gain_get)
    radar_param_lpf_gain_set                 0x08006d85   Thumb Code    36  at6010_radar.o(.text.radar_param_lpf_gain_set)
    radar_rf_pwr_off                         0x08006f89   Thumb Code    12  at6010_radar.o(.text.radar_rf_pwr_off)
    radar_rf_pwr_on                          0x08006f99   Thumb Code    12  at6010_radar.o(.text.radar_rf_pwr_on)
    radar_rx_pf_cfg                          0x08006fa9   Thumb Code    88  at6010_radar.o(.text.radar_rx_pf_cfg)
    radar_subframe_profile_config            0x08007005   Thumb Code   116  at6010_radar_frame.o(.text.radar_subframe_profile_config)
    radar_tx_profile_config                  0x08007085   Thumb Code    28  at6010_radar_frame.o(.text.radar_tx_profile_config)
    radar_ulp_deinit                         0x080070a5   Thumb Code     8  at6010_radar.o(.text.radar_ulp_deinit)
    radar_ulp_init                           0x080070bd   Thumb Code     8  at6010_radar.o(.text.radar_ulp_init)
    Long Thumb to Thumb Veneer to critical_section_end 0x080070cd   Thumb Code    12  anon$$obj.o(Veneer$$Code)
    Long Thumb to Thumb Veneer to critical_section_start 0x080070d9   Thumb Code    12  anon$$obj.o(Veneer$$Code)
    __ARM_common_ll_muluu                    0x080070e5   Thumb Code    48  btod.o(i.__ARM_common_ll_muluu)
    __ARM_fpclassify                         0x08007115   Thumb Code    40  fpclassify.o(i.__ARM_fpclassify)
    __aeabi_dcmpgt                           0x08007141   Thumb Code     0  dcmp.o(i._dgr)
    _dgr                                     0x08007141   Thumb Code    22  dcmp.o(i._dgr)
    __aeabi_dcmple                           0x08007157   Thumb Code     0  dcmp.o(i._dleq)
    _dleq                                    0x08007157   Thumb Code    26  dcmp.o(i._dleq)
    __aeabi_dcmplt                           0x08007171   Thumb Code     0  dcmp.o(i._dls)
    _dls                                     0x08007171   Thumb Code    22  dcmp.o(i._dls)
    _is_digit                                0x08007187   Thumb Code    14  __printf_wp.o(i._is_digit)
    sqrt                                     0x08007195   Thumb Code    66  sqrt.o(i.sqrt)
    _get_lc_numeric                          0x080071dd   Thumb Code    44  lc_numeric_c.o(locale$$code)
    _dcmpge                                  0x08007209   Thumb Code    94  dgef.o(x$fpl$dgeqf)
    __aeabi_cdcmple                          0x0800726d   Thumb Code     0  dlef.o(x$fpl$dleqf)
    _dcmple                                  0x0800726d   Thumb Code    94  dlef.o(x$fpl$dleqf)
    __aeabi_fmul                             0x080072d1   Thumb Code     0  fmul.o(x$fpl$fmul)
    _fmul                                    0x080072d1   Thumb Code   172  fmul.o(x$fpl$fmul)
    _printf_fp_dec                           0x08007381   Thumb Code    16  printf1.o(x$fpl$printf1)
    __I$use$fp                               0x08007390   Number         0  usenofp.o(x$fpl$usenofp)
    Region$$Table$$Base                      0x08007850   Number         0  anon$$obj.o(Region$$Table)
    Region$$Table$$Limit                     0x080078a0   Number         0  anon$$obj.o(Region$$Table)
    Image$$ARM_LIB_STACK$$ZI$$Limit          0x20001000   Number         0  anon$$obj.o ABSOLUTE
    critical_section_start                   0x20001001   Thumb Code    36  cpu-at601x.o(.ram_region)
    critical_section_end                     0x20001025   Thumb Code    32  cpu-at601x.o(.ram_region)
    SystemCoreClock                          0x20001044   Data           4  system_cmsdk_cm0plus.o(.data.SystemCoreClock)
    __libspace_start                         0x20001088   Data          96  libspace.o(.bss)
    __stdout                                 0x200010e8   Data          84  retarget.o(.bss.__stdout)
    __temporary_stack_top$libspace           0x200010e8   Data           0  libspace.o(.bss)
    Image$$ARM_LIB_HEAP$$ZI$$Base            0x2000f000   Number         0  anon$$obj.o ABSOLUTE
    Image$$ARM_LIB_HEAP$$ZI$$Limit           0x20010000   Number         0  anon$$obj.o ABSOLUTE



==============================================================================

Memory Map of the image

  Image Entry point : 0x080001c1

  Load Region LR_IROM1 (Base: 0x08000100, Size: 0x00008180, Max: 0x0003cf00, ABSOLUTE, COMPRESSED[0x00007c74])

    Execution Region ER_IROM1 (Exec base: 0x08000100, Load base: 0x08000100, Size: 0x000077bc, Max: 0x0003cf00, ABSOLUTE)

    Exec Addr    Load Addr    Size         Type   Attr      Idx    E Section Name        Object

    0x08000100   0x08000100   0x000000c0   Data   RO            5    RESET               startup_cmsdk_cm0plus.o
    0x080001c0   0x080001c0   0x00000008   Code   RO         1084  * !!!main             c_p.l(__main.o)
    0x080001c8   0x080001c8   0x0000003c   Code   RO         1377    !!!scatter          c_p.l(__scatter.o)
    0x08000204   0x08000204   0x0000001a   Code   RO         1379    !!handler_copy      c_p.l(__scatter_copy.o)
    0x0800021e   0x0800021e   0x00000002   PAD
    0x08000220   0x08000220   0x0000001c   Code   RO         1381    !!handler_zi        c_p.l(__scatter_zi.o)
    0x0800023c   0x0800023c   0x00000002   Code   RO         1069    .ARM.Collect$$_printf_percent$$00000000  c_p.l(_printf_percent.o)
    0x0800023e   0x0800023e   0x0000000a   Code   RO         1068    .ARM.Collect$$_printf_percent$$00000003  c_p.l(_printf_f.o)
    0x08000248   0x08000248   0x0000000a   Code   RO         1067    .ARM.Collect$$_printf_percent$$00000009  c_p.l(_printf_d.o)
    0x08000252   0x08000252   0x0000000a   Code   RO         1066    .ARM.Collect$$_printf_percent$$00000014  c_p.l(_printf_s.o)
    0x0800025c   0x0800025c   0x00000004   Code   RO         1148    .ARM.Collect$$_printf_percent$$00000017  c_p.l(_printf_percent_end.o)
    0x08000260   0x08000260   0x00000002   Code   RO         1239    .ARM.Collect$$libinit$$00000000  c_p.l(libinit.o)
    0x08000262   0x08000262   0x00000000   Code   RO         1241    .ARM.Collect$$libinit$$00000002  c_p.l(libinit2.o)
    0x08000262   0x08000262   0x00000000   Code   RO         1243    .ARM.Collect$$libinit$$00000004  c_p.l(libinit2.o)
    0x08000262   0x08000262   0x00000000   Code   RO         1246    .ARM.Collect$$libinit$$0000000A  c_p.l(libinit2.o)
    0x08000262   0x08000262   0x00000000   Code   RO         1248    .ARM.Collect$$libinit$$0000000C  c_p.l(libinit2.o)
    0x08000262   0x08000262   0x00000000   Code   RO         1250    .ARM.Collect$$libinit$$0000000E  c_p.l(libinit2.o)
    0x08000262   0x08000262   0x00000006   Code   RO         1251    .ARM.Collect$$libinit$$0000000F  c_p.l(libinit2.o)
    0x08000268   0x08000268   0x00000000   Code   RO         1253    .ARM.Collect$$libinit$$00000011  c_p.l(libinit2.o)
    0x08000268   0x08000268   0x00000000   Code   RO         1255    .ARM.Collect$$libinit$$00000013  c_p.l(libinit2.o)
    0x08000268   0x08000268   0x00000000   Code   RO         1257    .ARM.Collect$$libinit$$00000015  c_p.l(libinit2.o)
    0x08000268   0x08000268   0x0000000a   Code   RO         1258    .ARM.Collect$$libinit$$00000016  c_p.l(libinit2.o)
    0x08000272   0x08000272   0x00000000   Code   RO         1259    .ARM.Collect$$libinit$$00000017  c_p.l(libinit2.o)
    0x08000272   0x08000272   0x00000000   Code   RO         1261    .ARM.Collect$$libinit$$00000019  c_p.l(libinit2.o)
    0x08000272   0x08000272   0x00000000   Code   RO         1263    .ARM.Collect$$libinit$$0000001B  c_p.l(libinit2.o)
    0x08000272   0x08000272   0x00000000   Code   RO         1265    .ARM.Collect$$libinit$$0000001D  c_p.l(libinit2.o)
    0x08000272   0x08000272   0x00000000   Code   RO         1267    .ARM.Collect$$libinit$$0000001F  c_p.l(libinit2.o)
    0x08000272   0x08000272   0x00000000   Code   RO         1269    .ARM.Collect$$libinit$$00000021  c_p.l(libinit2.o)
    0x08000272   0x08000272   0x00000000   Code   RO         1271    .ARM.Collect$$libinit$$00000023  c_p.l(libinit2.o)
    0x08000272   0x08000272   0x00000000   Code   RO         1273    .ARM.Collect$$libinit$$00000025  c_p.l(libinit2.o)
    0x08000272   0x08000272   0x00000000   Code   RO         1277    .ARM.Collect$$libinit$$0000002C  c_p.l(libinit2.o)
    0x08000272   0x08000272   0x00000000   Code   RO         1279    .ARM.Collect$$libinit$$0000002E  c_p.l(libinit2.o)
    0x08000272   0x08000272   0x00000000   Code   RO         1281    .ARM.Collect$$libinit$$00000030  c_p.l(libinit2.o)
    0x08000272   0x08000272   0x00000000   Code   RO         1283    .ARM.Collect$$libinit$$00000032  c_p.l(libinit2.o)
    0x08000272   0x08000272   0x00000002   Code   RO         1284    .ARM.Collect$$libinit$$00000033  c_p.l(libinit2.o)
    0x08000274   0x08000274   0x00000002   Code   RO         1339    .ARM.Collect$$libshutdown$$00000000  c_p.l(libshutdown.o)
    0x08000276   0x08000276   0x00000000   Code   RO         1358    .ARM.Collect$$libshutdown$$00000002  c_p.l(libshutdown2.o)
    0x08000276   0x08000276   0x00000000   Code   RO         1360    .ARM.Collect$$libshutdown$$00000004  c_p.l(libshutdown2.o)
    0x08000276   0x08000276   0x00000000   Code   RO         1363    .ARM.Collect$$libshutdown$$00000007  c_p.l(libshutdown2.o)
    0x08000276   0x08000276   0x00000000   Code   RO         1366    .ARM.Collect$$libshutdown$$0000000A  c_p.l(libshutdown2.o)
    0x08000276   0x08000276   0x00000000   Code   RO         1368    .ARM.Collect$$libshutdown$$0000000C  c_p.l(libshutdown2.o)
    0x08000276   0x08000276   0x00000000   Code   RO         1371    .ARM.Collect$$libshutdown$$0000000F  c_p.l(libshutdown2.o)
    0x08000276   0x08000276   0x00000002   Code   RO         1372    .ARM.Collect$$libshutdown$$00000010  c_p.l(libshutdown2.o)
    0x08000278   0x08000278   0x00000000   Code   RO         1127    .ARM.Collect$$rtentry$$00000000  c_p.l(__rtentry.o)
    0x08000278   0x08000278   0x00000000   Code   RO         1161    .ARM.Collect$$rtentry$$00000002  c_p.l(__rtentry2.o)
    0x08000278   0x08000278   0x00000004   Code   RO         1175    .ARM.Collect$$rtentry$$00000007  c_p.l(__rtentry7.o)
    0x0800027c   0x0800027c   0x00000000   Code   RO         1163    .ARM.Collect$$rtentry$$00000009  c_p.l(__rtentry2.o)
    0x0800027c   0x0800027c   0x00000004   Code   RO         1164    .ARM.Collect$$rtentry$$0000000A  c_p.l(__rtentry2.o)
    0x08000280   0x08000280   0x00000000   Code   RO         1166    .ARM.Collect$$rtentry$$0000000C  c_p.l(__rtentry2.o)
    0x08000280   0x08000280   0x00000008   Code   RO         1167    .ARM.Collect$$rtentry$$0000000D  c_p.l(__rtentry2.o)
    0x08000288   0x08000288   0x00000004   Code   RO         1176    .ARM.Collect$$rtentry$$00002718  c_p.l(__rtentry7.o)
    0x0800028c   0x0800028c   0x00000002   Code   RO         1290    .ARM.Collect$$rtexit$$00000000  c_p.l(rtexit.o)
    0x0800028e   0x0800028e   0x00000000   Code   RO         1311    .ARM.Collect$$rtexit$$00000002  c_p.l(rtexit2.o)
    0x0800028e   0x0800028e   0x00000004   Code   RO         1312    .ARM.Collect$$rtexit$$00000003  c_p.l(rtexit2.o)
    0x08000292   0x08000292   0x00000006   Code   RO         1313    .ARM.Collect$$rtexit$$00000004  c_p.l(rtexit2.o)
    0x08000298   0x08000298   0x00000038   Code   RO         1072    .emb_text           c_p.l(rt_memcpy.o)
    0x080002d0   0x080002d0   0x00000030   Code   RO            6    .text               startup_cmsdk_cm0plus.o
    0x08000300   0x08000300   0x00000070   Code   RO           12    .text               retarget.o
    0x08000370   0x08000370   0x0000045c   Code   RO           24    .text               range_fft_base_main.o
    0x080007cc   0x080007cc   0x00000044   Code   RO           42    .text               system_cmsdk_cm0plus.o
    0x08000810   0x08000810   0x00000194   Code   RO           52    .text               hal_clock.o
    0x080009a4   0x080009a4   0x0000027c   Code   RO           66    .text               hal_uart.o
    0x08000c20   0x08000c20   0x000004fc   Code   RO           77    .text               hal_fft.o
    0x0800111c   0x0800111c   0x00000048   Code   RO           88    .text               radar_cfg_hal.o
    0x08001164   0x08001164   0x0000034c   Code   RO           98    .text               hal_radar.o
    0x080014b0   0x080014b0   0x000001dc   Code   RO          108    .text               hal_timer.o
    0x0800168c   0x0800168c   0x00000180   Code   RO          118    .text               hal_dualtimer.o
    0x0800180c   0x0800180c   0x00000e36   Code   RO          127    .text               hal_dma.o
    0x08002642   0x08002642   0x00000002   PAD
    0x08002644   0x08002644   0x00000334   Code   RO          147    .text               at6010_uart.o
    0x08002978   0x08002978   0x000005a0   Code   RO          159    .text               at6010_clock.o
    0x08002f18   0x08002f18   0x00000064   Code   RO          169    .text               at6010_irq.o
    0x08002f7c   0x08002f7c   0x00000490   Code   RO          177    .text               at6010_gpio.o
    0x0800340c   0x0800340c   0x00000154   Code   RO          200    .text               at6010_timer.o
    0x08003560   0x08003560   0x00000138   Code   RO          210    .text               at6010_dualtimer.o
    0x08003698   0x08003698   0x0000010c   Code   RO          220    .text               output_config.o
    0x080037a4   0x080037a4   0x00000080   Code   RO          232    .text               frame_header.o
    0x08003824   0x08003824   0x00000002   Code   RO         1032    .text               c_p.l(use_no_semi_2.o)
    0x08003826   0x08003826   0x00000102   Code   RO         1034    .text               c_p.l(lludiv.o)
    0x08003928   0x08003928   0x0000001c   Code   RO         1038    .text               c_p.l(noretval__2printf.o)
    0x08003944   0x08003944   0x00000052   Code   RO         1042    .text               c_p.l(_printf_str.o)
    0x08003996   0x08003996   0x00000002   PAD
    0x08003998   0x08003998   0x0000006c   Code   RO         1044    .text               c_p.l(_printf_dec.o)
    0x08003a04   0x08003a04   0x0000010e   Code   RO         1054    .text               c_p.l(__printf_wp.o)
    0x08003b12   0x08003b12   0x00000002   PAD
    0x08003b14   0x08003b14   0x0000002c   Code   RO         1070    .text               c_p.l(puts.o)
    0x08003b40   0x08003b40   0x00000082   Code   RO         1073    .text               c_p.l(rt_memcpy.o)
    0x08003bc2   0x08003bc2   0x00000040   Code   RO         1076    .text               c_p.l(rt_memclr.o)
    0x08003c02   0x08003c02   0x0000015a   Code   RO         1078    .text               c_p.l(aeabi_sdiv.o)
    0x08003d5c   0x08003d5c   0x00000006   Code   RO         1082    .text               c_p.l(heapauxi.o)
    0x08003d62   0x08003d62   0x00000002   PAD
    0x08003d64   0x08003d64   0x00000358   Code   RO         1086    .text               fz_ps.l(daddsub.o)
    0x080040bc   0x080040bc   0x00000048   Code   RO         1100    .text               fz_ps.l(dfixui.o)
    0x08004104   0x08004104   0x00000058   Code   RO         1102    .text               fz_ps.l(dflti.o)
    0x0800415c   0x0800415c   0x00000248   Code   RO         1104    .text               fz_ps.l(dmul.o)
    0x080043a4   0x080043a4   0x00000054   Code   RO         1106    .text               fz_ps.l(f2d.o)
    0x080043f8   0x080043f8   0x00000160   Code   RO         1108    .text               fz_ps.l(fdiv.o)
    0x08004558   0x08004558   0x0000005e   Code   RO         1111    .text               fz_ps.l(fflti.o)
    0x080045b6   0x080045b6   0x00000002   Code   RO         1125    .text               c_p.l(use_no_semi.o)
    0x080045b8   0x080045b8   0x00000016   Code   RO         1136    .text               c_p.l(_rserrno.o)
    0x080045ce   0x080045ce   0x000000b0   Code   RO         1138    .text               c_p.l(_printf_intcommon.o)
    0x0800467e   0x0800467e   0x00000002   PAD
    0x08004680   0x08004680   0x00000414   Code   RO         1140    .text               c_p.l(_printf_fp_dec.o)
    0x08004a94   0x08004a94   0x0000002e   Code   RO         1144    .text               c_p.l(_printf_char.o)
    0x08004ac2   0x08004ac2   0x00000002   PAD
    0x08004ac4   0x08004ac4   0x00000028   Code   RO         1146    .text               c_p.l(_printf_char_file.o)
    0x08004aec   0x08004aec   0x00000028   Code   RO         1149    .text               c_p.l(rtudiv10.o)
    0x08004b14   0x08004b14   0x00000100   Code   RO         1157    .text               fz_ps.l(dsqrt.o)
    0x08004c14   0x08004c14   0x00000008   Code   RO         1185    .text               c_p.l(rt_locale_intlibspace.o)
    0x08004c1c   0x08004c1c   0x00000008   Code   RO         1190    .text               c_p.l(rt_errno_addr_intlibspace.o)
    0x08004c24   0x08004c24   0x0000007a   Code   RO         1192    .text               c_p.l(lludiv10.o)
    0x08004c9e   0x08004c9e   0x00000002   PAD
    0x08004ca0   0x08004ca0   0x00000030   Code   RO         1194    .text               c_p.l(_printf_char_common.o)
    0x08004cd0   0x08004cd0   0x00000088   Code   RO         1196    .text               c_p.l(_printf_fp_infnan.o)
    0x08004d58   0x08004d58   0x000000d8   Code   RO         1198    .text               c_p.l(bigflt0.o)
    0x08004e30   0x08004e30   0x00000580   Code   RO         1201    .text               c_p.l(btod.o)
    0x080053b0   0x080053b0   0x000000a0   Code   RO         1210    .text               fz_ps.l(dcmpin.o)
    0x08005450   0x08005450   0x00000010   Code   RO         1226    .text               c_p.l(exit.o)
    0x08005460   0x08005460   0x00000088   Code   RO         1232    .text               c_p.l(strcmp.o)
    0x080054e8   0x080054e8   0x0000002e   Code   RO         1285    .text               fz_ps.l(cmpret.o)
    0x08005516   0x08005516   0x00000002   PAD
    0x08005518   0x08005518   0x00000014   Code   RO         1287    .text               fz_ps.l(dnan2.o)
    0x0800552c   0x0800552c   0x0000005e   Code   RO         1308    .text               fz_ps.l(retnan.o)
    0x0800558a   0x0800558a   0x0000003a   Code   RO         1375    .text               c_p.l(__dczerorl.o)
    0x080055c4   0x080055c4   0x00000024   Code   RO          244    .text.cache_flush   lib_platform.lib(at6010_cache.o)
    0x080055e8   0x080055e8   0x0000002c   Code   RO          242    .text.cache_init    lib_platform.lib(at6010_cache.o)
    0x08005614   0x08005614   0x0000000c   Code   RO          749    .text.cfar_abs_threshold_cfg  lib_radar.lib(at6010_cfar.o)
    0x08005620   0x08005620   0x00000030   Code   RO          751    .text.cfar_det_bmap_addr_cfg  lib_radar.lib(at6010_cfar.o)
    0x08005650   0x08005650   0x00000010   Code   RO          741    .text.cfar_enable   lib_radar.lib(at6010_cfar.o)
    0x08005660   0x08005660   0x00000008   Code   RO          753    .text.cfar_irq_callback_set  lib_radar.lib(at6010_cfar.o)
    0x08005668   0x08005668   0x00000020   Code   RO          743    .text.cfar_irq_enable  lib_radar.lib(at6010_cfar.o)
    0x08005688   0x08005688   0x00000020   Code   RO          755    .text.cfar_isr      lib_radar.lib(at6010_cfar.o)
    0x080056a8   0x080056a8   0x0000003c   Code   RO          747    .text.cfar_range_dim_cfg  lib_radar.lib(at6010_cfar.o)
    0x080056e4   0x080056e4   0x00000034   Code   RO          745    .text.cfar_vel_dim_cfg  lib_radar.lib(at6010_cfar.o)
    0x08005718   0x08005718   0x00000018   Code   RO          273    .text.dma_clear_block_done_flag  lib_platform.lib(at6010_dma.o)
    0x08005730   0x08005730   0x00000014   Code   RO          479    .text.dma_clear_it_block  lib_platform.lib(at6010_dma.o)
    0x08005744   0x08005744   0x00000014   Code   RO          483    .text.dma_clear_it_dst_tran  lib_platform.lib(at6010_dma.o)
    0x08005758   0x08005758   0x00000014   Code   RO          485    .text.dma_clear_it_error  lib_platform.lib(at6010_dma.o)
    0x0800576c   0x0800576c   0x00000014   Code   RO          481    .text.dma_clear_it_src_tran  lib_platform.lib(at6010_dma.o)
    0x08005780   0x08005780   0x00000014   Code   RO          477    .text.dma_clear_it_tfr  lib_platform.lib(at6010_dma.o)
    0x08005794   0x08005794   0x00000014   Code   RO          509    .text.dma_disable_channel  lib_platform.lib(at6010_dma.o)
    0x080057a8   0x080057a8   0x00000014   Code   RO          455    .text.dma_disable_it_block  lib_platform.lib(at6010_dma.o)
    0x080057bc   0x080057bc   0x00000014   Code   RO          467    .text.dma_disable_it_dst_tran  lib_platform.lib(at6010_dma.o)
    0x080057d0   0x080057d0   0x00000014   Code   RO          473    .text.dma_disable_it_error  lib_platform.lib(at6010_dma.o)
    0x080057e4   0x080057e4   0x00000014   Code   RO          461    .text.dma_disable_it_src_tran  lib_platform.lib(at6010_dma.o)
    0x080057f8   0x080057f8   0x00000014   Code   RO          449    .text.dma_disable_it_tfr  lib_platform.lib(at6010_dma.o)
    0x0800580c   0x0800580c   0x00000018   Code   RO          507    .text.dma_enable_channel  lib_platform.lib(at6010_dma.o)
    0x08005824   0x08005824   0x00000016   Code   RO          501    .text.dma_enable_global  lib_platform.lib(at6010_dma.o)
    0x0800583a   0x0800583a   0x00000002   PAD
    0x0800583c   0x0800583c   0x00000018   Code   RO          453    .text.dma_enable_it_block  lib_platform.lib(at6010_dma.o)
    0x08005854   0x08005854   0x00000018   Code   RO          465    .text.dma_enable_it_dst_tran  lib_platform.lib(at6010_dma.o)
    0x0800586c   0x0800586c   0x00000018   Code   RO          471    .text.dma_enable_it_error  lib_platform.lib(at6010_dma.o)
    0x08005884   0x08005884   0x00000018   Code   RO          459    .text.dma_enable_it_src_tran  lib_platform.lib(at6010_dma.o)
    0x0800589c   0x0800589c   0x00000018   Code   RO          447    .text.dma_enable_it_tfr  lib_platform.lib(at6010_dma.o)
    0x080058b4   0x080058b4   0x00000018   Code   RO          427    .text.dma_get_raw_tfr  lib_platform.lib(at6010_dma.o)
    0x080058cc   0x080058cc   0x00000018   Code   RO          439    .text.dma_get_status_block  lib_platform.lib(at6010_dma.o)
    0x080058e4   0x080058e4   0x00000018   Code   RO          443    .text.dma_get_status_dst_tran  lib_platform.lib(at6010_dma.o)
    0x080058fc   0x080058fc   0x00000018   Code   RO          445    .text.dma_get_status_error  lib_platform.lib(at6010_dma.o)
    0x08005914   0x08005914   0x00000018   Code   RO          441    .text.dma_get_status_src_tran  lib_platform.lib(at6010_dma.o)
    0x0800592c   0x0800592c   0x00000018   Code   RO          437    .text.dma_get_status_tfr  lib_platform.lib(at6010_dma.o)
    0x08005944   0x08005944   0x00000018   Code   RO          511    .text.dma_is_active_channel  lib_platform.lib(at6010_dma.o)
    0x0800595c   0x0800595c   0x00000018   Code   RO          457    .text.dma_is_enabled_it_block  lib_platform.lib(at6010_dma.o)
    0x08005974   0x08005974   0x00000018   Code   RO          469    .text.dma_is_enabled_it_dst_tran  lib_platform.lib(at6010_dma.o)
    0x0800598c   0x0800598c   0x00000018   Code   RO          475    .text.dma_is_enabled_it_error  lib_platform.lib(at6010_dma.o)
    0x080059a4   0x080059a4   0x00000018   Code   RO          463    .text.dma_is_enabled_it_src_tran  lib_platform.lib(at6010_dma.o)
    0x080059bc   0x080059bc   0x0000001c   Code   RO          451    .text.dma_is_enabled_it_tfr  lib_platform.lib(at6010_dma.o)
    0x080059d8   0x080059d8   0x00000024   Code   RO          277    .text.dma_set_block_transfer_size  lib_platform.lib(at6010_dma.o)
    0x080059fc   0x080059fc   0x0000001c   Code   RO          423    .text.dma_set_channel_priority  lib_platform.lib(at6010_dma.o)
    0x08005a18   0x08005a18   0x00000020   Code   RO          419    .text.dma_set_channel_suspend  lib_platform.lib(at6010_dma.o)
    0x08005a38   0x08005a38   0x00000014   Code   RO          257    .text.dma_set_dst_addr  lib_platform.lib(at6010_dma.o)
    0x08005a4c   0x08005a4c   0x00000020   Code   RO          297    .text.dma_set_dst_addr_inc  lib_platform.lib(at6010_dma.o)
    0x08005a6c   0x08005a6c   0x00000024   Code   RO          289    .text.dma_set_dst_burst_length  lib_platform.lib(at6010_dma.o)
    0x08005a90   0x08005a90   0x00000020   Code   RO          369    .text.dma_set_dst_handshake_if  lib_platform.lib(at6010_dma.o)
    0x08005ab0   0x08005ab0   0x00000020   Code   RO          377    .text.dma_set_dst_handshake_polarity  lib_platform.lib(at6010_dma.o)
    0x08005ad0   0x08005ad0   0x00000020   Code   RO          361    .text.dma_set_dst_handshake_type  lib_platform.lib(at6010_dma.o)
    0x08005af0   0x08005af0   0x00000020   Code   RO          269    .text.dma_set_dst_linked_list_en  lib_platform.lib(at6010_dma.o)
    0x08005b10   0x08005b10   0x0000001c   Code   RO          393    .text.dma_set_dst_reload_en  lib_platform.lib(at6010_dma.o)
    0x08005b2c   0x08005b2c   0x0000001c   Code   RO          329    .text.dma_set_dst_scatter_cnt  lib_platform.lib(at6010_dma.o)
    0x08005b48   0x08005b48   0x00000020   Code   RO          325    .text.dma_set_dst_scatter_en  lib_platform.lib(at6010_dma.o)
    0x08005b68   0x08005b68   0x0000001c   Code   RO          333    .text.dma_set_dst_scatter_interval  lib_platform.lib(at6010_dma.o)
    0x08005b84   0x08005b84   0x00000014   Code   RO          351    .text.dma_set_dst_status_addr  lib_platform.lib(at6010_dma.o)
    0x08005b98   0x08005b98   0x0000001c   Code   RO          347    .text.dma_set_dst_status_update_en  lib_platform.lib(at6010_dma.o)
    0x08005bb4   0x08005bb4   0x0000001c   Code   RO          305    .text.dma_set_dst_tr_width  lib_platform.lib(at6010_dma.o)
    0x08005bd0   0x08005bd0   0x0000001c   Code   RO          385    .text.dma_set_fifo_mode  lib_platform.lib(at6010_dma.o)
    0x08005bec   0x08005bec   0x0000001c   Code   RO          389    .text.dma_set_flow_control_mode  lib_platform.lib(at6010_dma.o)
    0x08005c08   0x08005c08   0x00000020   Code   RO          281    .text.dma_set_flowctrl  lib_platform.lib(at6010_dma.o)
    0x08005c28   0x08005c28   0x0000001c   Code   RO          309    .text.dma_set_int_en  lib_platform.lib(at6010_dma.o)
    0x08005c44   0x08005c44   0x0000001c   Code   RO          261    .text.dma_set_linked_list_loc  lib_platform.lib(at6010_dma.o)
    0x08005c60   0x08005c60   0x00000020   Code   RO          401    .text.dma_set_lock_bus  lib_platform.lib(at6010_dma.o)
    0x08005c80   0x08005c80   0x00000020   Code   RO          409    .text.dma_set_lock_bus_level  lib_platform.lib(at6010_dma.o)
    0x08005ca0   0x08005ca0   0x00000020   Code   RO          405    .text.dma_set_lock_channel  lib_platform.lib(at6010_dma.o)
    0x08005cc0   0x08005cc0   0x00000020   Code   RO          413    .text.dma_set_lock_channel_level  lib_platform.lib(at6010_dma.o)
    0x08005ce0   0x08005ce0   0x0000001c   Code   RO          381    .text.dma_set_protection_control  lib_platform.lib(at6010_dma.o)
    0x08005cfc   0x08005cfc   0x00000014   Code   RO          253    .text.dma_set_src_addr  lib_platform.lib(at6010_dma.o)
    0x08005d10   0x08005d10   0x00000020   Code   RO          293    .text.dma_set_src_addr_inc  lib_platform.lib(at6010_dma.o)
    0x08005d30   0x08005d30   0x00000024   Code   RO          285    .text.dma_set_src_burst_length  lib_platform.lib(at6010_dma.o)
    0x08005d54   0x08005d54   0x00000020   Code   RO          317    .text.dma_set_src_gather_cnt  lib_platform.lib(at6010_dma.o)
    0x08005d74   0x08005d74   0x00000024   Code   RO          313    .text.dma_set_src_gather_en  lib_platform.lib(at6010_dma.o)
    0x08005d98   0x08005d98   0x00000028   Code   RO          321    .text.dma_set_src_gather_interval  lib_platform.lib(at6010_dma.o)
    0x08005dc0   0x08005dc0   0x00000024   Code   RO          365    .text.dma_set_src_handshake_if  lib_platform.lib(at6010_dma.o)
    0x08005de4   0x08005de4   0x00000024   Code   RO          373    .text.dma_set_src_handshake_polarity  lib_platform.lib(at6010_dma.o)
    0x08005e08   0x08005e08   0x00000024   Code   RO          357    .text.dma_set_src_handshake_type  lib_platform.lib(at6010_dma.o)
    0x08005e2c   0x08005e2c   0x00000024   Code   RO          265    .text.dma_set_src_linked_list_en  lib_platform.lib(at6010_dma.o)
    0x08005e50   0x08005e50   0x00000020   Code   RO          397    .text.dma_set_src_realod_en  lib_platform.lib(at6010_dma.o)
    0x08005e70   0x08005e70   0x00000018   Code   RO          341    .text.dma_set_src_status_addr  lib_platform.lib(at6010_dma.o)
    0x08005e88   0x08005e88   0x00000020   Code   RO          337    .text.dma_set_src_status_update_en  lib_platform.lib(at6010_dma.o)
    0x08005ea8   0x08005ea8   0x00000020   Code   RO          301    .text.dma_set_src_tr_width  lib_platform.lib(at6010_dma.o)
    0x08005ec8   0x08005ec8   0x00000074   Code   RO          796    .text.fft_adc_1d_fft_cfg  lib_radar.lib(at6010_fft.o)
    0x08005f3c   0x08005f3c   0x00000010   Code   RO          794    .text.fft_adc_1d_fft_enable  lib_radar.lib(at6010_fft.o)
    0x08005f4c   0x08005f4c   0x00000094   Code   RO          800    .text.fft_adc_2d_fft_cfg  lib_radar.lib(at6010_fft.o)
    0x08005fe0   0x08005fe0   0x00000014   Code   RO          798    .text.fft_adc_2d_fft_enable  lib_radar.lib(at6010_fft.o)
    0x08005ff4   0x08005ff4   0x00000024   Code   RO          792    .text.fft_adc_fft_addr_set  lib_radar.lib(at6010_fft.o)
    0x08006018   0x08006018   0x0000001c   Code   RO          790    .text.fft_adc_rdat_addr_set  lib_radar.lib(at6010_fft.o)
    0x08006034   0x08006034   0x00000054   Code   RO          788    .text.fft_adc_rdat_cfg  lib_radar.lib(at6010_fft.o)
    0x08006088   0x08006088   0x00000014   Code   RO          786    .text.fft_adc_rdat_enable  lib_radar.lib(at6010_fft.o)
    0x0800609c   0x0800609c   0x00000038   Code   RO          778    .text.fft_adc_win_cfg  lib_radar.lib(at6010_fft.o)
    0x080060d4   0x080060d4   0x00000030   Code   RO          776    .text.fft_adc_win_enable  lib_radar.lib(at6010_fft.o)
    0x08006104   0x08006104   0x00000014   Code   RO          780    .text.fft_dc_cut_enable  lib_radar.lib(at6010_fft.o)
    0x08006118   0x08006118   0x00000034   Code   RO          770    .text.fft_dev_deinit  lib_radar.lib(at6010_fft.o)
    0x0800614c   0x0800614c   0x00000038   Code   RO          766    .text.fft_dev_init  lib_radar.lib(at6010_fft.o)
    0x08006184   0x08006184   0x00000014   Code   RO          782    .text.fft_input_data_type_set  lib_radar.lib(at6010_fft.o)
    0x08006198   0x08006198   0x00000008   Code   RO          784    .text.fft_irq_callback_set  lib_radar.lib(at6010_fft.o)
    0x080061a0   0x080061a0   0x00000064   Code   RO          768    .text.fft_irq_enable  lib_radar.lib(at6010_fft.o)
    0x08006204   0x08006204   0x00000038   Code   RO          806    .text.fft_isr       lib_radar.lib(at6010_fft.o)
    0x0800623c   0x0800623c   0x00000070   Code   RO          802    .text.fft_user_fft_cfg  lib_radar.lib(at6010_fft.o)
    0x080062ac   0x080062ac   0x00000014   Code   RO          804    .text.fft_user_fft_start  lib_radar.lib(at6010_fft.o)
    0x080062c0   0x080062c0   0x00000024   Code   RO          774    .text.fft_user_win_cfg  lib_radar.lib(at6010_fft.o)
    0x080062e4   0x080062e4   0x0000001c   Code   RO          772    .text.fft_user_win_enable  lib_radar.lib(at6010_fft.o)
    0x08006300   0x08006300   0x0000006c   Code   RO          859    .text.fmcw_afc_freq_set  lib_radar.lib(at6010_radar.o)
    0x0800636c   0x0800636c   0x00000044   Code   RO          985    .text.pmu_clk_dcdc_set  lib_platform.lib(at6010_pmu.o)
    0x080063b0   0x080063b0   0x00000010   Code   RO          977    .text.pmu_por_osc_disable  lib_platform.lib(at6010_pmu.o)
    0x080063c0   0x080063c0   0x00000010   Code   RO          979    .text.pmu_rf_pwr_on  lib_platform.lib(at6010_pmu.o)
    0x080063d0   0x080063d0   0x00000018   Code   RO         1021    .text.pmu_set_dig_vcore  lib_platform.lib(at6010_pmu.o)
    0x080063e8   0x080063e8   0x00000008   Code   RO          865    .text.radar_ant_rx_num_get  lib_radar.lib(at6010_radar.o)
    0x080063f0   0x080063f0   0x0000000c   Code   RO          867    .text.radar_ant_rx_num_set  lib_radar.lib(at6010_radar.o)
    0x080063fc   0x080063fc   0x00000018   Code   RO          853    .text.radar_burst_init  lib_radar.lib(at6010_radar.o)
    0x08006414   0x08006414   0x0000013c   Code   RO          935    .text.radar_chirp_profile_config  lib_radar.lib(at6010_radar_frame.o)
    0x08006550   0x08006550   0x000000ec   Code   RO          847    .text.radar_deinit  lib_radar.lib(at6010_radar.o)
    0x0800663c   0x0800663c   0x00000018   Code   RO          951    .text.radar_faston_time_set  lib_radar.lib(at6010_radar_frame.o)
    0x08006654   0x08006654   0x00000078   Code   RO          907    .text.radar_filter_cfg  lib_radar.lib(at6010_radar_adc.o)
    0x080066cc   0x080066cc   0x0000002c   Code   RO          915    .text.radar_filter_dma_cfg  lib_radar.lib(at6010_radar_adc.o)
    0x080066f8   0x080066f8   0x00000070   Code   RO          941    .text.radar_frame_config  lib_radar.lib(at6010_radar_frame.o)
    0x08006768   0x08006768   0x00000014   Code   RO          953    .text.radar_frame_interval_get  lib_radar.lib(at6010_radar_frame.o)
    0x0800677c   0x0800677c   0x0000001c   Code   RO          955    .text.radar_frame_interval_set  lib_radar.lib(at6010_radar_frame.o)
    0x08006798   0x08006798   0x0000000c   Code   RO          959    .text.radar_frame_repeat_times_get  lib_radar.lib(at6010_radar_frame.o)
    0x080067a4   0x080067a4   0x0000001c   Code   RO          957    .text.radar_frame_repeat_times_set  lib_radar.lib(at6010_radar_frame.o)
    0x080067c0   0x080067c0   0x0000000c   Code   RO          947    .text.radar_frame_start  lib_radar.lib(at6010_radar_frame.o)
    0x080067cc   0x080067cc   0x0000000c   Code   RO          949    .text.radar_frame_stop  lib_radar.lib(at6010_radar_frame.o)
    0x080067d8   0x080067d8   0x00000018   Code   RO          945    .text.radar_frame_trigger_mode_set  lib_radar.lib(at6010_radar_frame.o)
    0x080067f0   0x080067f0   0x000003a8   Code   RO          851    .text.radar_init    lib_radar.lib(at6010_radar.o)
    0x08006b98   0x08006b98   0x00000038   Code   RO          821    .text.radar_isr     lib_radar.lib(at6010_radar.o)
    0x08006bd0   0x08006bd0   0x0000001c   Code   RO          825    .text.radar_lp_enter  lib_radar.lib(at6010_radar.o)
    0x08006bec   0x08006bec   0x00000014   Code   RO          827    .text.radar_lp_exit  lib_radar.lib(at6010_radar.o)
    0x08006c00   0x08006c00   0x00000024   Code   RO          823    .text.radar_lp_init  lib_radar.lib(at6010_radar.o)
    0x08006c24   0x08006c24   0x00000014   Code   RO          833    .text.radar_lp_pause  lib_radar.lib(at6010_radar.o)
    0x08006c38   0x08006c38   0x00000038   Code   RO          829    .text.radar_lp_resume  lib_radar.lib(at6010_radar.o)
    0x08006c70   0x08006c70   0x0000000c   Code   RO          831    .text.radar_lp_timer_get  lib_radar.lib(at6010_radar.o)
    0x08006c7c   0x08006c7c   0x0000000c   Code   RO          873    .text.radar_param_hpf1_freq_get  lib_radar.lib(at6010_radar.o)
    0x08006c88   0x08006c88   0x00000024   Code   RO          875    .text.radar_param_hpf1_freq_set  lib_radar.lib(at6010_radar.o)
    0x08006cac   0x08006cac   0x0000000c   Code   RO          869    .text.radar_param_hpf1_gain_get  lib_radar.lib(at6010_radar.o)
    0x08006cb8   0x08006cb8   0x00000028   Code   RO          871    .text.radar_param_hpf1_gain_set  lib_radar.lib(at6010_radar.o)
    0x08006ce0   0x08006ce0   0x0000000c   Code   RO          881    .text.radar_param_hpf2_freq_get  lib_radar.lib(at6010_radar.o)
    0x08006cec   0x08006cec   0x00000024   Code   RO          883    .text.radar_param_hpf2_freq_set  lib_radar.lib(at6010_radar.o)
    0x08006d10   0x08006d10   0x0000000c   Code   RO          877    .text.radar_param_hpf2_gain_get  lib_radar.lib(at6010_radar.o)
    0x08006d1c   0x08006d1c   0x00000028   Code   RO          879    .text.radar_param_hpf2_gain_set  lib_radar.lib(at6010_radar.o)
    0x08006d44   0x08006d44   0x0000000c   Code   RO          889    .text.radar_param_lpf_freq_get  lib_radar.lib(at6010_radar.o)
    0x08006d50   0x08006d50   0x00000028   Code   RO          891    .text.radar_param_lpf_freq_set  lib_radar.lib(at6010_radar.o)
    0x08006d78   0x08006d78   0x0000000c   Code   RO          885    .text.radar_param_lpf_gain_get  lib_radar.lib(at6010_radar.o)
    0x08006d84   0x08006d84   0x0000002c   Code   RO          887    .text.radar_param_lpf_gain_set  lib_radar.lib(at6010_radar.o)
    0x08006db0   0x08006db0   0x000001d8   Code   RO          843    .text.radar_rf_init  lib_radar.lib(at6010_radar.o)
    0x08006f88   0x08006f88   0x00000010   Code   RO          845    .text.radar_rf_pwr_off  lib_radar.lib(at6010_radar.o)
    0x08006f98   0x08006f98   0x00000010   Code   RO          841    .text.radar_rf_pwr_on  lib_radar.lib(at6010_radar.o)
    0x08006fa8   0x08006fa8   0x0000005c   Code   RO          855    .text.radar_rx_pf_cfg  lib_radar.lib(at6010_radar.o)
    0x08007004   0x08007004   0x00000080   Code   RO          939    .text.radar_subframe_profile_config  lib_radar.lib(at6010_radar_frame.o)
    0x08007084   0x08007084   0x00000020   Code   RO          937    .text.radar_tx_profile_config  lib_radar.lib(at6010_radar_frame.o)
    0x080070a4   0x080070a4   0x00000008   Code   RO          839    .text.radar_ulp_deinit  lib_radar.lib(at6010_radar.o)
    0x080070ac   0x080070ac   0x00000010   Code   RO          837    .text.radar_ulp_enter  lib_radar.lib(at6010_radar.o)
    0x080070bc   0x080070bc   0x00000010   Code   RO          835    .text.radar_ulp_init  lib_radar.lib(at6010_radar.o)
    0x080070cc   0x080070cc   0x0000000c   Ven    RO         1383    Veneer$$Code        anon$$obj.o
    0x080070d8   0x080070d8   0x0000000c   Ven    RO         1384    Veneer$$Code        anon$$obj.o
    0x080070e4   0x080070e4   0x00000030   Code   RO         1203    i.__ARM_common_ll_muluu  c_p.l(btod.o)
    0x08007114   0x08007114   0x0000002c   Code   RO         1214    i.__ARM_fpclassify  m_ps.l(fpclassify.o)
    0x08007140   0x08007140   0x00000016   Code   RO         1090    i._dgr              fz_ps.l(dcmp.o)
    0x08007156   0x08007156   0x0000001a   Code   RO         1091    i._dleq             fz_ps.l(dcmp.o)
    0x08007170   0x08007170   0x00000016   Code   RO         1092    i._dls              fz_ps.l(dcmp.o)
    0x08007186   0x08007186   0x0000000e   Code   RO         1056    i._is_digit         c_p.l(__printf_wp.o)
    0x08007194   0x08007194   0x00000048   Code   RO         1118    i.sqrt              m_ps.l(sqrt.o)
    0x080071dc   0x080071dc   0x0000002c   Code   RO         1208    locale$$code        c_p.l(lc_numeric_c.o)
    0x08007208   0x08007208   0x00000064   Code   RO         1153    x$fpl$dgeqf         fz_ps.l(dgef.o)
    0x0800726c   0x0800726c   0x00000064   Code   RO         1155    x$fpl$dleqf         fz_ps.l(dlef.o)
    0x080072d0   0x080072d0   0x000000b0   Code   RO         1113    x$fpl$fmul          fz_ps.l(fmul.o)
    0x08007380   0x08007380   0x00000010   Code   RO         1115    x$fpl$printf1       fz_ps.l(printf1.o)
    0x08007390   0x08007390   0x00000000   Code   RO         1159    x$fpl$usenofp       fz_ps.l(usenofp.o)
    0x08007390   0x08007390   0x00000040   Data   RO         1109    .constdata          fz_ps.l(fdiv.o)
    0x080073d0   0x080073d0   0x00000094   Data   RO         1199    .constdata          c_p.l(bigflt0.o)
    0x08007464   0x08007464   0x00000004   PAD
    0x08007468   0x08007468   0x00000008   Data   RO           32    .rodata..L__const.adc_fft_win_cfg.win_cfg  range_fft_base_main.o
    0x08007470   0x08007470   0x00000144   Data   RO           90    .rodata..L__const.radar_fmcw_cfg.profile  radar_cfg_hal.o
    0x080075b4   0x080075b4   0x00000004   Data   RO          516    .rodata.cst4        lib_platform.lib(at6010_dma.o)
    0x080075b8   0x080075b8   0x00000008   Data   RO          515    .rodata.cst8        lib_platform.lib(at6010_dma.o)
    0x080075c0   0x080075c0   0x00000008   Data   RO          897    .rodata.cst8        lib_radar.lib(at6010_radar.o)
    0x080075c8   0x080075c8   0x0000000c   Data   RO          149    .rodata.m_uart_hwd  at6010_uart.o
    0x080075d4   0x080075d4   0x00000048   Data   RO          100    .rodata.radar_param_func  hal_radar.o
    0x0800761c   0x0800761c   0x0000007c   Data   RO           30    .rodata.str1.1      range_fft_base_main.o
    0x08007698   0x08007698   0x000001b7   Data   RO          129    .rodata.str1.1      hal_dma.o
    0x0800784f   0x0800784f   0x00000001   PAD
    0x08007850   0x08007850   0x00000050   Data   RO         1374    Region$$Table       anon$$obj.o
    0x080078a0   0x080078a0   0x0000001c   Data   RO         1207    locale$$data        c_p.l(lc_numeric_c.o)


    Execution Region ARM_LIB_STACK (Exec base: 0x20000000, Load base: 0x080078c0, Size: 0x00001000, Max: 0x00001000, ABSOLUTE)

    Exec Addr    Load Addr    Size         Type   Attr      Idx    E Section Name        Object

    0x20000000        -       0x00001000   Zero   RW            1    ARM_LIB_STACK.bss   anon$$obj.o


    Execution Region RW_RAM (Exec base: 0x20001000, Load base: 0x080078c0, Size: 0x000002f0, Max: 0xffffffff, ABSOLUTE)

    Exec Addr    Load Addr    Size         Type   Attr      Idx    E Section Name        Object

    0x20001000   0x080078c0   0x00000044   Code   RO          189    .ram_region         cpu-at601x.o
    0x20001044   0x08007904   0x00000004   Data   RW           45    .data.SystemCoreClock  system_cmsdk_cm0plus.o
    0x20001048   0x08007908   0x00000004   Data   RW           56    .data.m_clk_inst.0.0  hal_clock.o
    0x2000104c   0x0800790c   0x00000004   Data   RW           57    .data.m_clk_inst.0.1  hal_clock.o
    0x20001050   0x08007910   0x00000010   Data   RW          212    .data.m_dualtimer_dev  at6010_dualtimer.o
    0x20001060   0x08007920   0x00000001   Data   RW          894    .data.m_lp_timer_id  lib_radar.lib(at6010_radar.o)
    0x20001061   0x08007921   0x00000003   PAD
    0x20001064   0x08007924   0x00000020   Data   RW          202    .data.m_timer_dev   at6010_timer.o
    0x20001084   0x08007944   0x00000004   PAD
    0x20001088        -       0x00000060   Zero   RW         1217    .bss                c_p.l(libspace.o)
    0x200010e8        -       0x00000054   Zero   RW           14    .bss.__stdout       retarget.o
    0x2000113c        -       0x00000070   Zero   RW           79    .bss._fft_handle    hal_fft.o
    0x200011ac        -       0x00000004   Zero   RW          191    .bss._irqs_disabled_counter  cpu-at601x.o
    0x200011b0        -       0x00000004   Zero   RW          192    .bss._irqs_disabled_flag  cpu-at601x.o
    0x200011b4        -       0x00000004   Zero   RW          757    .bss.cfar_dev_irq_cb  lib_radar.lib(at6010_cfar.o)
    0x200011b8        -       0x00000004   Zero   RW          808    .bss.fft_dev_irq_cb  lib_radar.lib(at6010_fft.o)
    0x200011bc        -       0x00000004   Zero   RW           29    .bss.fifo_state     range_fft_base_main.o
    0x200011c0        -       0x00000064   Zero   RW          222    .bss.hdmax          output_config.o
    0x20001224        -       0x00000001   Zero   RW           54    .bss.m_clk_inst.1   hal_clock.o
    0x20001225   0x08007944   0x00000003   PAD
    0x20001228        -       0x00000001   Zero   RW           55    .bss.m_clk_inst.2   hal_clock.o
    0x20001229   0x08007944   0x00000003   PAD
    0x2000122c        -       0x00000004   Zero   RW          161    .bss.m_clk_mcu      at6010_clock.o
    0x20001230        -       0x00000040   Zero   RW          179    .bss.m_gpio_hdl     at6010_gpio.o
    0x20001270        -       0x00000001   Zero   RW          895    .bss.m_lp_timer_en  lib_radar.lib(at6010_radar.o)
    0x20001271   0x08007944   0x00000003   PAD
    0x20001274        -       0x00000004   Zero   RW          893    .bss.m_radar_cb     lib_radar.lib(at6010_radar.o)
    0x20001278        -       0x00000001   Zero   RW          896    .bss.m_rx_num       lib_radar.lib(at6010_radar.o)
    0x20001279        -       0x0000000c   Zero   RW          110    .bss.m_timer_cfg    hal_timer.o
    0x20001285   0x08007944   0x00000003   PAD
    0x20001288        -       0x00000048   Zero   RW          150    .bss.m_uart_hdl     at6010_uart.o
    0x200012d0        -       0x00000003   Zero   RW           68    .bss.m_uart_state   hal_uart.o
    0x200012d3        -       0x00000001   Zero   RW          898    .bss.m_vco_cap      lib_radar.lib(at6010_radar.o)
    0x200012d4        -       0x00000004   Zero   RW           28    .bss.range_fft_buffer  range_fft_base_main.o
    0x200012d8        -       0x00000018   Zero   RW          223    .bss.uart_handle    output_config.o
    0x200012f0        -       0x00000000   Zero   RW            4    HEAP                startup_cmsdk_cm0plus.o
    0x200012f0        -       0x00000000   Zero   RW            3    STACK               startup_cmsdk_cm0plus.o


    Execution Region ARM_LIB_HEAP (Exec base: 0x2000f000, Load base: 0x08007948, Size: 0x00001000, Max: 0x00001000, ABSOLUTE)

    Exec Addr    Load Addr    Size         Type   Attr      Idx    E Section Name        Object

    0x2000f000        -       0x00001000   Zero   RW            2    ARM_LIB_HEAP.bss    anon$$obj.o


    Execution Region RADAR_RAM (Exec base: 0x20010000, Load base: 0x08007960, Size: 0x00000518, Max: 0xffffffff, ABSOLUTE, COMPRESSED[0x0000000c])

    Exec Addr    Load Addr    Size         Type   Attr      Idx    E Section Name        Object

    0x20010000   COMPRESSED   0x00000518   Data   RW           27    .radar_mem          range_fft_base_main.o


    Execution Region FFT_WIN_RAM (Exec base: 0x40011000, Load base: 0x08007974, Size: 0x00000400, Max: 0x00001000, ABSOLUTE)

    Exec Addr    Load Addr    Size         Type   Attr      Idx    E Section Name        Object

    0x40011000   COMPRESSED   0x00000400   Data   RW           31    .fft_win_mem        range_fft_base_main.o


==============================================================================

Image component sizes


      Code (inc. data)   RO Data    RW Data    ZI Data      Debug   Object Name

      1440        232          0          0          4       7991   at6010_clock.o
       312         44          0         16          0       3912   at6010_dualtimer.o
      1168        134          0          0         64      17205   at6010_gpio.o
       100          0          0          0          0       2199   at6010_irq.o
       340         64          0         32          0       5390   at6010_timer.o
       820        194         12          0         72      10007   at6010_uart.o
        68         16          0          0          8       1162   cpu-at601x.o
       128         28          0          0          0       2208   frame_header.o
       404         84          0          8          2       3676   hal_clock.o
      3638        322        439          0          0      10114   hal_dma.o
       384         32          0          0          0       5407   hal_dualtimer.o
      1276         52          0          0        112       9374   hal_fft.o
       844         40         72          0          0       9711   hal_radar.o
       476         62          0          0         12       3898   hal_timer.o
       636         56          0          0          3      12191   hal_uart.o
       268         36          0          0        124       6351   output_config.o
        72         32        324          0          0       2220   radar_cfg_hal.o
      1116        120        132       2328          8       9468   range_fft_base_main.o
       112          0          0          0         84       3287   retarget.o
        48         18        192          0          0        712   startup_cmsdk_cm0plus.o
        68         24          0          4          0       2655   system_cmsdk_cm0plus.o

    ----------------------------------------------------------------------
     13744       1598       1252       2388       8698     129138   Object Totals
        24          8         80          0       8192          0   (incl. Generated)
         2          0          1          0         13          0   (incl. Padding)

    ----------------------------------------------------------------------

      Code (inc. data)   RO Data    RW Data    ZI Data      Debug   Library Member Name

        58          0          0          0          0          0   __dczerorl.o
         8          0          0          0          0         68   __main.o
       284          0          0          0          0        136   __printf_wp.o
         0          0          0          0          0          0   __rtentry.o
        12          0          0          0          0          0   __rtentry2.o
         8          4          0          0          0          0   __rtentry7.o
        60          8          0          0          0          0   __scatter.o
        26          0          0          0          0          0   __scatter_copy.o
        28          0          0          0          0          0   __scatter_zi.o
        46          0          0          0          0        100   _printf_char.o
        48          6          0          0          0         88   _printf_char_common.o
        40          6          0          0          0         72   _printf_char_file.o
        10          0          0          0          0          0   _printf_d.o
       108         18          0          0          0         76   _printf_dec.o
        10          0          0          0          0          0   _printf_f.o
      1044         12          0          0          0        116   _printf_fp_dec.o
       136         16          0          0          0         76   _printf_fp_infnan.o
       176          0          0          0          0         84   _printf_intcommon.o
         2          0          0          0          0          0   _printf_percent.o
         4          0          0          0          0          0   _printf_percent_end.o
        10          0          0          0          0          0   _printf_s.o
        82          0          0          0          0         72   _printf_str.o
        22          0          0          0          0         92   _rserrno.o
       346          0          0          0          0         92   aeabi_sdiv.o
       216          6        148          0          0         80   bigflt0.o
      1456         30          0          0          0        336   btod.o
        16          0          0          0          0         68   exit.o
         6          0          0          0          0        136   heapauxi.o
        44         10         28          0          0         76   lc_numeric_c.o
         2          0          0          0          0          0   libinit.o
        18          0          0          0          0          0   libinit2.o
         2          0          0          0          0          0   libshutdown.o
         2          0          0          0          0          0   libshutdown2.o
         0          0          0          0         96          0   libspace.o
       258          0          0          0          0         88   lludiv.o
       122          0          0          0          0         72   lludiv10.o
        28          6          0          0          0         84   noretval__2printf.o
        44          6          0          0          0         68   puts.o
         8          4          0          0          0         68   rt_errno_addr_intlibspace.o
         8          4          0          0          0         68   rt_locale_intlibspace.o
        64          0          0          0          0        108   rt_memclr.o
       186          0          0          0          0        144   rt_memcpy.o
         2          0          0          0          0          0   rtexit.o
        10          0          0          0          0          0   rtexit2.o
        40          0          0          0          0         60   rtudiv10.o
       136          4          0          0          0         72   strcmp.o
         2          0          0          0          0         68   use_no_semi.o
         2          0          0          0          0         68   use_no_semi_2.o
        46          0          0          0          0         60   cmpret.o
       856         20          0          0          0        208   daddsub.o
        70          0          0          0          0        204   dcmp.o
       160          6          0          0          0         76   dcmpin.o
        72          4          0          0          0         68   dfixui.o
        88          0          0          0          0         92   dflti.o
       100          4          0          0          0         92   dgef.o
       100          4          0          0          0         92   dlef.o
       584         26          0          0          0         84   dmul.o
        20          6          0          0          0         68   dnan2.o
       256          8          0          0          0         76   dsqrt.o
        84          4          0          0          0         60   f2d.o
       352         10         64          0          0         92   fdiv.o
        94          0          0          0          0         92   fflti.o
       176          4          0          0          0         80   fmul.o
        16          4          0          0          0         76   printf1.o
        94          0          0          0          0         68   retnan.o
         0          0          0          0          0          0   usenofp.o
        80         20          0          0          0       1135   at6010_cache.o
      1966         68         12          0          0      35462   at6010_dma.o
       124         16          0          0          0       7996   at6010_pmu.o
       260         36          0          0          4       4975   at6010_cfar.o
      1080        116          0          0          4       8988   at6010_fft.o
      2496        152          8          1          7      16273   at6010_radar.o
       164          8          0          0          0       6773   at6010_radar_adc.o
       748         48          0          0          0       7917   at6010_radar_frame.o
        44          4          0          0          0         60   fpclassify.o
        72          6          0          0          0         76   sqrt.o

    ----------------------------------------------------------------------
     15460        714        264          4        114      93979   Library Totals
        18          0          4          3          3          0   (incl. Padding)

    ----------------------------------------------------------------------

      Code (inc. data)   RO Data    RW Data    ZI Data      Debug   Library Name

      5240        140        176          0         96       2736   c_p.l
      3168        100         64          0          0       1588   fz_ps.l
      2170        104         12          0          0      44593   lib_platform.lib
      4748        360          8          1         15      44926   lib_radar.lib
       116         10          0          0          0        136   m_ps.l

    ----------------------------------------------------------------------
     15460        714        264          4        114      93979   Library Totals

    ----------------------------------------------------------------------

==============================================================================


      Code (inc. data)   RO Data    RW Data    ZI Data      Debug   

     29204       2312       1516       2392       8812     220565   Grand Totals
     29204       2312       1516       1100       8812     220565   ELF Image Totals (compressed)
     29204       2312       1516       1100          0          0   ROM Totals

==============================================================================

    Total RO  Size (Code + RO Data)                30720 (  30.00kB)
    Total RW  Size (RW Data + ZI Data)             11204 (  10.94kB)
    Total ROM Size (Code + RO Data + RW Data)      31820 (  31.07kB)

==============================================================================

