
========================================================================

** ELF Header Information

    File Name: D:\RadarProject\at6010_sdk_v0.4.2_beta_20240802_20250318\examples\dpu\range_fft\range_fft_base\mdk\out\range_fft_base.axf

    Machine class: ELFCLASS32 (32-bit)
    Data encoding: ELFDATA2LSB (Little endian)
    Header version: EV_CURRENT (Current version)
    Operating System ABI: none
    ABI Version: 0
    File Type: ET_EXEC (Executable) (2)
    Machine: EM_ARM (ARM)

    Image Entry point: 0x080001c1
    Flags: EF_ARM_HASENTRY + EF_ARM_ABI_FLOAT_SOFT (0x05000202)

    ARM ELF revision: 5 (ABI version 2)

    Conforms to Soft float procedure-call standard

    Built with
    Component: ARM Compiler 6.12 Tool: armasm [5d624500]
    Component: ARM Compiler 6.12 Tool: armlink [5d624300]

    Header size: 52 bytes (0x34)
    Program header entry size: 32 bytes (0x20)
    Section header entry size: 40 bytes (0x28)

    Program header entries: 1
    Section header entries: 21

    Program header offset: 298956 (0x00048fcc)
    Section header offset: 298988 (0x00048fec)

    Section header string table index: 20

========================================================================

** Program header #0 (PT_LOAD) [PF_X + PF_W + PF_R + PF_ARM_ENTRY]
    Size : 41480 bytes (31380 bytes in file)
    Virtual address: 0x08000100 (Alignment 32)


========================================================================

** Section #1 'ER_IROM1' (SHT_PROGBITS) [SHF_ALLOC + SHF_EXECINSTR]
    Size   : 30188 bytes (alignment 8)
    Address: 0x08000100

    $d.realdata
    RESET
    __Vectors
        0x08000100:    200012f0    ...     DCD    536875760
        0x08000104:    080002d1    ....    DCD    134218449
        0x08000108:    08002e69    i...    DCD    134229609
        0x0800010c:    08002e6b    k...    DCD    134229611
        0x08000110:    00000000    ....    DCD    0
        0x08000114:    00000000    ....    DCD    0
        0x08000118:    00000000    ....    DCD    0
        0x0800011c:    00000000    ....    DCD    0
        0x08000120:    00000000    ....    DCD    0
        0x08000124:    00000000    ....    DCD    0
        0x08000128:    00000000    ....    DCD    0
        0x0800012c:    08002e6d    m...    DCD    134229613
        0x08000130:    00000000    ....    DCD    0
        0x08000134:    00000000    ....    DCD    0
        0x08000138:    08002e6f    o...    DCD    134229615
        0x0800013c:    08002e71    q...    DCD    134229617
        0x08000140:    08002e73    s...    DCD    134229619
        0x08000144:    08002e7d    }...    DCD    134229629
        0x08000148:    08002e87    ....    DCD    134229639
        0x0800014c:    08002e91    ....    DCD    134229649
        0x08000150:    08002e9b    ....    DCD    134229659
        0x08000154:    08002ea3    ....    DCD    134229667
        0x08000158:    08002ea5    ....    DCD    134229669
        0x0800015c:    08002ea7    ....    DCD    134229671
        0x08000160:    08002ea9    ....    DCD    134229673
        0x08000164:    08002eab    ....    DCD    134229675
        0x08000168:    08002ead    ....    DCD    134229677
        0x0800016c:    08002eaf    ....    DCD    134229679
        0x08000170:    080002e3    ....    DCD    134218467
        0x08000174:    08002eb1    ....    DCD    134229681
        0x08000178:    08002eb3    ....    DCD    134229683
        0x0800017c:    080002e3    ....    DCD    134218467
        0x08000180:    080002e3    ....    DCD    134218467
        0x08000184:    08002ebb    ....    DCD    134229691
        0x08000188:    080002e3    ....    DCD    134218467
        0x0800018c:    080002e3    ....    DCD    134218467
        0x08000190:    080002e3    ....    DCD    134218467
        0x08000194:    080002e3    ....    DCD    134218467
        0x08000198:    080002e3    ....    DCD    134218467
        0x0800019c:    080002e3    ....    DCD    134218467
        0x080001a0:    08002ebd    ....    DCD    134229693
        0x080001a4:    08002ebf    ....    DCD    134229695
        0x080001a8:    08002ec1    ....    DCD    134229697
        0x080001ac:    08002ec3    ....    DCD    134229699
        0x080001b0:    08002ec5    ....    DCD    134229701
        0x080001b4:    08002ec7    ....    DCD    134229703
        0x080001b8:    08002ec9    ....    DCD    134229705
        0x080001bc:    08002ecb    ....    DCD    134229707
    $t
    !!!main
    __Vectors_End
    __main
        0x080001c0:    f000f802    ....    BL       __scatterload ; 0x80001c8
        0x080001c4:    f000f858    ..X.    BL       __rt_entry ; 0x8000278
    !!!scatter
    __scatterload
    __scatterload_rt2
    __scatterload_rt2_thumb_only
        0x080001c8:    a00c        ..      ADR      r0,{pc}+0x34 ; 0x80001fc
        0x080001ca:    c830        0.      LDM      r0!,{r4,r5}
        0x080001cc:    3808        .8      SUBS     r0,r0,#8
        0x080001ce:    1824        $.      ADDS     r4,r4,r0
        0x080001d0:    182d        -.      ADDS     r5,r5,r0
        0x080001d2:    1e67        g.      SUBS     r7,r4,#1
        0x080001d4:    46a2        .F      MOV      r10,r4
        0x080001d6:    46ab        .F      MOV      r11,r5
    __scatterload_null
        0x080001d8:    4654        TF      MOV      r4,r10
        0x080001da:    465d        ]F      MOV      r5,r11
        0x080001dc:    42ac        .B      CMP      r4,r5
        0x080001de:    d101        ..      BNE      0x80001e4 ; __scatterload_null + 12
        0x080001e0:    f000f84a    ..J.    BL       __rt_entry ; 0x8000278
        0x080001e4:    467e        ~F      MOV      r6,pc
        0x080001e6:    3e0f        .>      SUBS     r6,r6,#0xf
        0x080001e8:    46b6        .F      MOV      lr,r6
        0x080001ea:    cc0f        ..      LDM      r4!,{r0-r3}
        0x080001ec:    2601        .&      MOVS     r6,#1
        0x080001ee:    4233        3B      TST      r3,r6
        0x080001f0:    d000        ..      BEQ      0x80001f4 ; __scatterload_null + 28
        0x080001f2:    1afb        ..      SUBS     r3,r7,r3
        0x080001f4:    4333        3C      ORRS     r3,r3,r6
        0x080001f6:    46a2        .F      MOV      r10,r4
        0x080001f8:    46ab        .F      MOV      r11,r5
        0x080001fa:    4718        .G      BX       r3
    $d
        0x080001fc:    00007484    .t..    DCD    29828
        0x08000200:    000074d4    .t..    DCD    29908
    $t
    !!handler_copy
    __scatterload_copy
        0x08000204:    3a10        .:      SUBS     r2,r2,#0x10
        0x08000206:    d302        ..      BCC      0x800020e ; __scatterload_copy + 10
        0x08000208:    c878        x.      LDM      r0!,{r3-r6}
        0x0800020a:    c178        x.      STM      r1!,{r3-r6}
        0x0800020c:    d8fa        ..      BHI      __scatterload_copy ; 0x8000204
        0x0800020e:    0752        R.      LSLS     r2,r2,#29
        0x08000210:    d301        ..      BCC      0x8000216 ; __scatterload_copy + 18
        0x08000212:    c830        0.      LDM      r0!,{r4,r5}
        0x08000214:    c130        0.      STM      r1!,{r4,r5}
        0x08000216:    d501        ..      BPL      0x800021c ; __scatterload_copy + 24
        0x08000218:    6804        .h      LDR      r4,[r0,#0]
        0x0800021a:    600c        .`      STR      r4,[r1,#0]
        0x0800021c:    4770        pG      BX       lr
        0x0800021e:    0000        ..      MOVS     r0,r0
    !!handler_zi
    __scatterload_zeroinit
        0x08000220:    2300        .#      MOVS     r3,#0
        0x08000222:    2400        .$      MOVS     r4,#0
        0x08000224:    2500        .%      MOVS     r5,#0
        0x08000226:    2600        .&      MOVS     r6,#0
        0x08000228:    3a10        .:      SUBS     r2,r2,#0x10
        0x0800022a:    d301        ..      BCC      0x8000230 ; __scatterload_zeroinit + 16
        0x0800022c:    c178        x.      STM      r1!,{r3-r6}
        0x0800022e:    d8fb        ..      BHI      0x8000228 ; __scatterload_zeroinit + 8
        0x08000230:    0752        R.      LSLS     r2,r2,#29
        0x08000232:    d300        ..      BCC      0x8000236 ; __scatterload_zeroinit + 22
        0x08000234:    c130        0.      STM      r1!,{r4,r5}
        0x08000236:    d500        ..      BPL      0x800023a ; __scatterload_zeroinit + 26
        0x08000238:    600b        .`      STR      r3,[r1,#0]
        0x0800023a:    4770        pG      BX       lr
    .ARM.Collect$$_printf_percent$$00000000
    _printf_percent
        0x0800023c:    b510        ..      PUSH     {r4,lr}
    .ARM.Collect$$_printf_percent$$00000003
    _printf_f
        0x0800023e:    2966        f)      CMP      r1,#0x66
        0x08000240:    d102        ..      BNE      _printf_d ; 0x8000248
        0x08000242:    f006ffc5    ....    BL       _printf_fp_dec ; 0x80071d0
        0x08000246:    bd10        ..      POP      {r4,pc}
    .ARM.Collect$$_printf_percent$$00000009
    _printf_d
        0x08000248:    2964        d)      CMP      r1,#0x64
        0x0800024a:    d102        ..      BNE      _printf_s ; 0x8000252
        0x0800024c:    f003fb82    ....    BL       _printf_int_dec ; 0x8003954
        0x08000250:    bd10        ..      POP      {r4,pc}
    .ARM.Collect$$_printf_percent$$00000014
    _printf_s
        0x08000252:    2973        s)      CMP      r1,#0x73
        0x08000254:    d102        ..      BNE      _printf_percent_end ; 0x800025c
        0x08000256:    f004fb86    ....    BL       _printf_string ; 0x8004966
        0x0800025a:    bd10        ..      POP      {r4,pc}
    .ARM.Collect$$_printf_percent$$00000017
    _printf_percent_end
        0x0800025c:    2000        .       MOVS     r0,#0
        0x0800025e:    bd10        ..      POP      {r4,pc}
    .ARM.Collect$$libinit$$00000000
    __rt_lib_init
        0x08000260:    b51f        ..      PUSH     {r0-r4,lr}
    .ARM.Collect$$libinit$$00000002
    .ARM.Collect$$libinit$$00000004
    .ARM.Collect$$libinit$$0000000A
    .ARM.Collect$$libinit$$0000000C
    .ARM.Collect$$libinit$$0000000E
    .ARM.Collect$$libinit$$0000000F
    __rt_lib_init_fp_1
    __rt_lib_init_heap_1
    __rt_lib_init_lc_common
    __rt_lib_init_preinit_1
    __rt_lib_init_rand_1
    __rt_lib_init_user_alloc_1
        0x08000262:    f004fc2d    ..-.    BL       __rt_locale ; 0x8004ac0
        0x08000266:    0004        ..      MOVS     r4,r0
    .ARM.Collect$$libinit$$00000011
    .ARM.Collect$$libinit$$00000013
    .ARM.Collect$$libinit$$00000015
    .ARM.Collect$$libinit$$00000016
    __rt_lib_init_lc_collate_1
    __rt_lib_init_lc_ctype_1
    __rt_lib_init_lc_monetary_1
    __rt_lib_init_lc_numeric_2
        0x08000268:    2000        .       MOVS     r0,#0
        0x0800026a:    2100        .!      MOVS     r1,#0
        0x0800026c:    f006fede    ....    BL       _get_lc_numeric ; 0x800702c
        0x08000270:    60e0        .`      STR      r0,[r4,#0xc]
    .ARM.Collect$$libinit$$00000017
    .ARM.Collect$$libinit$$00000019
    .ARM.Collect$$libinit$$0000001B
    .ARM.Collect$$libinit$$0000001D
    .ARM.Collect$$libinit$$0000001F
    .ARM.Collect$$libinit$$00000021
    .ARM.Collect$$libinit$$00000023
    .ARM.Collect$$libinit$$00000025
    .ARM.Collect$$libinit$$0000002C
    .ARM.Collect$$libinit$$0000002E
    .ARM.Collect$$libinit$$00000030
    .ARM.Collect$$libinit$$00000032
    .ARM.Collect$$libinit$$00000033
    __rt_lib_init_alloca_1
    __rt_lib_init_argv_1
    __rt_lib_init_atexit_1
    __rt_lib_init_clock_1
    __rt_lib_init_cpp_1
    __rt_lib_init_exceptions_1
    __rt_lib_init_fp_trap_1
    __rt_lib_init_getenv_1
    __rt_lib_init_lc_numeric_1
    __rt_lib_init_lc_time_1
    __rt_lib_init_return
    __rt_lib_init_signal_1
    __rt_lib_init_stdio_1
        0x08000272:    bd1f        ..      POP      {r0-r4,pc}
    .ARM.Collect$$libshutdown$$00000000
    __rt_lib_shutdown
        0x08000274:    b510        ..      PUSH     {r4,lr}
    .ARM.Collect$$libshutdown$$00000002
    .ARM.Collect$$libshutdown$$00000004
    .ARM.Collect$$libshutdown$$00000007
    .ARM.Collect$$libshutdown$$0000000A
    .ARM.Collect$$libshutdown$$0000000C
    .ARM.Collect$$libshutdown$$0000000F
    .ARM.Collect$$libshutdown$$00000010
    __rt_lib_shutdown_cpp_1
    __rt_lib_shutdown_fp_trap_1
    __rt_lib_shutdown_heap_1
    __rt_lib_shutdown_return
    __rt_lib_shutdown_signal_1
    __rt_lib_shutdown_stdio_1
    __rt_lib_shutdown_user_alloc_1
        0x08000276:    bd10        ..      POP      {r4,pc}
    .ARM.Collect$$rtentry$$00000000
    .ARM.Collect$$rtentry$$00000002
    .ARM.Collect$$rtentry$$00000007
    __rt_entry
    __rt_entry_presh_1
    __rt_entry_sh
        0x08000278:    4803        .H      LDR      r0,__lit__00000000 ; [0x8000288] = 0x20001000
        0x0800027a:    4685        .F      MOV      sp,r0
    .ARM.Collect$$rtentry$$00000009
    .ARM.Collect$$rtentry$$0000000A
    __rt_entry_li
    __rt_entry_postsh_1
        0x0800027c:    f7fffff0    ....    BL       __rt_lib_init ; 0x8000260
    .ARM.Collect$$rtentry$$0000000C
    .ARM.Collect$$rtentry$$0000000D
    __rt_entry_main
    __rt_entry_postli_1
        0x08000280:    f000f8b6    ....    BL       main ; 0x80003f0
        0x08000284:    f005f83a    ..:.    BL       exit ; 0x80052fc
    $d
    .ARM.Collect$$rtentry$$00002718
    __lit__00000000
        0x08000288:    20001000    ...     DCD    536875008
    $t
    .ARM.Collect$$rtexit$$00000000
    __rt_exit
        0x0800028c:    b403        ..      PUSH     {r0,r1}
    .ARM.Collect$$rtexit$$00000002
    .ARM.Collect$$rtexit$$00000003
    __rt_exit_ls
    __rt_exit_prels_1
        0x0800028e:    f7fffff1    ....    BL       __rt_lib_shutdown ; 0x8000274
    .ARM.Collect$$rtexit$$00000004
    __rt_exit_exit
        0x08000292:    bc03        ..      POP      {r0,r1}
        0x08000294:    f000f861    ..a.    BL       _sys_exit ; 0x800035a
    .emb_text
    __aeabi_memcpy4
    __aeabi_memcpy8
        0x08000298:    b570        p.      PUSH     {r4-r6,lr}
        0x0800029a:    4605        .F      MOV      r5,r0
        0x0800029c:    460c        .F      MOV      r4,r1
        0x0800029e:    4616        .F      MOV      r6,r2
        0x080002a0:    e002        ..      B        0x80002a8 ; __aeabi_memcpy4 + 16
        0x080002a2:    cc0f        ..      LDM      r4!,{r0-r3}
        0x080002a4:    c50f        ..      STM      r5!,{r0-r3}
        0x080002a6:    3e10        .>      SUBS     r6,r6,#0x10
        0x080002a8:    2e10        ..      CMP      r6,#0x10
        0x080002aa:    d2fa        ..      BCS      0x80002a2 ; __aeabi_memcpy4 + 10
        0x080002ac:    2e08        ..      CMP      r6,#8
        0x080002ae:    d302        ..      BCC      0x80002b6 ; __aeabi_memcpy4 + 30
        0x080002b0:    cc03        ..      LDM      r4!,{r0,r1}
        0x080002b2:    c503        ..      STM      r5!,{r0,r1}
        0x080002b4:    3e08        .>      SUBS     r6,r6,#8
        0x080002b6:    2e04        ..      CMP      r6,#4
        0x080002b8:    d307        ..      BCC      0x80002ca ; __aeabi_memcpy4 + 50
        0x080002ba:    cc01        ..      LDM      r4!,{r0}
        0x080002bc:    c501        ..      STM      r5!,{r0}
        0x080002be:    1f36        6.      SUBS     r6,r6,#4
        0x080002c0:    e003        ..      B        0x80002ca ; __aeabi_memcpy4 + 50
        0x080002c2:    7821        !x      LDRB     r1,[r4,#0]
        0x080002c4:    7029        )p      STRB     r1,[r5,#0]
        0x080002c6:    1c64        d.      ADDS     r4,r4,#1
        0x080002c8:    1c6d        m.      ADDS     r5,r5,#1
        0x080002ca:    1e76        v.      SUBS     r6,r6,#1
        0x080002cc:    d2f9        ..      BCS      0x80002c2 ; __aeabi_memcpy4 + 42
        0x080002ce:    bd70        p.      POP      {r4-r6,pc}
    .text
    Reset_Handler
        0x080002d0:    4807        .H      LDR      r0,[pc,#28] ; [0x80002f0] = 0x8000731
        0x080002d2:    4780        .G      BLX      r0
        0x080002d4:    4807        .H      LDR      r0,[pc,#28] ; [0x80002f4] = 0x80001c1
        0x080002d6:    4700        .G      BX       r0
        0x080002d8:    e7fe        ..      B        0x80002d8 ; Reset_Handler + 8
        0x080002da:    e7fe        ..      B        0x80002da ; Reset_Handler + 10
        0x080002dc:    e7fe        ..      B        0x80002dc ; Reset_Handler + 12
        0x080002de:    e7fe        ..      B        0x80002de ; Reset_Handler + 14
        0x080002e0:    e7fe        ..      B        0x80002e0 ; Reset_Handler + 16
    AFC_PLL_Handler
    AUX_ADC_Handler
    BOR_Handler
    CACHE_Handler
    EFUSE_Handler
    LIGHT_Handler
    LOW_BAT_Handler
    PLL_Handler
    RC_CAL_Handler
        0x080002e2:    e7fe        ..      B        AFC_PLL_Handler ; 0x80002e2
    __user_initial_stackheap
        0x080002e4:    4804        .H      LDR      r0,[pc,#16] ; [0x80002f8] = 0x200012f0
        0x080002e6:    4905        .I      LDR      r1,[pc,#20] ; [0x80002fc] = 0x200012f0
        0x080002e8:    4a03        .J      LDR      r2,[pc,#12] ; [0x80002f8] = 0x200012f0
        0x080002ea:    4b04        .K      LDR      r3,[pc,#16] ; [0x80002fc] = 0x200012f0
        0x080002ec:    4770        pG      BX       lr
    $d
        0x080002ee:    0000        ..      DCW    0
        0x080002f0:    08000731    1...    DCD    134219569
        0x080002f4:    080001c1    ....    DCD    134218177
        0x080002f8:    200012f0    ...     DCD    536875760
        0x080002fc:    200012f0    ...     DCD    536875760
    $t.0
    fputc
        0x08000300:    b580        ..      PUSH     {r7,lr}
        0x08000302:    b2c1        ..      UXTB     r1,r0
        0x08000304:    2000        .       MOVS     r0,#0
        0x08000306:    f002f9c5    ....    BL       uart_send_byte ; 0x8002694
        0x0800030a:    bd80        ..      POP      {r7,pc}
    fgetc
        0x0800030c:    b510        ..      PUSH     {r4,lr}
        0x0800030e:    2400        .$      MOVS     r4,#0
        0x08000310:    4620         F      MOV      r0,r4
        0x08000312:    f002f9ef    ....    BL       uart_recv_byte ; 0x80026f4
        0x08000316:    4601        .F      MOV      r1,r0
        0x08000318:    4620         F      MOV      r0,r4
        0x0800031a:    f002f9bb    ....    BL       uart_send_byte ; 0x8002694
        0x0800031e:    bd10        ..      POP      {r4,pc}
    ferror
        0x08000320:    2000        .       MOVS     r0,#0
        0x08000322:    43c0        .C      MVNS     r0,r0
        0x08000324:    4770        pG      BX       lr
    _sys_open
        0x08000326:    2001        .       MOVS     r0,#1
        0x08000328:    0200        ..      LSLS     r0,r0,#8
        0x0800032a:    4770        pG      BX       lr
    _sys_close
        0x0800032c:    2000        .       MOVS     r0,#0
        0x0800032e:    4770        pG      BX       lr
    _sys_write
        0x08000330:    2000        .       MOVS     r0,#0
        0x08000332:    4770        pG      BX       lr
    _sys_read
        0x08000334:    2000        .       MOVS     r0,#0
        0x08000336:    4770        pG      BX       lr
    _ttywrch
        0x08000338:    b580        ..      PUSH     {r7,lr}
        0x0800033a:    b2c1        ..      UXTB     r1,r0
        0x0800033c:    2000        .       MOVS     r0,#0
        0x0800033e:    f002f9a9    ....    BL       uart_send_byte ; 0x8002694
        0x08000342:    bd80        ..      POP      {r7,pc}
    _sys_istty
        0x08000344:    2001        .       MOVS     r0,#1
        0x08000346:    4770        pG      BX       lr
    _sys_seek
        0x08000348:    2000        .       MOVS     r0,#0
        0x0800034a:    43c0        .C      MVNS     r0,r0
        0x0800034c:    4770        pG      BX       lr
    _sys_ensure
        0x0800034e:    2000        .       MOVS     r0,#0
        0x08000350:    4770        pG      BX       lr
    _sys_flen
        0x08000352:    2000        .       MOVS     r0,#0
        0x08000354:    4770        pG      BX       lr
    _sys_tmpnam
        0x08000356:    2000        .       MOVS     r0,#0
        0x08000358:    4770        pG      BX       lr
    _sys_exit
        0x0800035a:    e7fe        ..      B        _sys_exit ; 0x800035a
    time
        0x0800035c:    2000        .       MOVS     r0,#0
        0x0800035e:    4770        pG      BX       lr
    delay_us
        0x08000360:    b580        ..      PUSH     {r7,lr}
        0x08000362:    f001f9b1    ....    BL       hal_dualtimer_delay_us ; 0x80016c8
        0x08000366:    bd80        ..      POP      {r7,pc}
    delay_ms
        0x08000368:    b580        ..      PUSH     {r7,lr}
        0x0800036a:    f001f9c9    ....    BL       hal_dualtimer_delay_ms ; 0x8001700
        0x0800036e:    bd80        ..      POP      {r7,pc}
    isLittleEndian
        0x08000370:    2001        .       MOVS     r0,#1
        0x08000372:    4770        pG      BX       lr
    checkEndianness
        0x08000374:    b580        ..      PUSH     {r7,lr}
        0x08000376:    a002        ..      ADR      r0,{pc}+0xa ; 0x8000380
        0x08000378:    f003fb22    ..".    BL       puts ; 0x80039c0
        0x0800037c:    bd80        ..      POP      {r7,pc}
        0x0800037e:    46c0        .F      MOV      r8,r8
    $d.1
        0x08000380:    74737953    Syst    DCD    1953724755
        0x08000384:    69206d65    em i    DCD    1763732837
        0x08000388:    694c2073    s Li    DCD    1766596723
        0x0800038c:    656c7474    ttle    DCD    1701606516
        0x08000390:    646e452d    -End    DCD    1684948269
        0x08000394:    006e6169    ian.    DCD    7233897
    $t.2
    yihe_ack
        0x08000398:    b570        p.      PUSH     {r4-r6,lr}
        0x0800039a:    b088        ..      SUB      sp,sp,#0x20
        0x0800039c:    466b        kF      MOV      r3,sp
        0x0800039e:    21d3        .!      MOVS     r1,#0xd3
        0x080003a0:    70d9        .p      STRB     r1,[r3,#3]
        0x080003a2:    210a        .!      MOVS     r1,#0xa
        0x080003a4:    7099        .p      STRB     r1,[r3,#2]
        0x080003a6:    21a5        .!      MOVS     r1,#0xa5
        0x080003a8:    7059        Yp      STRB     r1,[r3,#1]
        0x080003aa:    2155        U!      MOVS     r1,#0x55
        0x080003ac:    7019        .p      STRB     r1,[r3,#0]
        0x080003ae:    8845        E.      LDRH     r5,[r0,#2]
        0x080003b0:    2400        .$      MOVS     r4,#0
        0x080003b2:    719c        .q      STRB     r4,[r3,#6]
        0x080003b4:    715d        ]q      STRB     r5,[r3,#5]
        0x080003b6:    2201        ."      MOVS     r2,#1
        0x080003b8:    2d00        .-      CMP      r5,#0
        0x080003ba:    4616        .F      MOV      r6,r2
        0x080003bc:    d100        ..      BNE      0x80003c0 ; yihe_ack + 40
        0x080003be:    462e        .F      MOV      r6,r5
        0x080003c0:    71de        .q      STRB     r6,[r3,#7]
        0x080003c2:    0a2d        -.      LSRS     r5,r5,#8
        0x080003c4:    711d        .q      STRB     r5,[r3,#4]
        0x080003c6:    8885        ..      LDRH     r5,[r0,#4]
        0x080003c8:    725d        ]r      STRB     r5,[r3,#9]
        0x080003ca:    0a2d        -.      LSRS     r5,r5,#8
        0x080003cc:    721d        .r      STRB     r5,[r3,#8]
        0x080003ce:    7840        @x      LDRB     r0,[r0,#1]
        0x080003d0:    72dc        .r      STRB     r4,[r3,#0xb]
        0x080003d2:    7298        .r      STRB     r0,[r3,#0xa]
        0x080003d4:    4668        hF      MOV      r0,sp
        0x080003d6:    5c80        .\      LDRB     r0,[r0,r2]
        0x080003d8:    b289        ..      UXTH     r1,r1
        0x080003da:    1809        ..      ADDS     r1,r1,r0
        0x080003dc:    1c52        R.      ADDS     r2,r2,#1
        0x080003de:    2a0c        .*      CMP      r2,#0xc
        0x080003e0:    d1f8        ..      BNE      0x80003d4 ; yihe_ack + 60
        0x080003e2:    4668        hF      MOV      r0,sp
        0x080003e4:    7301        .s      STRB     r1,[r0,#0xc]
        0x080003e6:    210d        .!      MOVS     r1,#0xd
        0x080003e8:    f003f93c    ..<.    BL       output_port_send_data ; 0x8003664
        0x080003ec:    b008        ..      ADD      sp,sp,#0x20
        0x080003ee:    bd70        p.      POP      {r4-r6,pc}
    main
        0x080003f0:    b098        ..      SUB      sp,sp,#0x60
        0x080003f2:    2023        #       MOVS     r0,#0x23
        0x080003f4:    00c0        ..      LSLS     r0,r0,#3
        0x080003f6:    4c52        RL      LDR      r4,[pc,#328] ; [0x8000540] = 0x20010000
        0x080003f8:    1826        &.      ADDS     r6,r4,r0
        0x080003fa:    f002fbcb    ....    BL       sys_clk_disable_radar ; 0x8002b94
        0x080003fe:    f002fbbd    ....    BL       sys_clk_enable_radar ; 0x8002b7c
        0x08000402:    f002fc3b    ..;.    BL       sys_clk_enable_dma ; 0x8002c7c
        0x08000406:    4d4f        OM      LDR      r5,[pc,#316] ; [0x8000544] = 0x200012d4
        0x08000408:    602e        .`      STR      r6,[r5,#0]
        0x0800040a:    2002        .       MOVS     r0,#2
        0x0800040c:    494e        NI      LDR      r1,[pc,#312] ; [0x8000548] = 0x4c4b400
        0x0800040e:    f002fb07    ....    BL       clk_mcu_set ; 0x8002a20
        0x08000412:    a915        ..      ADD      r1,sp,#0x54
        0x08000414:    2600        .&      MOVS     r6,#0
        0x08000416:    718e        .q      STRB     r6,[r1,#6]
        0x08000418:    20ff        .       MOVS     r0,#0xff
        0x0800041a:    72c8        .r      STRB     r0,[r1,#0xb]
        0x0800041c:    484b        KH      LDR      r0,[pc,#300] ; [0x800054c] = 0x203
        0x0800041e:    8088        ..      STRH     r0,[r1,#4]
        0x08000420:    20e1        .       MOVS     r0,#0xe1
        0x08000422:    0240        @.      LSLS     r0,r0,#9
        0x08000424:    9015        ..      STR      r0,[sp,#0x54]
        0x08000426:    4630        0F      MOV      r0,r6
        0x08000428:    f000fa64    ..d.    BL       hal_uart_init ; 0x80008f4
        0x0800042c:    f001f8d6    ....    BL       hal_dualtimer_init ; 0x80015dc
        0x08000430:    f002fbb0    ....    BL       sys_clk_disable_radar ; 0x8002b94
        0x08000434:    f002fba2    ....    BL       sys_clk_enable_radar ; 0x8002b7c
        0x08000438:    f002fc20    .. .    BL       sys_clk_enable_dma ; 0x8002c7c
        0x0800043c:    4620         F      MOV      r0,r4
        0x0800043e:    f003f959    ..Y.    BL       write_data_frame_header ; 0x80036f4
        0x08000442:    f000fb95    ....    BL       hal_fft_init ; 0x8000b70
        0x08000446:    f000fe11    ....    BL       radar_fmcw_cfg ; 0x800106c
        0x0800044a:    4841        AH      LDR      r0,[pc,#260] ; [0x8000550] = 0x80072b8
        0x0800044c:    6801        .h      LDR      r1,[r0,#0]
        0x0800044e:    6840        @h      LDR      r0,[r0,#4]
        0x08000450:    9011        ..      STR      r0,[sp,#0x44]
        0x08000452:    9110        ..      STR      r1,[sp,#0x40]
        0x08000454:    2003        .       MOVS     r0,#3
        0x08000456:    a910        ..      ADD      r1,sp,#0x40
        0x08000458:    f000fbe4    ....    BL       hal_fft_set_config ; 0x8000c24
        0x0800045c:    483d        =H      LDR      r0,[pc,#244] ; [0x8000554] = 0x400001
        0x0800045e:    9011        ..      STR      r0,[sp,#0x44]
        0x08000460:    483d        =H      LDR      r0,[pc,#244] ; [0x8000558] = 0x8000575
        0x08000462:    9014        ..      STR      r0,[sp,#0x50]
        0x08000464:    483d        =H      LDR      r0,[pc,#244] ; [0x800055c] = 0x20042009
        0x08000466:    9010        ..      STR      r0,[sp,#0x40]
        0x08000468:    483d        =H      LDR      r0,[pc,#244] ; [0x8000560] = 0x800058d
        0x0800046a:    9013        ..      STR      r0,[sp,#0x4c]
        0x0800046c:    6828        (h      LDR      r0,[r5,#0]
        0x0800046e:    9012        ..      STR      r0,[sp,#0x48]
        0x08000470:    2004        .       MOVS     r0,#4
        0x08000472:    a910        ..      ADD      r1,sp,#0x40
        0x08000474:    f000fbd6    ....    BL       hal_fft_set_config ; 0x8000c24
        0x08000478:    f003f8b6    ....    BL       output_dma_config ; 0x80035e8
        0x0800047c:    4630        0F      MOV      r0,r6
        0x0800047e:    f006f8d9    ....    BL       radar_frame_trigger_mode_set ; 0x8006634
        0x08000482:    f006f8cb    ....    BL       radar_frame_start ; 0x800661c
        0x08000486:    4f37        7O      LDR      r7,[pc,#220] ; [0x8000564] = 0x200011bc
        0x08000488:    960b        ..      STR      r6,[sp,#0x2c]
        0x0800048a:    9609        ..      STR      r6,[sp,#0x24]
        0x0800048c:    e003        ..      B        0x8000496 ; main + 166
        0x0800048e:    2000        .       MOVS     r0,#0
        0x08000490:    6038        8`      STR      r0,[r7,#0]
        0x08000492:    f006fd49    ..I.    BL       $Ven$TT$L$$critical_section_end ; 0x8006f28
        0x08000496:    6838        8h      LDR      r0,[r7,#0]
        0x08000498:    2800        .(      CMP      r0,#0
        0x0800049a:    d101        ..      BNE      0x80004a0 ; main + 176
        0x0800049c:    bf00        ..      NOP      
        0x0800049e:    e7fa        ..      B        0x8000496 ; main + 166
        0x080004a0:    f006fd48    ..H.    BL       $Ven$TT$L$$critical_section_start ; 0x8006f34
        0x080004a4:    6838        8h      LDR      r0,[r7,#0]
        0x080004a6:    2801        .(      CMP      r0,#1
        0x080004a8:    d101        ..      BNE      0x80004ae ; main + 190
        0x080004aa:    682c        ,h      LDR      r4,[r5,#0]
        0x080004ac:    e006        ..      B        0x80004bc ; main + 204
        0x080004ae:    6838        8h      LDR      r0,[r7,#0]
        0x080004b0:    2802        .(      CMP      r0,#2
        0x080004b2:    d1ec        ..      BNE      0x800048e ; main + 158
        0x080004b4:    2001        .       MOVS     r0,#1
        0x080004b6:    0200        ..      LSLS     r0,r0,#8
        0x080004b8:    6829        )h      LDR      r1,[r5,#0]
        0x080004ba:    180c        ..      ADDS     r4,r1,r0
        0x080004bc:    2600        .&      MOVS     r6,#0
        0x080004be:    603e        >`      STR      r6,[r7,#0]
        0x080004c0:    f006fd32    ..2.    BL       $Ven$TT$L$$critical_section_end ; 0x8006f28
        0x080004c4:    2c00        .,      CMP      r4,#0
        0x080004c6:    d0e6        ..      BEQ      0x8000496 ; main + 166
        0x080004c8:    960f        ..      STR      r6,[sp,#0x3c]
        0x080004ca:    960d        ..      STR      r6,[sp,#0x34]
        0x080004cc:    960c        ..      STR      r6,[sp,#0x30]
        0x080004ce:    a80c        ..      ADD      r0,sp,#0x30
        0x080004d0:    4669        iF      MOV      r1,sp
        0x080004d2:    6048        H`      STR      r0,[r1,#4]
        0x080004d4:    a80f        ..      ADD      r0,sp,#0x3c
        0x080004d6:    6008        .`      STR      r0,[r1,#0]
        0x080004d8:    2240        @"      MOVS     r2,#0x40
        0x080004da:    2101        .!      MOVS     r1,#1
        0x080004dc:    4620         F      MOV      r0,r4
        0x080004de:    460b        .F      MOV      r3,r1
        0x080004e0:    f000f860    ..`.    BL       findMaxMagnitudeIndex ; 0x80005a4
        0x080004e4:    980f        ..      LDR      r0,[sp,#0x3c]
        0x080004e6:    9007        ..      STR      r0,[sp,#0x1c]
        0x080004e8:    f003fd83    ....    BL       __aeabi_i2d ; 0x8003ff2
        0x080004ec:    4a1e        .J      LDR      r2,[pc,#120] ; [0x8000568] = 0x5c28f5c3
        0x080004ee:    4b1f        .K      LDR      r3,[pc,#124] ; [0x800056c] = 0x4009c28f
        0x080004f0:    f003fd8a    ....    BL       __aeabi_dmul ; 0x8004008
        0x080004f4:    4602        .F      MOV      r2,r0
        0x080004f6:    460b        .F      MOV      r3,r1
        0x080004f8:    980b        ..      LDR      r0,[sp,#0x2c]
        0x080004fa:    9c09        ..      LDR      r4,[sp,#0x24]
        0x080004fc:    4621        !F      MOV      r1,r4
        0x080004fe:    9208        ..      STR      r2,[sp,#0x20]
        0x08000500:    930a        ..      STR      r3,[sp,#0x28]
        0x08000502:    f006fd63    ..c.    BL       __aeabi_dcmplt ; 0x8006fcc
        0x08000506:    9a0c        ..      LDR      r2,[sp,#0x30]
        0x08000508:    9b0d        ..      LDR      r3,[sp,#0x34]
        0x0800050a:    4669        iF      MOV      r1,sp
        0x0800050c:    608a        .`      STR      r2,[r1,#8]
        0x0800050e:    60cb        .`      STR      r3,[r1,#0xc]
        0x08000510:    9a07        ..      LDR      r2,[sp,#0x1c]
        0x08000512:    600a        .`      STR      r2,[r1,#0]
        0x08000514:    2800        .(      CMP      r0,#0
        0x08000516:    d100        ..      BNE      0x800051a ; main + 298
        0x08000518:    9c0a        ..      LDR      r4,[sp,#0x28]
        0x0800051a:    614c        La      STR      r4,[r1,#0x14]
        0x0800051c:    2800        .(      CMP      r0,#0
        0x0800051e:    9c08        ..      LDR      r4,[sp,#0x20]
        0x08000520:    d100        ..      BNE      0x8000524 ; main + 308
        0x08000522:    940b        ..      STR      r4,[sp,#0x2c]
        0x08000524:    980b        ..      LDR      r0,[sp,#0x2c]
        0x08000526:    6108        .a      STR      r0,[r1,#0x10]
        0x08000528:    4811        .H      LDR      r0,[pc,#68] ; [0x8000570] = 0x800746c
        0x0800052a:    4631        1F      MOV      r1,r6
        0x0800052c:    4632        2F      MOV      r2,r6
        0x0800052e:    4633        3F      MOV      r3,r6
        0x08000530:    f003f9a2    ....    BL       __2printf ; 0x8003878
        0x08000534:    f006f872    ..r.    BL       radar_frame_start ; 0x800661c
        0x08000538:    940b        ..      STR      r4,[sp,#0x2c]
        0x0800053a:    9e0a        ..      LDR      r6,[sp,#0x28]
        0x0800053c:    e7a5        ..      B        0x800048a ; main + 154
        0x0800053e:    46c0        .F      MOV      r8,r8
    $d.3
    __arm_cp.3_0
        0x08000540:    20010000    ...     DCD    536936448
    __arm_cp.3_1
        0x08000544:    200012d4    ...     DCD    536875732
    __arm_cp.3_2
        0x08000548:    04c4b400    ....    DCD    80000000
    __arm_cp.3_3
        0x0800054c:    00000203    ....    DCD    515
    __arm_cp.3_4
        0x08000550:    080072b8    .r..    DCD    134247096
    __arm_cp.3_5
        0x08000554:    00400001    ..@.    DCD    4194305
    __arm_cp.3_6
        0x08000558:    08000575    u...    DCD    134219125
    __arm_cp.3_7
        0x0800055c:    20042009    . .     DCD    537141257
    __arm_cp.3_8
        0x08000560:    0800058d    ....    DCD    134219149
    __arm_cp.3_9
        0x08000564:    200011bc    ...     DCD    536875452
    __arm_cp.3_10
        0x08000568:    5c28f5c3    ..(\    DCD    1546188227
    __arm_cp.3_11
        0x0800056c:    4009c28f    ...@    DCD    1074381455
    __arm_cp.3_12
        0x08000570:    0800746c    lt..    DCD    134247532
    $t.4
    adc_rfft_end_isr
        0x08000574:    4803        .H      LDR      r0,[pc,#12] ; [0x8000584] = 0x200011bc
        0x08000576:    2102        .!      MOVS     r1,#2
        0x08000578:    6001        .`      STR      r1,[r0,#0]
        0x0800057a:    4803        .H      LDR      r0,[pc,#12] ; [0x8000588] = 0x20010000
        0x0800057c:    6881        .h      LDR      r1,[r0,#8]
        0x0800057e:    1c49        I.      ADDS     r1,r1,#1
        0x08000580:    6081        .`      STR      r1,[r0,#8]
        0x08000582:    4770        pG      BX       lr
    $d.5
    __arm_cp.4_0
        0x08000584:    200011bc    ...     DCD    536875452
    __arm_cp.4_1
        0x08000588:    20010000    ...     DCD    536936448
    $t.6
    adc_rfft_half_isr
        0x0800058c:    4803        .H      LDR      r0,[pc,#12] ; [0x800059c] = 0x200011bc
        0x0800058e:    2101        .!      MOVS     r1,#1
        0x08000590:    6001        .`      STR      r1,[r0,#0]
        0x08000592:    4803        .H      LDR      r0,[pc,#12] ; [0x80005a0] = 0x20010000
        0x08000594:    6881        .h      LDR      r1,[r0,#8]
        0x08000596:    1c49        I.      ADDS     r1,r1,#1
        0x08000598:    6081        .`      STR      r1,[r0,#8]
        0x0800059a:    4770        pG      BX       lr
    $d.7
    __arm_cp.5_0
        0x0800059c:    200011bc    ...     DCD    536875452
    __arm_cp.5_1
        0x080005a0:    20010000    ...     DCD    536936448
    $t.8
    findMaxMagnitudeIndex
        0x080005a4:    b5f0        ..      PUSH     {r4-r7,lr}
        0x080005a6:    b093        ..      SUB      sp,sp,#0x4c
        0x080005a8:    920e        ..      STR      r2,[sp,#0x38]
        0x080005aa:    9108        ..      STR      r1,[sp,#0x20]
        0x080005ac:    9003        ..      STR      r0,[sp,#0xc]
        0x080005ae:    9301        ..      STR      r3,[sp,#4]
        0x080005b0:    2b01        .+      CMP      r3,#1
        0x080005b2:    da00        ..      BGE      0x80005b6 ; findMaxMagnitudeIndex + 18
        0x080005b4:    e094        ..      B        0x80006e0 ; findMaxMagnitudeIndex + 316
        0x080005b6:    9819        ..      LDR      r0,[sp,#0x64]
        0x080005b8:    9006        ..      STR      r0,[sp,#0x18]
        0x080005ba:    9818        ..      LDR      r0,[sp,#0x60]
        0x080005bc:    9005        ..      STR      r0,[sp,#0x14]
        0x080005be:    9a08        ..      LDR      r2,[sp,#0x20]
        0x080005c0:    4610        .F      MOV      r0,r2
        0x080005c2:    990e        ..      LDR      r1,[sp,#0x38]
        0x080005c4:    4348        HC      MULS     r0,r1,r0
        0x080005c6:    0080        ..      LSLS     r0,r0,#2
        0x080005c8:    9000        ..      STR      r0,[sp,#0]
        0x080005ca:    0090        ..      LSLS     r0,r2,#2
        0x080005cc:    900d        ..      STR      r0,[sp,#0x34]
        0x080005ce:    2000        .       MOVS     r0,#0
        0x080005d0:    9002        ..      STR      r0,[sp,#8]
        0x080005d2:    9808        ..      LDR      r0,[sp,#0x20]
        0x080005d4:    2801        .(      CMP      r0,#1
        0x080005d6:    db78        x.      BLT      0x80006ca ; findMaxMagnitudeIndex + 294
        0x080005d8:    9908        ..      LDR      r1,[sp,#0x20]
        0x080005da:    9802        ..      LDR      r0,[sp,#8]
        0x080005dc:    4341        AC      MULS     r1,r0,r1
        0x080005de:    9107        ..      STR      r1,[sp,#0x1c]
        0x080005e0:    2000        .       MOVS     r0,#0
        0x080005e2:    9903        ..      LDR      r1,[sp,#0xc]
        0x080005e4:    9004        ..      STR      r0,[sp,#0x10]
        0x080005e6:    4603        .F      MOV      r3,r0
        0x080005e8:    466a        jF      MOV      r2,sp
        0x080005ea:    980e        ..      LDR      r0,[sp,#0x38]
        0x080005ec:    2801        .(      CMP      r0,#1
        0x080005ee:    910b        ..      STR      r1,[sp,#0x2c]
        0x080005f0:    930a        ..      STR      r3,[sp,#0x28]
        0x080005f2:    9209        ..      STR      r2,[sp,#0x24]
        0x080005f4:    db4d        M.      BLT      0x8000692 ; findMaxMagnitudeIndex + 238
        0x080005f6:    2700        .'      MOVS     r7,#0
        0x080005f8:    43f8        .C      MVNS     r0,r7
        0x080005fa:    900f        ..      STR      r0,[sp,#0x3c]
        0x080005fc:    4839        9H      LDR      r0,[pc,#228] ; [0x80006e4] = 0xffefffff
        0x080005fe:    9011        ..      STR      r0,[sp,#0x44]
        0x08000600:    970c        ..      STR      r7,[sp,#0x30]
        0x08000602:    9112        ..      STR      r1,[sp,#0x48]
        0x08000604:    680c        .h      LDR      r4,[r1,#0]
        0x08000606:    b220         .      SXTH     r0,r4
        0x08000608:    f003fcf3    ....    BL       __aeabi_i2d ; 0x8003ff2
        0x0800060c:    4602        .F      MOV      r2,r0
        0x0800060e:    460b        .F      MOV      r3,r1
        0x08000610:    f003fcfa    ....    BL       __aeabi_dmul ; 0x8004008
        0x08000614:    4605        .F      MOV      r5,r0
        0x08000616:    460e        .F      MOV      r6,r1
        0x08000618:    1420         .      ASRS     r0,r4,#16
        0x0800061a:    f003fcea    ....    BL       __aeabi_i2d ; 0x8003ff2
        0x0800061e:    4602        .F      MOV      r2,r0
        0x08000620:    460b        .F      MOV      r3,r1
        0x08000622:    f003fcf1    ....    BL       __aeabi_dmul ; 0x8004008
        0x08000626:    462a        *F      MOV      r2,r5
        0x08000628:    4633        3F      MOV      r3,r6
        0x0800062a:    f003fc6d    ..m.    BL       __aeabi_dadd ; 0x8003f08
        0x0800062e:    f006fcd9    ....    BL       sqrt ; 0x8006fe4
        0x08000632:    4604        .F      MOV      r4,r0
        0x08000634:    460e        .F      MOV      r6,r1
        0x08000636:    2500        .%      MOVS     r5,#0
        0x08000638:    462a        *F      MOV      r2,r5
        0x0800063a:    4b2b        +K      LDR      r3,[pc,#172] ; [0x80006e8] = 0x409f4000
        0x0800063c:    f006fcb9    ....    BL       __aeabi_dcmple ; 0x8006fb2
        0x08000640:    2800        .(      CMP      r0,#0
        0x08000642:    d11e        ..      BNE      0x8000682 ; findMaxMagnitudeIndex + 222
        0x08000644:    9410        ..      STR      r4,[sp,#0x40]
        0x08000646:    4620         F      MOV      r0,r4
        0x08000648:    4631        1F      MOV      r1,r6
        0x0800064a:    9c0f        ..      LDR      r4,[sp,#0x3c]
        0x0800064c:    4622        "F      MOV      r2,r4
        0x0800064e:    9b11        ..      LDR      r3,[sp,#0x44]
        0x08000650:    f006fca4    ....    BL       __aeabi_dcmpgt ; 0x8006f9c
        0x08000654:    2101        .!      MOVS     r1,#1
        0x08000656:    2800        .(      CMP      r0,#0
        0x08000658:    460a        .F      MOV      r2,r1
        0x0800065a:    d100        ..      BNE      0x800065e ; findMaxMagnitudeIndex + 186
        0x0800065c:    4602        .F      MOV      r2,r0
        0x0800065e:    2f06        ./      CMP      r7,#6
        0x08000660:    d800        ..      BHI      0x8000664 ; findMaxMagnitudeIndex + 192
        0x08000662:    4629        )F      MOV      r1,r5
        0x08000664:    4011        .@      ANDS     r1,r1,r2
        0x08000666:    2900        .)      CMP      r1,#0
        0x08000668:    d100        ..      BNE      0x800066c ; findMaxMagnitudeIndex + 200
        0x0800066a:    9e11        ..      LDR      r6,[sp,#0x44]
        0x0800066c:    2900        .)      CMP      r1,#0
        0x0800066e:    d100        ..      BNE      0x8000672 ; findMaxMagnitudeIndex + 206
        0x08000670:    9410        ..      STR      r4,[sp,#0x40]
        0x08000672:    2900        .)      CMP      r1,#0
        0x08000674:    4638        8F      MOV      r0,r7
        0x08000676:    d100        ..      BNE      0x800067a ; findMaxMagnitudeIndex + 214
        0x08000678:    980c        ..      LDR      r0,[sp,#0x30]
        0x0800067a:    9910        ..      LDR      r1,[sp,#0x40]
        0x0800067c:    910f        ..      STR      r1,[sp,#0x3c]
        0x0800067e:    9611        ..      STR      r6,[sp,#0x44]
        0x08000680:    900c        ..      STR      r0,[sp,#0x30]
        0x08000682:    9912        ..      LDR      r1,[sp,#0x48]
        0x08000684:    980d        ..      LDR      r0,[sp,#0x34]
        0x08000686:    1809        ..      ADDS     r1,r1,r0
        0x08000688:    1c7f        ..      ADDS     r7,r7,#1
        0x0800068a:    980e        ..      LDR      r0,[sp,#0x38]
        0x0800068c:    42b8        .B      CMP      r0,r7
        0x0800068e:    d1b8        ..      BNE      0x8000602 ; findMaxMagnitudeIndex + 94
        0x08000690:    e005        ..      B        0x800069e ; findMaxMagnitudeIndex + 250
        0x08000692:    9904        ..      LDR      r1,[sp,#0x10]
        0x08000694:    43c8        .C      MVNS     r0,r1
        0x08000696:    900f        ..      STR      r0,[sp,#0x3c]
        0x08000698:    4812        .H      LDR      r0,[pc,#72] ; [0x80006e4] = 0xffefffff
        0x0800069a:    9011        ..      STR      r0,[sp,#0x44]
        0x0800069c:    910c        ..      STR      r1,[sp,#0x30]
        0x0800069e:    9807        ..      LDR      r0,[sp,#0x1c]
        0x080006a0:    9b0a        ..      LDR      r3,[sp,#0x28]
        0x080006a2:    1818        ..      ADDS     r0,r3,r0
        0x080006a4:    0081        ..      LSLS     r1,r0,#2
        0x080006a6:    9a05        ..      LDR      r2,[sp,#0x14]
        0x080006a8:    9c0c        ..      LDR      r4,[sp,#0x30]
        0x080006aa:    5054        TP      STR      r4,[r2,r1]
        0x080006ac:    00c0        ..      LSLS     r0,r0,#3
        0x080006ae:    9906        ..      LDR      r1,[sp,#0x18]
        0x080006b0:    9a0f        ..      LDR      r2,[sp,#0x3c]
        0x080006b2:    500a        .P      STR      r2,[r1,r0]
        0x080006b4:    1808        ..      ADDS     r0,r1,r0
        0x080006b6:    9911        ..      LDR      r1,[sp,#0x44]
        0x080006b8:    6041        A`      STR      r1,[r0,#4]
        0x080006ba:    990b        ..      LDR      r1,[sp,#0x2c]
        0x080006bc:    1d09        ..      ADDS     r1,r1,#4
        0x080006be:    1c5b        [.      ADDS     r3,r3,#1
        0x080006c0:    9809        ..      LDR      r0,[sp,#0x24]
        0x080006c2:    4685        .F      MOV      sp,r0
        0x080006c4:    9808        ..      LDR      r0,[sp,#0x20]
        0x080006c6:    4283        .B      CMP      r3,r0
        0x080006c8:    d18e        ..      BNE      0x80005e8 ; findMaxMagnitudeIndex + 68
        0x080006ca:    9803        ..      LDR      r0,[sp,#0xc]
        0x080006cc:    9900        ..      LDR      r1,[sp,#0]
        0x080006ce:    1840        @.      ADDS     r0,r0,r1
        0x080006d0:    9003        ..      STR      r0,[sp,#0xc]
        0x080006d2:    9902        ..      LDR      r1,[sp,#8]
        0x080006d4:    1c49        I.      ADDS     r1,r1,#1
        0x080006d6:    9801        ..      LDR      r0,[sp,#4]
        0x080006d8:    9102        ..      STR      r1,[sp,#8]
        0x080006da:    4281        .B      CMP      r1,r0
        0x080006dc:    d000        ..      BEQ      0x80006e0 ; findMaxMagnitudeIndex + 316
        0x080006de:    e778        x.      B        0x80005d2 ; findMaxMagnitudeIndex + 46
        0x080006e0:    b013        ..      ADD      sp,sp,#0x4c
        0x080006e2:    bdf0        ..      POP      {r4-r7,pc}
    $d.9
    __arm_cp.6_0
        0x080006e4:    ffefffff    ....    DCD    4293918719
    __arm_cp.6_1
        0x080006e8:    409f4000    .@.@    DCD    1084178432
    $t.10
    complexMagnitude
        0x080006ec:    b570        p.      PUSH     {r4-r6,lr}
        0x080006ee:    460c        .F      MOV      r4,r1
        0x080006f0:    f003fc7f    ....    BL       __aeabi_i2d ; 0x8003ff2
        0x080006f4:    4602        .F      MOV      r2,r0
        0x080006f6:    460b        .F      MOV      r3,r1
        0x080006f8:    f003fc86    ....    BL       __aeabi_dmul ; 0x8004008
        0x080006fc:    4605        .F      MOV      r5,r0
        0x080006fe:    460e        .F      MOV      r6,r1
        0x08000700:    4620         F      MOV      r0,r4
        0x08000702:    f003fc76    ..v.    BL       __aeabi_i2d ; 0x8003ff2
        0x08000706:    4602        .F      MOV      r2,r0
        0x08000708:    460b        .F      MOV      r3,r1
        0x0800070a:    f003fc7d    ..}.    BL       __aeabi_dmul ; 0x8004008
        0x0800070e:    4602        .F      MOV      r2,r0
        0x08000710:    460b        .F      MOV      r3,r1
        0x08000712:    4628        (F      MOV      r0,r5
        0x08000714:    4631        1F      MOV      r1,r6
        0x08000716:    f003fbf7    ....    BL       __aeabi_dadd ; 0x8003f08
        0x0800071a:    f006fc63    ..c.    BL       sqrt ; 0x8006fe4
        0x0800071e:    bd70        p.      POP      {r4-r6,pc}
    SystemCoreClockUpdate
        0x08000720:    4801        .H      LDR      r0,[pc,#4] ; [0x8000728] = 0x20001044
        0x08000722:    4902        .I      LDR      r1,[pc,#8] ; [0x800072c] = 0x5f5e100
        0x08000724:    6001        .`      STR      r1,[r0,#0]
        0x08000726:    4770        pG      BX       lr
    $d.1
    __arm_cp.0_0
        0x08000728:    20001044    D..     DCD    536875076
    __arm_cp.0_1
        0x0800072c:    05f5e100    ....    DCD    100000000
    $t.2
    SystemInit
        0x08000730:    4807        .H      LDR      r0,[pc,#28] ; [0x8000750] = 0xe000ed08
        0x08000732:    4908        .I      LDR      r1,[pc,#32] ; [0x8000754] = 0x8000100
        0x08000734:    6001        .`      STR      r1,[r0,#0]
        0x08000736:    48af        .H      LDR      r0,[pc,#700] ; [0x80009f4] = 0xe000e180
        0x08000738:    2120         !      MOVS     r1,#0x20
        0x0800073a:    6001        .`      STR      r1,[r0,#0]
        0x0800073c:    f3bf8f4f    ..O.    DSB      
        0x08000740:    f3bf8f6f    ..o.    ISB      
        0x08000744:    b662        b.      CPSIE    i
        0x08000746:    4804        .H      LDR      r0,[pc,#16] ; [0x8000758] = 0x20001044
        0x08000748:    4904        .I      LDR      r1,[pc,#16] ; [0x800075c] = 0x5f5e100
        0x0800074a:    6001        .`      STR      r1,[r0,#0]
        0x0800074c:    4770        pG      BX       lr
        0x0800074e:    46c0        .F      MOV      r8,r8
    $d.3
    __arm_cp.1_0
        0x08000750:    e000ed08    ....    DCD    3758157064
    __arm_cp.1_1
        0x08000754:    08000100    ....    DCD    134217984
    __arm_cp.1_3
        0x08000758:    20001044    D..     DCD    536875076
    __arm_cp.1_4
        0x0800075c:    05f5e100    ....    DCD    100000000
    $t.0
    hal_clk_init
        0x08000760:    b510        ..      PUSH     {r4,lr}
        0x08000762:    4604        .F      MOV      r4,r0
        0x08000764:    f002f8b0    ....    BL       clock_init ; 0x80028c8
        0x08000768:    4806        .H      LDR      r0,[pc,#24] ; [0x8000784] = 0x20001224
        0x0800076a:    2101        .!      MOVS     r1,#1
        0x0800076c:    7001        .p      STRB     r1,[r0,#0]
        0x0800076e:    f002f8b3    ....    BL       clock_xtal_type_get ; 0x80028d8
        0x08000772:    4905        .I      LDR      r1,[pc,#20] ; [0x8000788] = 0x20001228
        0x08000774:    7008        .p      STRB     r0,[r1,#0]
        0x08000776:    f002f8b1    ....    BL       pll_ana_clk_config ; 0x80028dc
        0x0800077a:    4620         F      MOV      r0,r4
        0x0800077c:    f000f806    ....    BL       hal_setup_clk ; 0x800078c
        0x08000780:    bd10        ..      POP      {r4,pc}
        0x08000782:    46c0        .F      MOV      r8,r8
    $d.1
    __arm_cp.0_0
        0x08000784:    20001224    $..     DCD    536875556
    __arm_cp.0_1
        0x08000788:    20001228    (..     DCD    536875560
    $t.2
    hal_setup_clk
        0x0800078c:    b5f0        ..      PUSH     {r4-r7,lr}
        0x0800078e:    b081        ..      SUB      sp,sp,#4
        0x08000790:    2400        .$      MOVS     r4,#0
        0x08000792:    2805        .(      CMP      r0,#5
        0x08000794:    d822        ".      BHI      0x80007dc ; hal_setup_clk + 80
        0x08000796:    4a3c        <J      LDR      r2,[pc,#240] ; [0x8000888] = 0x2625a00
        0x08000798:    4b3c        <K      LDR      r3,[pc,#240] ; [0x800088c] = 0x4c4b400
        0x0800079a:    4e3d        =N      LDR      r6,[pc,#244] ; [0x8000890] = 0x9896800
        0x0800079c:    0080        ..      LSLS     r0,r0,#2
        0x0800079e:    a103        ..      ADR      r1,{pc}+0xe ; 0x80007ac
        0x080007a0:    5808        .X      LDR      r0,[r1,r0]
        0x080007a2:    4635        5F      MOV      r5,r6
        0x080007a4:    461f        .F      MOV      r7,r3
        0x080007a6:    4611        .F      MOV      r1,r2
        0x080007a8:    4687        .F      MOV      pc,r0
        0x080007aa:    46c0        .F      MOV      r8,r8
    $d.3
        0x080007ac:    080007c7    ....    DCD    134219719
        0x080007b0:    080007c5    ....    DCD    134219717
        0x080007b4:    080007e3    ....    DCD    134219747
        0x080007b8:    080007e1    ....    DCD    134219745
        0x080007bc:    080007fd    ....    DCD    134219773
        0x080007c0:    080007fb    ....    DCD    134219771
    $t.4
        0x080007c4:    461d        .F      MOV      r5,r3
        0x080007c6:    4834        4H      LDR      r0,[pc,#208] ; [0x8000898] = 0x20001224
        0x080007c8:    2101        .!      MOVS     r1,#1
        0x080007ca:    7001        .p      STRB     r1,[r0,#0]
        0x080007cc:    2000        .       MOVS     r0,#0
        0x080007ce:    f002f887    ....    BL       set_pll_clk_divider ; 0x80028e0
        0x080007d2:    2002        .       MOVS     r0,#2
        0x080007d4:    f002f8b0    ....    BL       clk_mcu_src_set ; 0x8002938
        0x080007d8:    24ff        .$      MOVS     r4,#0xff
        0x080007da:    e021        !.      B        0x8000820 ; hal_setup_clk + 148
        0x080007dc:    43e4        .C      MVNS     r4,r4
        0x080007de:    e050        P.      B        0x8000882 ; hal_setup_clk + 246
        0x080007e0:    4617        .F      MOV      r7,r2
        0x080007e2:    482d        -H      LDR      r0,[pc,#180] ; [0x8000898] = 0x20001224
        0x080007e4:    2101        .!      MOVS     r1,#1
        0x080007e6:    7001        .p      STRB     r1,[r0,#0]
        0x080007e8:    4620         F      MOV      r0,r4
        0x080007ea:    461e        .F      MOV      r6,r3
        0x080007ec:    f002f878    ..x.    BL       set_pll_clk_divider ; 0x80028e0
        0x080007f0:    2002        .       MOVS     r0,#2
        0x080007f2:    f002f8a1    ....    BL       clk_mcu_src_set ; 0x8002938
        0x080007f6:    463d        =F      MOV      r5,r7
        0x080007f8:    e012        ..      B        0x8000820 ; hal_setup_clk + 148
        0x080007fa:    4926        &I      LDR      r1,[pc,#152] ; [0x8000894] = 0x1312d00
        0x080007fc:    460f        .F      MOV      r7,r1
        0x080007fe:    4e26        &N      LDR      r6,[pc,#152] ; [0x8000898] = 0x20001224
        0x08000800:    2501        .%      MOVS     r5,#1
        0x08000802:    7035        5p      STRB     r5,[r6,#0]
        0x08000804:    4620         F      MOV      r0,r4
        0x08000806:    f002f86b    ..k.    BL       set_pll_clk_divider ; 0x80028e0
        0x0800080a:    2002        .       MOVS     r0,#2
        0x0800080c:    f002f894    ....    BL       clk_mcu_src_set ; 0x8002938
        0x08000810:    7830        0x      LDRB     r0,[r6,#0]
        0x08000812:    2800        .(      CMP      r0,#0
        0x08000814:    4628        (F      MOV      r0,r5
        0x08000816:    d100        ..      BNE      0x800081a ; hal_setup_clk + 142
        0x08000818:    43e0        .C      MVNS     r0,r4
        0x0800081a:    4e1b        .N      LDR      r6,[pc,#108] ; [0x8000888] = 0x2625a00
        0x0800081c:    463d        =F      MOV      r5,r7
        0x0800081e:    4604        .F      MOV      r4,r0
        0x08000820:    b260        `.      SXTB     r0,r4
        0x08000822:    f002f8a3    ....    BL       set_sys_clk_divider ; 0x800296c
        0x08000826:    481d        .H      LDR      r0,[pc,#116] ; [0x800089c] = 0x20001048
        0x08000828:    6006        .`      STR      r6,[r0,#0]
        0x0800082a:    481d        .H      LDR      r0,[pc,#116] ; [0x80008a0] = 0x4c4b3ff
        0x0800082c:    4285        .B      CMP      r5,r0
        0x0800082e:    dc0b        ..      BGT      0x8000848 ; hal_setup_clk + 188
        0x08000830:    4818        .H      LDR      r0,[pc,#96] ; [0x8000894] = 0x1312d00
        0x08000832:    4285        .B      CMP      r5,r0
        0x08000834:    d015        ..      BEQ      0x8000862 ; hal_setup_clk + 214
        0x08000836:    4814        .H      LDR      r0,[pc,#80] ; [0x8000888] = 0x2625a00
        0x08000838:    4285        .B      CMP      r5,r0
        0x0800083a:    d10d        ..      BNE      0x8000858 ; hal_setup_clk + 204
        0x0800083c:    4816        .H      LDR      r0,[pc,#88] ; [0x8000898] = 0x20001224
        0x0800083e:    7800        .x      LDRB     r0,[r0,#0]
        0x08000840:    2800        .(      CMP      r0,#0
        0x08000842:    d012        ..      BEQ      0x800086a ; hal_setup_clk + 222
        0x08000844:    2001        .       MOVS     r0,#1
        0x08000846:    e016        ..      B        0x8000876 ; hal_setup_clk + 234
        0x08000848:    4811        .H      LDR      r0,[pc,#68] ; [0x8000890] = 0x9896800
        0x0800084a:    4285        .B      CMP      r5,r0
        0x0800084c:    d010        ..      BEQ      0x8000870 ; hal_setup_clk + 228
        0x0800084e:    480f        .H      LDR      r0,[pc,#60] ; [0x800088c] = 0x4c4b400
        0x08000850:    4285        .B      CMP      r5,r0
        0x08000852:    d101        ..      BNE      0x8000858 ; hal_setup_clk + 204
        0x08000854:    2000        .       MOVS     r0,#0
        0x08000856:    e00e        ..      B        0x8000876 ; hal_setup_clk + 234
        0x08000858:    2400        .$      MOVS     r4,#0
        0x0800085a:    43e0        .C      MVNS     r0,r4
        0x0800085c:    f002f8b6    ....    BL       set_spi_flash_clk_divider ; 0x80029cc
        0x08000860:    e00f        ..      B        0x8000882 ; hal_setup_clk + 246
        0x08000862:    480d        .H      LDR      r0,[pc,#52] ; [0x8000898] = 0x20001224
        0x08000864:    7800        .x      LDRB     r0,[r0,#0]
        0x08000866:    2800        .(      CMP      r0,#0
        0x08000868:    d104        ..      BNE      0x8000874 ; hal_setup_clk + 232
        0x0800086a:    2000        .       MOVS     r0,#0
        0x0800086c:    43c0        .C      MVNS     r0,r0
        0x0800086e:    e002        ..      B        0x8000876 ; hal_setup_clk + 234
        0x08000870:    20ff        .       MOVS     r0,#0xff
        0x08000872:    e000        ..      B        0x8000876 ; hal_setup_clk + 234
        0x08000874:    2002        .       MOVS     r0,#2
        0x08000876:    b240        @.      SXTB     r0,r0
        0x08000878:    f002f8a8    ....    BL       set_spi_flash_clk_divider ; 0x80029cc
        0x0800087c:    4809        .H      LDR      r0,[pc,#36] ; [0x80008a4] = 0x2000104c
        0x0800087e:    6005        .`      STR      r5,[r0,#0]
        0x08000880:    2400        .$      MOVS     r4,#0
        0x08000882:    4620         F      MOV      r0,r4
        0x08000884:    b001        ..      ADD      sp,sp,#4
        0x08000886:    bdf0        ..      POP      {r4-r7,pc}
    $d.5
    __arm_cp.1_0
        0x08000888:    02625a00    .Zb.    DCD    40000000
    __arm_cp.1_1
        0x0800088c:    04c4b400    ....    DCD    80000000
    __arm_cp.1_2
        0x08000890:    09896800    .h..    DCD    160000000
    __arm_cp.1_3
        0x08000894:    01312d00    .-1.    DCD    20000000
    __arm_cp.1_4
        0x08000898:    20001224    $..     DCD    536875556
    __arm_cp.1_5
        0x0800089c:    20001048    H..     DCD    536875080
    __arm_cp.1_6
        0x080008a0:    04c4b3ff    ....    DCD    79999999
    __arm_cp.1_7
        0x080008a4:    2000104c    L..     DCD    536875084
    $t.6
    hal_get_spi_flash_clk
        0x080008a8:    4801        .H      LDR      r0,[pc,#4] ; [0x80008b0] = 0x2000104c
        0x080008aa:    6800        .h      LDR      r0,[r0,#0]
        0x080008ac:    4770        pG      BX       lr
        0x080008ae:    46c0        .F      MOV      r8,r8
    $d.7
    __arm_cp.2_0
        0x080008b0:    2000104c    L..     DCD    536875084
    $t.8
    hal_get_system_clk
        0x080008b4:    4801        .H      LDR      r0,[pc,#4] ; [0x80008bc] = 0x20001048
        0x080008b6:    6800        .h      LDR      r0,[r0,#0]
        0x080008b8:    4770        pG      BX       lr
        0x080008ba:    46c0        .F      MOV      r8,r8
    $d.9
    __arm_cp.3_0
        0x080008bc:    20001048    H..     DCD    536875080
    $t.10
    hal_get_xtal_type
        0x080008c0:    4801        .H      LDR      r0,[pc,#4] ; [0x80008c8] = 0x20001228
        0x080008c2:    7800        .x      LDRB     r0,[r0,#0]
        0x080008c4:    4770        pG      BX       lr
        0x080008c6:    46c0        .F      MOV      r8,r8
    $d.11
    __arm_cp.4_0
        0x080008c8:    20001228    (..     DCD    536875560
    $t.12
    hal_setup_adc_clk
        0x080008cc:    b580        ..      PUSH     {r7,lr}
        0x080008ce:    4802        .H      LDR      r0,[pc,#8] ; [0x80008d8] = 0x20001228
        0x080008d0:    7800        .x      LDRB     r0,[r0,#0]
        0x080008d2:    f002f89f    ....    BL       sys_clk_set_adc_clk ; 0x8002a14
        0x080008d6:    bd80        ..      POP      {r7,pc}
    $d.13
    __arm_cp.5_0
        0x080008d8:    20001228    (..     DCD    536875560
    $t.14
    hal_ms_to_ticks
        0x080008dc:    b510        ..      PUSH     {r4,lr}
        0x080008de:    4604        .F      MOV      r4,r0
        0x080008e0:    4803        .H      LDR      r0,[pc,#12] ; [0x80008f0] = 0x20001048
        0x080008e2:    6800        .h      LDR      r0,[r0,#0]
        0x080008e4:    217d        }!      MOVS     r1,#0x7d
        0x080008e6:    00c9        ..      LSLS     r1,r1,#3
        0x080008e8:    f003f8e1    ....    BL       __aeabi_uidiv ; 0x8003aae
        0x080008ec:    4360        `C      MULS     r0,r4,r0
        0x080008ee:    bd10        ..      POP      {r4,pc}
    $d.15
    __arm_cp.6_0
        0x080008f0:    20001048    H..     DCD    536875080
    $t.0
    hal_uart_init
        0x080008f4:    b5f0        ..      PUSH     {r4-r7,lr}
        0x080008f6:    b083        ..      SUB      sp,sp,#0xc
        0x080008f8:    2802        .(      CMP      r0,#2
        0x080008fa:    d901        ..      BLS      0x8000900 ; hal_uart_init + 12
        0x080008fc:    2402        .$      MOVS     r4,#2
        0x080008fe:    e06b        k.      B        0x80009d8 ; hal_uart_init + 228
        0x08000900:    460e        .F      MOV      r6,r1
        0x08000902:    4605        .F      MOV      r5,r0
        0x08000904:    a802        ..      ADD      r0,sp,#8
        0x08000906:    2400        .$      MOVS     r4,#0
        0x08000908:    7084        .p      STRB     r4,[r0,#2]
        0x0800090a:    2181        .!      MOVS     r1,#0x81
        0x0800090c:    0049        I.      LSLS     r1,r1,#1
        0x0800090e:    8001        ..      STRH     r1,[r0,#0]
        0x08000910:    2d02        .-      CMP      r5,#2
        0x08000912:    d00c        ..      BEQ      0x800092e ; hal_uart_init + 58
        0x08000914:    2d01        .-      CMP      r5,#1
        0x08000916:    d010        ..      BEQ      0x800093a ; hal_uart_init + 70
        0x08000918:    2d00        .-      CMP      r5,#0
        0x0800091a:    d121        !.      BNE      0x8000960 ; hal_uart_init + 108
        0x0800091c:    af02        ..      ADD      r7,sp,#8
        0x0800091e:    70bc        .p      STRB     r4,[r7,#2]
        0x08000920:    2006        .       MOVS     r0,#6
        0x08000922:    4639        9F      MOV      r1,r7
        0x08000924:    f002fc04    ....    BL       gpio_init ; 0x8003130
        0x08000928:    70bc        .p      STRB     r4,[r7,#2]
        0x0800092a:    2007        .       MOVS     r0,#7
        0x0800092c:    e015        ..      B        0x800095a ; hal_uart_init + 102
        0x0800092e:    af02        ..      ADD      r7,sp,#8
        0x08000930:    2001        .       MOVS     r0,#1
        0x08000932:    9001        ..      STR      r0,[sp,#4]
        0x08000934:    70b8        .p      STRB     r0,[r7,#2]
        0x08000936:    2000        .       MOVS     r0,#0
        0x08000938:    e00a        ..      B        0x8000950 ; hal_uart_init + 92
        0x0800093a:    af02        ..      ADD      r7,sp,#8
        0x0800093c:    2001        .       MOVS     r0,#1
        0x0800093e:    70b8        .p      STRB     r0,[r7,#2]
        0x08000940:    2009        .       MOVS     r0,#9
        0x08000942:    4639        9F      MOV      r1,r7
        0x08000944:    f002fbf4    ....    BL       gpio_init ; 0x8003130
        0x08000948:    2003        .       MOVS     r0,#3
        0x0800094a:    9001        ..      STR      r0,[sp,#4]
        0x0800094c:    70b8        .p      STRB     r0,[r7,#2]
        0x0800094e:    2002        .       MOVS     r0,#2
        0x08000950:    4639        9F      MOV      r1,r7
        0x08000952:    f002fbed    ....    BL       gpio_init ; 0x8003130
        0x08000956:    9801        ..      LDR      r0,[sp,#4]
        0x08000958:    70b8        .p      STRB     r0,[r7,#2]
        0x0800095a:    4639        9F      MOV      r1,r7
        0x0800095c:    f002fbe8    ....    BL       gpio_init ; 0x8003130
        0x08000960:    00a8        ..      LSLS     r0,r5,#2
        0x08000962:    a11f        ..      ADR      r1,{pc}+0x7e ; 0x80009e0
        0x08000964:    5808        .X      LDR      r0,[r1,r0]
        0x08000966:    4780        .G      BLX      r0
        0x08000968:    4628        (F      MOV      r0,r5
        0x0800096a:    f001ff9b    ....    BL       uart_rx_fifo_clr ; 0x80028a4
        0x0800096e:    4628        (F      MOV      r0,r5
        0x08000970:    f001ff8c    ....    BL       uart_tx_fifo_clr ; 0x800288c
        0x08000974:    6831        1h      LDR      r1,[r6,#0]
        0x08000976:    4628        (F      MOV      r0,r5
        0x08000978:    f001fe0c    ....    BL       uart_baudrate_set ; 0x8002594
        0x0800097c:    7931        1y      LDRB     r1,[r6,#4]
        0x0800097e:    4628        (F      MOV      r0,r5
        0x08000980:    f001fe50    ..P.    BL       uart_data_width_set ; 0x8002624
        0x08000984:    7971        qy      LDRB     r1,[r6,#5]
        0x08000986:    4628        (F      MOV      r0,r5
        0x08000988:    f001fe58    ..X.    BL       uart_parity_set ; 0x800263c
        0x0800098c:    79b1        .y      LDRB     r1,[r6,#6]
        0x0800098e:    4628        (F      MOV      r0,r5
        0x08000990:    f001fe6a    ..j.    BL       uart_stop_bits_set ; 0x8002668
        0x08000994:    4631        1F      MOV      r1,r6
        0x08000996:    310b        .1      ADDS     r1,r1,#0xb
        0x08000998:    4628        (F      MOV      r0,r5
        0x0800099a:    f001ff65    ..e.    BL       uart_fifo_init ; 0x8002868
        0x0800099e:    79f1        .y      LDRB     r1,[r6,#7]
        0x080009a0:    4628        (F      MOV      r0,r5
        0x080009a2:    f001fe6f    ..o.    BL       uart_set_dma_mode ; 0x8002684
        0x080009a6:    a011        ..      ADR      r0,{pc}+0x46 ; 0x80009ec
        0x080009a8:    5d40        @]      LDRB     r0,[r0,r5]
        0x080009aa:    7a31        1z      LDRB     r1,[r6,#8]
        0x080009ac:    2900        .)      CMP      r1,#0
        0x080009ae:    d006        ..      BEQ      0x80009be ; hal_uart_init + 202
        0x080009b0:    211f        .!      MOVS     r1,#0x1f
        0x080009b2:    4008        .@      ANDS     r0,r0,r1
        0x080009b4:    2101        .!      MOVS     r1,#1
        0x080009b6:    4081        .@      LSLS     r1,r1,r0
        0x080009b8:    480d        .H      LDR      r0,[pc,#52] ; [0x80009f0] = 0xe000e100
        0x080009ba:    6001        .`      STR      r1,[r0,#0]
        0x080009bc:    e009        ..      B        0x80009d2 ; hal_uart_init + 222
        0x080009be:    211f        .!      MOVS     r1,#0x1f
        0x080009c0:    4008        .@      ANDS     r0,r0,r1
        0x080009c2:    2101        .!      MOVS     r1,#1
        0x080009c4:    4081        .@      LSLS     r1,r1,r0
        0x080009c6:    480b        .H      LDR      r0,[pc,#44] ; [0x80009f4] = 0xe000e180
        0x080009c8:    6001        .`      STR      r1,[r0,#0]
        0x080009ca:    f3bf8f4f    ..O.    DSB      
        0x080009ce:    f3bf8f6f    ..o.    ISB      
        0x080009d2:    4809        .H      LDR      r0,[pc,#36] ; [0x80009f8] = 0x200012d0
        0x080009d4:    2120         !      MOVS     r1,#0x20
        0x080009d6:    5541        AU      STRB     r1,[r0,r5]
        0x080009d8:    4620         F      MOV      r0,r4
        0x080009da:    b003        ..      ADD      sp,sp,#0xc
        0x080009dc:    bdf0        ..      POP      {r4-r7,pc}
        0x080009de:    46c0        .F      MOV      r8,r8
    $d.1
    m_uart_enable
        0x080009e0:    08002d15    .-..    DCD    134229269
        0x080009e4:    08002d45    E-..    DCD    134229317
        0x080009e8:    08002d75    u-..    DCD    134229365
    m_uart_nvic
        0x080009ec:    00070605    ....    DCD    460293
    __arm_cp.0_2
        0x080009f0:    e000e100    ....    DCD    3758153984
    __arm_cp.0_3
        0x080009f4:    e000e180    ....    DCD    3758154112
    __arm_cp.0_4
        0x080009f8:    200012d0    ...     DCD    536875728
    $t.2
    hal_uart_deinit
        0x080009fc:    b510        ..      PUSH     {r4,lr}
        0x080009fe:    4604        .F      MOV      r4,r0
        0x08000a00:    0080        ..      LSLS     r0,r0,#2
        0x08000a02:    a103        ..      ADR      r1,{pc}+0xe ; 0x8000a10
        0x08000a04:    5808        .X      LDR      r0,[r1,r0]
        0x08000a06:    4780        .G      BLX      r0
        0x08000a08:    4804        .H      LDR      r0,[pc,#16] ; [0x8000a1c] = 0x200012d0
        0x08000a0a:    2100        .!      MOVS     r1,#0
        0x08000a0c:    5501        .U      STRB     r1,[r0,r4]
        0x08000a0e:    bd10        ..      POP      {r4,pc}
    $d.3
    m_uart_disable
        0x08000a10:    08002d2d    --..    DCD    134229293
        0x08000a14:    08002d5d    ]-..    DCD    134229341
        0x08000a18:    08002d8d    .-..    DCD    134229389
    __arm_cp.1_1
        0x08000a1c:    200012d0    ...     DCD    536875728
    $t.4
    hal_uart_state_get
        0x08000a20:    4901        .I      LDR      r1,[pc,#4] ; [0x8000a28] = 0x200012d0
        0x08000a22:    5c08        .\      LDRB     r0,[r1,r0]
        0x08000a24:    4770        pG      BX       lr
        0x08000a26:    46c0        .F      MOV      r8,r8
    $d.5
    __arm_cp.2_0
        0x08000a28:    200012d0    ...     DCD    536875728
    $t.6
    hal_uart_send_wait
        0x08000a2c:    b5b0        ..      PUSH     {r4,r5,r7,lr}
        0x08000a2e:    4604        .F      MOV      r4,r0
        0x08000a30:    4d07        .M      LDR      r5,[pc,#28] ; [0x8000a50] = 0x200012d0
        0x08000a32:    2021        !       MOVS     r0,#0x21
        0x08000a34:    5528        (U      STRB     r0,[r5,r4]
        0x08000a36:    4620         F      MOV      r0,r4
        0x08000a38:    f001fe38    ..8.    BL       uart_send_bs ; 0x80026ac
        0x08000a3c:    2100        .!      MOVS     r1,#0
        0x08000a3e:    4620         F      MOV      r0,r4
        0x08000a40:    f001fe64    ..d.    BL       uart_get_status ; 0x800270c
        0x08000a44:    2800        .(      CMP      r0,#0
        0x08000a46:    d0f9        ..      BEQ      0x8000a3c ; hal_uart_send_wait + 16
        0x08000a48:    2020                MOVS     r0,#0x20
        0x08000a4a:    5528        (U      STRB     r0,[r5,r4]
        0x08000a4c:    2000        .       MOVS     r0,#0
        0x08000a4e:    bdb0        ..      POP      {r4,r5,r7,pc}
    $d.7
    __arm_cp.3_0
        0x08000a50:    200012d0    ...     DCD    536875728
    $t.8
    hal_uart_recv_wait
        0x08000a54:    b5f0        ..      PUSH     {r4-r7,lr}
        0x08000a56:    b081        ..      SUB      sp,sp,#4
        0x08000a58:    2802        .(      CMP      r0,#2
        0x08000a5a:    d901        ..      BLS      0x8000a60 ; hal_uart_recv_wait + 12
        0x08000a5c:    2002        .       MOVS     r0,#2
        0x08000a5e:    e017        ..      B        0x8000a90 ; hal_uart_recv_wait + 60
        0x08000a60:    4604        .F      MOV      r4,r0
        0x08000a62:    4f0c        .O      LDR      r7,[pc,#48] ; [0x8000a94] = 0x200012d0
        0x08000a64:    5c38        8\      LDRB     r0,[r7,r0]
        0x08000a66:    2820         (      CMP      r0,#0x20
        0x08000a68:    d111        ..      BNE      0x8000a8e ; hal_uart_recv_wait + 58
        0x08000a6a:    4615        .F      MOV      r5,r2
        0x08000a6c:    2022        "       MOVS     r0,#0x22
        0x08000a6e:    5538        8U      STRB     r0,[r7,r4]
        0x08000a70:    2a00        .*      CMP      r2,#0
        0x08000a72:    d008        ..      BEQ      0x8000a86 ; hal_uart_recv_wait + 50
        0x08000a74:    460e        .F      MOV      r6,r1
        0x08000a76:    4620         F      MOV      r0,r4
        0x08000a78:    f001fe3c    ..<.    BL       uart_recv_byte ; 0x80026f4
        0x08000a7c:    7030        0p      STRB     r0,[r6,#0]
        0x08000a7e:    1e6d        m.      SUBS     r5,r5,#1
        0x08000a80:    1c76        v.      ADDS     r6,r6,#1
        0x08000a82:    2d00        .-      CMP      r5,#0
        0x08000a84:    d1f7        ..      BNE      0x8000a76 ; hal_uart_recv_wait + 34
        0x08000a86:    2020                MOVS     r0,#0x20
        0x08000a88:    5538        8U      STRB     r0,[r7,r4]
        0x08000a8a:    2000        .       MOVS     r0,#0
        0x08000a8c:    e000        ..      B        0x8000a90 ; hal_uart_recv_wait + 60
        0x08000a8e:    200a        .       MOVS     r0,#0xa
        0x08000a90:    b001        ..      ADD      sp,sp,#4
        0x08000a92:    bdf0        ..      POP      {r4-r7,pc}
    $d.9
    __arm_cp.4_0
        0x08000a94:    200012d0    ...     DCD    536875728
    $t.10
    hal_uart_transmit_dma_it
        0x08000a98:    b570        p.      PUSH     {r4-r6,lr}
        0x08000a9a:    b082        ..      SUB      sp,sp,#8
        0x08000a9c:    460d        .F      MOV      r5,r1
        0x08000a9e:    4601        .F      MOV      r1,r0
        0x08000aa0:    7800        .x      LDRB     r0,[r0,#0]
        0x08000aa2:    2802        .(      CMP      r0,#2
        0x08000aa4:    d901        ..      BLS      0x8000aaa ; hal_uart_transmit_dma_it + 18
        0x08000aa6:    2002        .       MOVS     r0,#2
        0x08000aa8:    e00f        ..      B        0x8000aca ; hal_uart_transmit_dma_it + 50
        0x08000aaa:    4614        .F      MOV      r4,r2
        0x08000aac:    690e        .i      LDR      r6,[r1,#0x10]
        0x08000aae:    f001ff05    ....    BL       uart_get_dr_addr ; 0x80028bc
        0x08000ab2:    4602        .F      MOV      r2,r0
        0x08000ab4:    2001        .       MOVS     r0,#1
        0x08000ab6:    4669        iF      MOV      r1,sp
        0x08000ab8:    6008        .`      STR      r0,[r1,#0]
        0x08000aba:    4630        0F      MOV      r0,r6
        0x08000abc:    4629        )F      MOV      r1,r5
        0x08000abe:    4623        #F      MOV      r3,r4
        0x08000ac0:    f001fb39    ..9.    BL       hal_dma_start_it ; 0x8002136
        0x08000ac4:    2800        .(      CMP      r0,#0
        0x08000ac6:    d000        ..      BEQ      0x8000aca ; hal_uart_transmit_dma_it + 50
        0x08000ac8:    200a        .       MOVS     r0,#0xa
        0x08000aca:    b002        ..      ADD      sp,sp,#8
        0x08000acc:    bd70        p.      POP      {r4-r6,pc}
    hal_uart_receive_dma_it
        0x08000ace:    b570        p.      PUSH     {r4-r6,lr}
        0x08000ad0:    b082        ..      SUB      sp,sp,#8
        0x08000ad2:    460d        .F      MOV      r5,r1
        0x08000ad4:    4601        .F      MOV      r1,r0
        0x08000ad6:    7800        .x      LDRB     r0,[r0,#0]
        0x08000ad8:    2802        .(      CMP      r0,#2
        0x08000ada:    d901        ..      BLS      0x8000ae0 ; hal_uart_receive_dma_it + 18
        0x08000adc:    2002        .       MOVS     r0,#2
        0x08000ade:    e00f        ..      B        0x8000b00 ; hal_uart_receive_dma_it + 50
        0x08000ae0:    4614        .F      MOV      r4,r2
        0x08000ae2:    694e        Ni      LDR      r6,[r1,#0x14]
        0x08000ae4:    f001feea    ....    BL       uart_get_dr_addr ; 0x80028bc
        0x08000ae8:    4601        .F      MOV      r1,r0
        0x08000aea:    2001        .       MOVS     r0,#1
        0x08000aec:    466a        jF      MOV      r2,sp
        0x08000aee:    6010        .`      STR      r0,[r2,#0]
        0x08000af0:    4630        0F      MOV      r0,r6
        0x08000af2:    462a        *F      MOV      r2,r5
        0x08000af4:    4623        #F      MOV      r3,r4
        0x08000af6:    f001fb1e    ....    BL       hal_dma_start_it ; 0x8002136
        0x08000afa:    2800        .(      CMP      r0,#0
        0x08000afc:    d000        ..      BEQ      0x8000b00 ; hal_uart_receive_dma_it + 50
        0x08000afe:    200a        .       MOVS     r0,#0xa
        0x08000b00:    b002        ..      ADD      sp,sp,#8
        0x08000b02:    bd70        p.      POP      {r4-r6,pc}
    hal_uart_transmit_dma
        0x08000b04:    b570        p.      PUSH     {r4-r6,lr}
        0x08000b06:    b082        ..      SUB      sp,sp,#8
        0x08000b08:    460d        .F      MOV      r5,r1
        0x08000b0a:    4601        .F      MOV      r1,r0
        0x08000b0c:    7800        .x      LDRB     r0,[r0,#0]
        0x08000b0e:    2802        .(      CMP      r0,#2
        0x08000b10:    d901        ..      BLS      0x8000b16 ; hal_uart_transmit_dma + 18
        0x08000b12:    2002        .       MOVS     r0,#2
        0x08000b14:    e00f        ..      B        0x8000b36 ; hal_uart_transmit_dma + 50
        0x08000b16:    4614        .F      MOV      r4,r2
        0x08000b18:    690e        .i      LDR      r6,[r1,#0x10]
        0x08000b1a:    f001fecf    ....    BL       uart_get_dr_addr ; 0x80028bc
        0x08000b1e:    4602        .F      MOV      r2,r0
        0x08000b20:    2001        .       MOVS     r0,#1
        0x08000b22:    4669        iF      MOV      r1,sp
        0x08000b24:    6008        .`      STR      r0,[r1,#0]
        0x08000b26:    4630        0F      MOV      r0,r6
        0x08000b28:    4629        )F      MOV      r1,r5
        0x08000b2a:    4623        #F      MOV      r3,r4
        0x08000b2c:    f001fa42    ..B.    BL       hal_dma_start ; 0x8001fb4
        0x08000b30:    2800        .(      CMP      r0,#0
        0x08000b32:    d000        ..      BEQ      0x8000b36 ; hal_uart_transmit_dma + 50
        0x08000b34:    200a        .       MOVS     r0,#0xa
        0x08000b36:    b002        ..      ADD      sp,sp,#8
        0x08000b38:    bd70        p.      POP      {r4-r6,pc}
    hal_uart_receive_dma
        0x08000b3a:    b570        p.      PUSH     {r4-r6,lr}
        0x08000b3c:    b082        ..      SUB      sp,sp,#8
        0x08000b3e:    460d        .F      MOV      r5,r1
        0x08000b40:    4601        .F      MOV      r1,r0
        0x08000b42:    7800        .x      LDRB     r0,[r0,#0]
        0x08000b44:    2802        .(      CMP      r0,#2
        0x08000b46:    d901        ..      BLS      0x8000b4c ; hal_uart_receive_dma + 18
        0x08000b48:    2002        .       MOVS     r0,#2
        0x08000b4a:    e00f        ..      B        0x8000b6c ; hal_uart_receive_dma + 50
        0x08000b4c:    4614        .F      MOV      r4,r2
        0x08000b4e:    694e        Ni      LDR      r6,[r1,#0x14]
        0x08000b50:    f001feb4    ....    BL       uart_get_dr_addr ; 0x80028bc
        0x08000b54:    4601        .F      MOV      r1,r0
        0x08000b56:    2001        .       MOVS     r0,#1
        0x08000b58:    466a        jF      MOV      r2,sp
        0x08000b5a:    6010        .`      STR      r0,[r2,#0]
        0x08000b5c:    4630        0F      MOV      r0,r6
        0x08000b5e:    462a        *F      MOV      r2,r5
        0x08000b60:    4623        #F      MOV      r3,r4
        0x08000b62:    f001fa27    ..'.    BL       hal_dma_start ; 0x8001fb4
        0x08000b66:    2800        .(      CMP      r0,#0
        0x08000b68:    d000        ..      BEQ      0x8000b6c ; hal_uart_receive_dma + 50
        0x08000b6a:    200a        .       MOVS     r0,#0xa
        0x08000b6c:    b002        ..      ADD      sp,sp,#8
        0x08000b6e:    bd70        p.      POP      {r4-r6,pc}
    hal_fft_init
        0x08000b70:    b580        ..      PUSH     {r7,lr}
        0x08000b72:    f005fa19    ....    BL       fft_dev_init ; 0x8005fa8
        0x08000b76:    4802        .H      LDR      r0,[pc,#8] ; [0x8000b80] = 0x8000b85
        0x08000b78:    f005fa3c    ..<.    BL       fft_irq_callback_set ; 0x8005ff4
        0x08000b7c:    bd80        ..      POP      {r7,pc}
        0x08000b7e:    46c0        .F      MOV      r8,r8
    $d.1
    __arm_cp.0_0
        0x08000b80:    08000b85    ....    DCD    134220677
    $t.2
    invoke_fft_callback
        0x08000b84:    b5f0        ..      PUSH     {r4-r7,lr}
        0x08000b86:    b081        ..      SUB      sp,sp,#4
        0x08000b88:    4604        .F      MOV      r4,r0
        0x08000b8a:    2803        .(      CMP      r0,#3
        0x08000b8c:    d306        ..      BCC      0x8000b9c ; invoke_fft_callback + 24
        0x08000b8e:    201c        .       MOVS     r0,#0x1c
        0x08000b90:    4360        `C      MULS     r0,r4,r0
        0x08000b92:    4910        .I      LDR      r1,[pc,#64] ; [0x8000bd4] = 0x2000113c
        0x08000b94:    1808        ..      ADDS     r0,r1,r0
        0x08000b96:    6940        @i      LDR      r0,[r0,#0x14]
        0x08000b98:    4780        .G      BLX      r0
        0x08000b9a:    e018        ..      B        0x8000bce ; invoke_fft_callback + 74
        0x08000b9c:    261c        .&      MOVS     r6,#0x1c
        0x08000b9e:    4366        fC      MULS     r6,r4,r6
        0x08000ba0:    480c        .H      LDR      r0,[pc,#48] ; [0x8000bd4] = 0x2000113c
        0x08000ba2:    1985        ..      ADDS     r5,r0,r6
        0x08000ba4:    68e8        .h      LDR      r0,[r5,#0xc]
        0x08000ba6:    68a9        .h      LDR      r1,[r5,#8]
        0x08000ba8:    1808        ..      ADDS     r0,r1,r0
        0x08000baa:    60a8        .`      STR      r0,[r5,#8]
        0x08000bac:    462f        /F      MOV      r7,r5
        0x08000bae:    3708        .7      ADDS     r7,r7,#8
        0x08000bb0:    6869        ih      LDR      r1,[r5,#4]
        0x08000bb2:    4288        .B      CMP      r0,r1
        0x08000bb4:    d105        ..      BNE      0x8000bc2 ; invoke_fft_callback + 62
        0x08000bb6:    6968        hi      LDR      r0,[r5,#0x14]
        0x08000bb8:    4780        .G      BLX      r0
        0x08000bba:    4806        .H      LDR      r0,[pc,#24] ; [0x8000bd4] = 0x2000113c
        0x08000bbc:    5980        .Y      LDR      r0,[r0,r6]
        0x08000bbe:    6038        8`      STR      r0,[r7,#0]
        0x08000bc0:    e002        ..      B        0x8000bc8 ; invoke_fft_callback + 68
        0x08000bc2:    6928        (i      LDR      r0,[r5,#0x10]
        0x08000bc4:    4780        .G      BLX      r0
        0x08000bc6:    6838        8h      LDR      r0,[r7,#0]
        0x08000bc8:    69aa        .i      LDR      r2,[r5,#0x18]
        0x08000bca:    4621        !F      MOV      r1,r4
        0x08000bcc:    4790        .G      BLX      r2
        0x08000bce:    b001        ..      ADD      sp,sp,#4
        0x08000bd0:    bdf0        ..      POP      {r4-r7,pc}
        0x08000bd2:    46c0        .F      MOV      r8,r8
    $d.3
    __arm_cp.1_0
        0x08000bd4:    2000113c    <..     DCD    536875324
    $t.4
    hal_fft_notify_set
        0x08000bd8:    231c        .#      MOVS     r3,#0x1c
        0x08000bda:    4343        CC      MULS     r3,r0,r3
        0x08000bdc:    4802        .H      LDR      r0,[pc,#8] ; [0x8000be8] = 0x2000113c
        0x08000bde:    18c0        ..      ADDS     r0,r0,r3
        0x08000be0:    4b02        .K      LDR      r3,[pc,#8] ; [0x8000bec] = 0x8000bf1
        0x08000be2:    3010        .0      ADDS     r0,r0,#0x10
        0x08000be4:    c00e        ..      STM      r0!,{r1-r3}
        0x08000be6:    4770        pG      BX       lr
    $d.5
    __arm_cp.2_0
        0x08000be8:    2000113c    <..     DCD    536875324
    __arm_cp.2_1
        0x08000bec:    08000bf1    ....    DCD    134220785
    $t.6
    fft_fill_this_buffer
        0x08000bf0:    b580        ..      PUSH     {r7,lr}
        0x08000bf2:    1e4a        J.      SUBS     r2,r1,#1
        0x08000bf4:    2a02        .*      CMP      r2,#2
        0x08000bf6:    d209        ..      BCS      0x8000c0c ; fft_fill_this_buffer + 28
        0x08000bf8:    221c        ."      MOVS     r2,#0x1c
        0x08000bfa:    434a        JC      MULS     r2,r1,r2
        0x08000bfc:    4906        .I      LDR      r1,[pc,#24] ; [0x8000c18] = 0x2000113c
        0x08000bfe:    1889        ..      ADDS     r1,r1,r2
        0x08000c00:    68c9        .h      LDR      r1,[r1,#0xc]
        0x08000c02:    0849        I.      LSRS     r1,r1,#1
        0x08000c04:    1809        ..      ADDS     r1,r1,r0
        0x08000c06:    f005f923    ..#.    BL       fft_adc_fft_addr_set ; 0x8005e50
        0x08000c0a:    e004        ..      B        0x8000c16 ; fft_fill_this_buffer + 38
        0x08000c0c:    2900        .)      CMP      r1,#0
        0x08000c0e:    d102        ..      BNE      0x8000c16 ; fft_fill_this_buffer + 38
        0x08000c10:    f005f930    ..0.    BL       fft_adc_rdat_addr_set ; 0x8005e74
        0x08000c14:    bd80        ..      POP      {r7,pc}
        0x08000c16:    bd80        ..      POP      {r7,pc}
    $d.7
    __arm_cp.3_0
        0x08000c18:    2000113c    <..     DCD    536875324
    $t.8
    hal_fft_deinit
        0x08000c1c:    b580        ..      PUSH     {r7,lr}
        0x08000c1e:    f005f9a9    ....    BL       fft_dev_deinit ; 0x8005f74
        0x08000c22:    bd80        ..      POP      {r7,pc}
    hal_fft_set_config
        0x08000c24:    b5f0        ..      PUSH     {r4-r7,lr}
        0x08000c26:    b089        ..      SUB      sp,sp,#0x24
        0x08000c28:    2806        .(      CMP      r0,#6
        0x08000c2a:    d900        ..      BLS      0x8000c2e ; hal_fft_set_config + 10
        0x08000c2c:    e179        y.      B        0x8000f22 ; hal_fft_set_config + 766
        0x08000c2e:    460c        .F      MOV      r4,r1
        0x08000c30:    4478        xD      ADD      r0,r0,pc
        0x08000c32:    7900        .y      LDRB     r0,[r0,#4]
        0x08000c34:    0040        @.      LSLS     r0,r0,#1
        0x08000c36:    4487        .D      ADD      pc,pc,r0
    $d.9
        0x08000c38:    481a0a03    ...H    DCD    1209666051
        0x08000c3c:    00a25f58    X_..    DCD    10641240
    $t.10
        0x08000c40:    6820         h      LDR      r0,[r4,#0]
        0x08000c42:    07c1        ..      LSLS     r1,r0,#31
        0x08000c44:    d000        ..      BEQ      0x8000c48 ; hal_fft_set_config + 36
        0x08000c46:    e0be        ..      B        0x8000dc6 ; hal_fft_set_config + 418
        0x08000c48:    2000        .       MOVS     r0,#0
        0x08000c4a:    4601        .F      MOV      r1,r0
        0x08000c4c:    e0dc        ..      B        0x8000e08 ; hal_fft_set_config + 484
        0x08000c4e:    7820         x      LDRB     r0,[r4,#0]
        0x08000c50:    2800        .(      CMP      r0,#0
        0x08000c52:    d000        ..      BEQ      0x8000c56 ; hal_fft_set_config + 50
        0x08000c54:    2001        .       MOVS     r0,#1
        0x08000c56:    7861        ax      LDRB     r1,[r4,#1]
        0x08000c58:    f005fa72    ..r.    BL       fft_user_win_enable ; 0x8006140
        0x08000c5c:    7820         x      LDRB     r0,[r4,#0]
        0x08000c5e:    2800        .(      CMP      r0,#0
        0x08000c60:    d100        ..      BNE      0x8000c64 ; hal_fft_set_config + 64
        0x08000c62:    e15e        ^.      B        0x8000f22 ; hal_fft_set_config + 766
        0x08000c64:    7861        ax      LDRB     r1,[r4,#1]
        0x08000c66:    6860        `h      LDR      r0,[r4,#4]
        0x08000c68:    f005fa58    ..X.    BL       fft_user_win_cfg ; 0x800611c
        0x08000c6c:    e159        Y.      B        0x8000f22 ; hal_fft_set_config + 766
        0x08000c6e:    6825        %h      LDR      r5,[r4,#0]
        0x08000c70:    0c28        (.      LSRS     r0,r5,#16
        0x08000c72:    f000f961    ..a.    BL       fft_rank_id_get ; 0x8000f38
        0x08000c76:    9005        ..      STR      r0,[sp,#0x14]
        0x08000c78:    68e0        .h      LDR      r0,[r4,#0xc]
        0x08000c7a:    9008        ..      STR      r0,[sp,#0x20]
        0x08000c7c:    6927        'i      LDR      r7,[r4,#0x10]
        0x08000c7e:    6960        `i      LDR      r0,[r4,#0x14]
        0x08000c80:    8921        !.      LDRH     r1,[r4,#8]
        0x08000c82:    9107        ..      STR      r1,[sp,#0x1c]
        0x08000c84:    88e1        ..      LDRH     r1,[r4,#6]
        0x08000c86:    9106        ..      STR      r1,[sp,#0x18]
        0x08000c88:    88a6        ..      LDRH     r6,[r4,#4]
        0x08000c8a:    49a7        .I      LDR      r1,[pc,#668] ; [0x8000f28] = 0x2000113c
        0x08000c8c:    6688        .f      STR      r0,[r1,#0x68]
        0x08000c8e:    2401        .$      MOVS     r4,#1
        0x08000c90:    4628        (F      MOV      r0,r5
        0x08000c92:    4020         @      ANDS     r0,r0,r4
        0x08000c94:    f005f9a4    ....    BL       fft_input_data_type_set ; 0x8005fe0
        0x08000c98:    4668        hF      MOV      r0,sp
        0x08000c9a:    6007        .`      STR      r7,[r0,#0]
        0x08000c9c:    0128        (.      LSLS     r0,r5,#4
        0x08000c9e:    2120         !      MOVS     r1,#0x20
        0x08000ca0:    4001        .@      ANDS     r1,r1,r0
        0x08000ca2:    201f        .       MOVS     r0,#0x1f
        0x08000ca4:    9a05        ..      LDR      r2,[sp,#0x14]
        0x08000ca6:    4010        .@      ANDS     r0,r0,r2
        0x08000ca8:    1840        @.      ADDS     r0,r0,r1
        0x08000caa:    0431        1.      LSLS     r1,r6,#16
        0x08000cac:    1840        @.      ADDS     r0,r0,r1
        0x08000cae:    0429        ).      LSLS     r1,r5,#16
        0x08000cb0:    0c89        ..      LSRS     r1,r1,#18
        0x08000cb2:    9a06        ..      LDR      r2,[sp,#0x18]
        0x08000cb4:    0412        ..      LSLS     r2,r2,#16
        0x08000cb6:    1851        Q.      ADDS     r1,r2,r1
        0x08000cb8:    9a07        ..      LDR      r2,[sp,#0x1c]
        0x08000cba:    9b08        ..      LDR      r3,[sp,#0x20]
        0x08000cbc:    f005f9ec    ....    BL       fft_user_fft_cfg ; 0x8006098
        0x08000cc0:    2103        .!      MOVS     r1,#3
        0x08000cc2:    4620         F      MOV      r0,r4
        0x08000cc4:    f005f99a    ....    BL       fft_irq_enable ; 0x8005ffc
        0x08000cc8:    e12b        +.      B        0x8000f22 ; hal_fft_set_config + 766
        0x08000cca:    7820         x      LDRB     r0,[r4,#0]
        0x08000ccc:    2800        .(      CMP      r0,#0
        0x08000cce:    d000        ..      BEQ      0x8000cd2 ; hal_fft_set_config + 174
        0x08000cd0:    2001        .       MOVS     r0,#1
        0x08000cd2:    7861        ax      LDRB     r1,[r4,#1]
        0x08000cd4:    f005f92c    ..,.    BL       fft_adc_win_enable ; 0x8005f30
        0x08000cd8:    7820         x      LDRB     r0,[r4,#0]
        0x08000cda:    2800        .(      CMP      r0,#0
        0x08000cdc:    d100        ..      BNE      0x8000ce0 ; hal_fft_set_config + 188
        0x08000cde:    e120         .      B        0x8000f22 ; hal_fft_set_config + 766
        0x08000ce0:    7861        ax      LDRB     r1,[r4,#1]
        0x08000ce2:    6860        `h      LDR      r0,[r4,#4]
        0x08000ce4:    f005f908    ....    BL       fft_adc_win_cfg ; 0x8005ef8
        0x08000ce8:    e11b        ..      B        0x8000f22 ; hal_fft_set_config + 766
        0x08000cea:    6827        'h      LDR      r7,[r4,#0]
        0x08000cec:    07f8        ..      LSLS     r0,r7,#31
        0x08000cee:    d000        ..      BEQ      0x8000cf2 ; hal_fft_set_config + 206
        0x08000cf0:    e092        ..      B        0x8000e18 ; hal_fft_set_config + 500
        0x08000cf2:    2000        .       MOVS     r0,#0
        0x08000cf4:    2101        .!      MOVS     r1,#1
        0x08000cf6:    e0d0        ..      B        0x8000e9a ; hal_fft_set_config + 630
        0x08000cf8:    6826        &h      LDR      r6,[r4,#0]
        0x08000cfa:    07f0        ..      LSLS     r0,r6,#31
        0x08000cfc:    d100        ..      BNE      0x8000d00 ; hal_fft_set_config + 220
        0x08000cfe:    e10b        ..      B        0x8000f18 ; hal_fft_set_config + 756
        0x08000d00:    6865        eh      LDR      r5,[r4,#4]
        0x08000d02:    b2a8        ..      UXTH     r0,r5
        0x08000d04:    f000f918    ....    BL       fft_rank_id_get ; 0x8000f38
        0x08000d08:    9004        ..      STR      r0,[sp,#0x10]
        0x08000d0a:    0c28        (.      LSRS     r0,r5,#16
        0x08000d0c:    f000f914    ....    BL       fft_rank_id_get ; 0x8000f38
        0x08000d10:    9005        ..      STR      r0,[sp,#0x14]
        0x08000d12:    8920         .      LDRH     r0,[r4,#8]
        0x08000d14:    9007        ..      STR      r0,[sp,#0x1c]
        0x08000d16:    8961        a.      LDRH     r1,[r4,#0xa]
        0x08000d18:    89a3        ..      LDRH     r3,[r4,#0xc]
        0x08000d1a:    6922        "i      LDR      r2,[r4,#0x10]
        0x08000d1c:    4d82        .M      LDR      r5,[pc,#520] ; [0x8000f28] = 0x2000113c
        0x08000d1e:    4883        .H      LDR      r0,[pc,#524] ; [0x8000f2c] = 0x8000bf1
        0x08000d20:    6528        (e      STR      r0,[r5,#0x50]
        0x08000d22:    63aa        .c      STR      r2,[r5,#0x38]
        0x08000d24:    9306        ..      STR      r3,[sp,#0x18]
        0x08000d26:    4618        .F      MOV      r0,r3
        0x08000d28:    9108        ..      STR      r1,[sp,#0x20]
        0x08000d2a:    4348        HC      MULS     r0,r1,r0
        0x08000d2c:    0081        ..      LSLS     r1,r0,#2
        0x08000d2e:    9102        ..      STR      r1,[sp,#8]
        0x08000d30:    0730        0.      LSLS     r0,r6,#28
        0x08000d32:    0fc0        ..      LSRS     r0,r0,#31
        0x08000d34:    4348        HC      MULS     r0,r1,r0
        0x08000d36:    1840        @.      ADDS     r0,r0,r1
        0x08000d38:    642a        *d      STR      r2,[r5,#0x40]
        0x08000d3a:    9003        ..      STR      r0,[sp,#0xc]
        0x08000d3c:    6468        hd      STR      r0,[r5,#0x44]
        0x08000d3e:    08b0        ..      LSRS     r0,r6,#2
        0x08000d40:    2301        .#      MOVS     r3,#1
        0x08000d42:    4003        .@      ANDS     r3,r3,r0
        0x08000d44:    277f        .'      MOVS     r7,#0x7f
        0x08000d46:    00bd        ..      LSLS     r5,r7,#2
        0x08000d48:    09b1        ..      LSRS     r1,r6,#6
        0x08000d4a:    4029        )@      ANDS     r1,r1,r5
        0x08000d4c:    18c9        ..      ADDS     r1,r1,r3
        0x08000d4e:    027b        {.      LSLS     r3,r7,#9
        0x08000d50:    0af5        ..      LSRS     r5,r6,#11
        0x08000d52:    401d        .@      ANDS     r5,r5,r3
        0x08000d54:    1949        I.      ADDS     r1,r1,r5
        0x08000d56:    4615        .F      MOV      r5,r2
        0x08000d58:    2302        .#      MOVS     r3,#2
        0x08000d5a:    4018        .@      ANDS     r0,r0,r3
        0x08000d5c:    1808        ..      ADDS     r0,r1,r0
        0x08000d5e:    9904        ..      LDR      r1,[sp,#0x10]
        0x08000d60:    0409        ..      LSLS     r1,r1,#16
        0x08000d62:    1847        G.      ADDS     r7,r0,r1
        0x08000d64:    9802        ..      LDR      r0,[sp,#8]
        0x08000d66:    1880        ..      ADDS     r0,r0,r2
        0x08000d68:    9004        ..      STR      r0,[sp,#0x10]
        0x08000d6a:    0630        0.      LSLS     r0,r6,#24
        0x08000d6c:    0f40        @.      LSRS     r0,r0,#29
        0x08000d6e:    d100        ..      BNE      0x8000d72 ; hal_fft_set_config + 334
        0x08000d70:    e09b        ..      B        0x8000eaa ; hal_fft_set_config + 646
        0x08000d72:    6960        `i      LDR      r0,[r4,#0x14]
        0x08000d74:    496c        lI      LDR      r1,[pc,#432] ; [0x8000f28] = 0x2000113c
        0x08000d76:    6488        .d      STR      r0,[r1,#0x48]
        0x08000d78:    9803        ..      LDR      r0,[sp,#0xc]
        0x08000d7a:    0040        @.      LSLS     r0,r0,#1
        0x08000d7c:    e097        ..      B        0x8000eae ; hal_fft_set_config + 650
        0x08000d7e:    78a2        .x      LDRB     r2,[r4,#2]
        0x08000d80:    7865        ex      LDRB     r5,[r4,#1]
        0x08000d82:    7820         x      LDRB     r0,[r4,#0]
        0x08000d84:    0846        F.      LSRS     r6,r0,#1
        0x08000d86:    4628        (F      MOV      r0,r5
        0x08000d88:    4631        1F      MOV      r1,r6
        0x08000d8a:    f000f93d    ..=.    BL       cfar_thr_hw_adapt ; 0x8001008
        0x08000d8e:    70a0        .p      STRB     r0,[r4,#2]
        0x08000d90:    78e2        .x      LDRB     r2,[r4,#3]
        0x08000d92:    4628        (F      MOV      r0,r5
        0x08000d94:    4631        1F      MOV      r1,r6
        0x08000d96:    f000f937    ..7.    BL       cfar_thr_hw_adapt ; 0x8001008
        0x08000d9a:    70e0        .p      STRB     r0,[r4,#3]
        0x08000d9c:    79e2        .y      LDRB     r2,[r4,#7]
        0x08000d9e:    7961        ay      LDRB     r1,[r4,#5]
        0x08000da0:    79a0        .y      LDRB     r0,[r4,#6]
        0x08000da2:    f000f931    ..1.    BL       cfar_thr_hw_adapt ; 0x8001008
        0x08000da6:    71e0        .q      STRB     r0,[r4,#7]
        0x08000da8:    6860        `h      LDR      r0,[r4,#4]
        0x08000daa:    f004fbc9    ....    BL       cfar_vel_dim_cfg ; 0x8005540
        0x08000dae:    6820         h      LDR      r0,[r4,#0]
        0x08000db0:    f004fba8    ....    BL       cfar_range_dim_cfg ; 0x8005504
        0x08000db4:    68a0        .h      LDR      r0,[r4,#8]
        0x08000db6:    f004fb5b    ..[.    BL       cfar_abs_threshold_cfg ; 0x8005470
        0x08000dba:    4622        "F      MOV      r2,r4
        0x08000dbc:    320c        .2      ADDS     r2,r2,#0xc
        0x08000dbe:    ca07        ..      LDM      r2,{r0-r2}
        0x08000dc0:    f004fb5c    ..\.    BL       cfar_det_bmap_addr_cfg ; 0x800547c
        0x08000dc4:    e0ad        ..      B        0x8000f22 ; hal_fft_set_config + 766
        0x08000dc6:    6862        bh      LDR      r2,[r4,#4]
        0x08000dc8:    4b57        WK      LDR      r3,[pc,#348] ; [0x8000f28] = 0x2000113c
        0x08000dca:    4958        XI      LDR      r1,[pc,#352] ; [0x8000f2c] = 0x8000bf1
        0x08000dcc:    6199        .a      STR      r1,[r3,#0x18]
        0x08000dce:    609a        .`      STR      r2,[r3,#8]
        0x08000dd0:    601a        .`      STR      r2,[r3,#0]
        0x08000dd2:    0c05        ..      LSRS     r5,r0,#16
        0x08000dd4:    0401        ..      LSLS     r1,r0,#16
        0x08000dd6:    0cc9        ..      LSRS     r1,r1,#19
        0x08000dd8:    434d        MC      MULS     r5,r1,r5
        0x08000dda:    006e        n.      LSLS     r6,r5,#1
        0x08000ddc:    0785        ..      LSLS     r5,r0,#30
        0x08000dde:    0fed        ..      LSRS     r5,r5,#31
        0x08000de0:    462f        /F      MOV      r7,r5
        0x08000de2:    4377        wC      MULS     r7,r6,r7
        0x08000de4:    19be        ..      ADDS     r6,r7,r6
        0x08000de6:    60de        .`      STR      r6,[r3,#0xc]
        0x08000de8:    0747        G.      LSLS     r7,r0,#29
        0x08000dea:    d502        ..      BPL      0x8000df2 ; hal_fft_set_config + 462
        0x08000dec:    68a7        .h      LDR      r7,[r4,#8]
        0x08000dee:    611f        .a      STR      r7,[r3,#0x10]
        0x08000df0:    0076        v.      LSLS     r6,r6,#1
        0x08000df2:    18b6        ..      ADDS     r6,r6,r2
        0x08000df4:    605e        ^`      STR      r6,[r3,#4]
        0x08000df6:    68e6        .h      LDR      r6,[r4,#0xc]
        0x08000df8:    615e        ^a      STR      r6,[r3,#0x14]
        0x08000dfa:    4b4e        NK      LDR      r3,[pc,#312] ; [0x8000f34] = 0xffff0000
        0x08000dfc:    4018        .@      ANDS     r0,r0,r3
        0x08000dfe:    1828        (.      ADDS     r0,r5,r0
        0x08000e00:    f005f846    ..F.    BL       fft_adc_rdat_cfg ; 0x8005e90
        0x08000e04:    2001        .       MOVS     r0,#1
        0x08000e06:    2100        .!      MOVS     r1,#0
        0x08000e08:    f005f8f8    ....    BL       fft_irq_enable ; 0x8005ffc
        0x08000e0c:    6821        !h      LDR      r1,[r4,#0]
        0x08000e0e:    2001        .       MOVS     r0,#1
        0x08000e10:    4008        .@      ANDS     r0,r0,r1
        0x08000e12:    f005f867    ..g.    BL       fft_adc_rdat_enable ; 0x8005ee4
        0x08000e16:    e084        ..      B        0x8000f22 ; hal_fft_set_config + 766
        0x08000e18:    0438        8.      LSLS     r0,r7,#16
        0x08000e1a:    0d00        ..      LSRS     r0,r0,#20
        0x08000e1c:    f000f88c    ....    BL       fft_rank_id_get ; 0x8000f38
        0x08000e20:    6862        bh      LDR      r2,[r4,#4]
        0x08000e22:    68a5        .h      LDR      r5,[r4,#8]
        0x08000e24:    4940        @I      LDR      r1,[pc,#256] ; [0x8000f28] = 0x2000113c
        0x08000e26:    4b41        AK      LDR      r3,[pc,#260] ; [0x8000f2c] = 0x8000bf1
        0x08000e28:    634b        Kc      STR      r3,[r1,#0x34]
        0x08000e2a:    624d        Mb      STR      r5,[r1,#0x24]
        0x08000e2c:    61cd        .a      STR      r5,[r1,#0x1c]
        0x08000e2e:    0c16        ..      LSRS     r6,r2,#16
        0x08000e30:    0412        ..      LSLS     r2,r2,#16
        0x08000e32:    9208        ..      STR      r2,[sp,#0x20]
        0x08000e34:    0b93        ..      LSRS     r3,r2,#14
        0x08000e36:    9603        ..      STR      r6,[sp,#0xc]
        0x08000e38:    4373        sC      MULS     r3,r6,r3
        0x08000e3a:    077a        z.      LSLS     r2,r7,#29
        0x08000e3c:    0fd6        ..      LSRS     r6,r2,#31
        0x08000e3e:    4632        2F      MOV      r2,r6
        0x08000e40:    435a        ZC      MULS     r2,r3,r2
        0x08000e42:    18d2        ..      ADDS     r2,r2,r3
        0x08000e44:    628a        .b      STR      r2,[r1,#0x28]
        0x08000e46:    0700        ..      LSLS     r0,r0,#28
        0x08000e48:    0ec0        ..      LSRS     r0,r0,#27
        0x08000e4a:    1986        ..      ADDS     r6,r0,r6
        0x08000e4c:    1958        X.      ADDS     r0,r3,r5
        0x08000e4e:    9004        ..      STR      r0,[sp,#0x10]
        0x08000e50:    0d3b        ;.      LSRS     r3,r7,#20
        0x08000e52:    0338        8.      LSLS     r0,r7,#12
        0x08000e54:    0f00        ..      LSRS     r0,r0,#28
        0x08000e56:    9005        ..      STR      r0,[sp,#0x14]
        0x08000e58:    0738        8.      LSLS     r0,r7,#28
        0x08000e5a:    9607        ..      STR      r6,[sp,#0x1c]
        0x08000e5c:    9306        ..      STR      r3,[sp,#0x18]
        0x08000e5e:    d502        ..      BPL      0x8000e66 ; hal_fft_set_config + 578
        0x08000e60:    68e0        .h      LDR      r0,[r4,#0xc]
        0x08000e62:    62c8        .b      STR      r0,[r1,#0x2c]
        0x08000e64:    0052        R.      LSLS     r2,r2,#1
        0x08000e66:    9e03        ..      LDR      r6,[sp,#0xc]
        0x08000e68:    1950        P.      ADDS     r0,r2,r5
        0x08000e6a:    6208        .b      STR      r0,[r1,#0x20]
        0x08000e6c:    6920         i      LDR      r0,[r4,#0x10]
        0x08000e6e:    6308        .c      STR      r0,[r1,#0x30]
        0x08000e70:    2002        .       MOVS     r0,#2
        0x08000e72:    4007        .@      ANDS     r7,r7,r0
        0x08000e74:    0878        x.      LSRS     r0,r7,#1
        0x08000e76:    f005f873    ..s.    BL       fft_dc_cut_enable ; 0x8005f60
        0x08000e7a:    4668        hF      MOV      r0,sp
        0x08000e7c:    9904        ..      LDR      r1,[sp,#0x10]
        0x08000e7e:    6001        .`      STR      r1,[r0,#0]
        0x08000e80:    9808        ..      LDR      r0,[sp,#0x20]
        0x08000e82:    9907        ..      LDR      r1,[sp,#0x1c]
        0x08000e84:    1808        ..      ADDS     r0,r1,r0
        0x08000e86:    9906        ..      LDR      r1,[sp,#0x18]
        0x08000e88:    0409        ..      LSLS     r1,r1,#16
        0x08000e8a:    9a05        ..      LDR      r2,[sp,#0x14]
        0x08000e8c:    1889        ..      ADDS     r1,r1,r2
        0x08000e8e:    4632        2F      MOV      r2,r6
        0x08000e90:    462b        +F      MOV      r3,r5
        0x08000e92:    f004ff47    ..G.    BL       fft_adc_1d_fft_cfg ; 0x8005d24
        0x08000e96:    2001        .       MOVS     r0,#1
        0x08000e98:    4601        .F      MOV      r1,r0
        0x08000e9a:    f005f8af    ....    BL       fft_irq_enable ; 0x8005ffc
        0x08000e9e:    6821        !h      LDR      r1,[r4,#0]
        0x08000ea0:    2001        .       MOVS     r0,#1
        0x08000ea2:    4008        .@      ANDS     r0,r0,r1
        0x08000ea4:    f004ff78    ..x.    BL       fft_adc_1d_fft_enable ; 0x8005d98
        0x08000ea8:    e03b        ;.      B        0x8000f22 ; hal_fft_set_config + 766
        0x08000eaa:    491f        .I      LDR      r1,[pc,#124] ; [0x8000f28] = 0x2000113c
        0x08000eac:    9803        ..      LDR      r0,[sp,#0xc]
        0x08000eae:    1940        @.      ADDS     r0,r0,r5
        0x08000eb0:    63c8        .c      STR      r0,[r1,#0x3c]
        0x08000eb2:    69a0        .i      LDR      r0,[r4,#0x18]
        0x08000eb4:    64c8        .d      STR      r0,[r1,#0x4c]
        0x08000eb6:    401e        .@      ANDS     r6,r6,r3
        0x08000eb8:    0870        p.      LSRS     r0,r6,#1
        0x08000eba:    f005f851    ..Q.    BL       fft_dc_cut_enable ; 0x8005f60
        0x08000ebe:    4668        hF      MOV      r0,sp
        0x08000ec0:    9904        ..      LDR      r1,[sp,#0x10]
        0x08000ec2:    6001        .`      STR      r1,[r0,#0]
        0x08000ec4:    9805        ..      LDR      r0,[sp,#0x14]
        0x08000ec6:    b280        ..      UXTH     r0,r0
        0x08000ec8:    9907        ..      LDR      r1,[sp,#0x1c]
        0x08000eca:    0409        ..      LSLS     r1,r1,#16
        0x08000ecc:    1809        ..      ADDS     r1,r1,r0
        0x08000ece:    9806        ..      LDR      r0,[sp,#0x18]
        0x08000ed0:    0400        ..      LSLS     r0,r0,#16
        0x08000ed2:    9a08        ..      LDR      r2,[sp,#0x20]
        0x08000ed4:    1882        ..      ADDS     r2,r0,r2
        0x08000ed6:    4638        8F      MOV      r0,r7
        0x08000ed8:    462b        +F      MOV      r3,r5
        0x08000eda:    f004ff65    ..e.    BL       fft_adc_2d_fft_cfg ; 0x8005da8
        0x08000ede:    7820         x      LDRB     r0,[r4,#0]
        0x08000ee0:    06c0        ..      LSLS     r0,r0,#27
        0x08000ee2:    d40b        ..      BMI      0x8000efc ; hal_fft_set_config + 728
        0x08000ee4:    2500        .%      MOVS     r5,#0
        0x08000ee6:    4628        (F      MOV      r0,r5
        0x08000ee8:    f004fae0    ....    BL       cfar_enable ; 0x80054ac
        0x08000eec:    4628        (F      MOV      r0,r5
        0x08000eee:    f004fae9    ....    BL       cfar_irq_enable ; 0x80054c4
        0x08000ef2:    2001        .       MOVS     r0,#1
        0x08000ef4:    2102        .!      MOVS     r1,#2
        0x08000ef6:    f005f881    ....    BL       fft_irq_enable ; 0x8005ffc
        0x08000efa:    e00d        ..      B        0x8000f18 ; hal_fft_set_config + 756
        0x08000efc:    2000        .       MOVS     r0,#0
        0x08000efe:    2102        .!      MOVS     r1,#2
        0x08000f00:    f005f87c    ..|.    BL       fft_irq_enable ; 0x8005ffc
        0x08000f04:    480a        .H      LDR      r0,[pc,#40] ; [0x8000f30] = 0x8000fd9
        0x08000f06:    f004fad9    ....    BL       cfar_irq_callback_set ; 0x80054bc
        0x08000f0a:    2501        .%      MOVS     r5,#1
        0x08000f0c:    4628        (F      MOV      r0,r5
        0x08000f0e:    f004facd    ....    BL       cfar_enable ; 0x80054ac
        0x08000f12:    4628        (F      MOV      r0,r5
        0x08000f14:    f004fad6    ....    BL       cfar_irq_enable ; 0x80054c4
        0x08000f18:    6821        !h      LDR      r1,[r4,#0]
        0x08000f1a:    2001        .       MOVS     r0,#1
        0x08000f1c:    4008        .@      ANDS     r0,r0,r1
        0x08000f1e:    f004ff8d    ....    BL       fft_adc_2d_fft_enable ; 0x8005e3c
        0x08000f22:    b009        ..      ADD      sp,sp,#0x24
        0x08000f24:    bdf0        ..      POP      {r4-r7,pc}
        0x08000f26:    46c0        .F      MOV      r8,r8
    $d.11
    __arm_cp.5_0
        0x08000f28:    2000113c    <..     DCD    536875324
    __arm_cp.5_1
        0x08000f2c:    08000bf1    ....    DCD    134220785
    __arm_cp.5_2
        0x08000f30:    08000fd9    ....    DCD    134221785
    __arm_cp.5_3
        0x08000f34:    ffff0000    ....    DCD    4294901760
    $t.12
    fft_rank_id_get
        0x08000f38:    283f        ?(      CMP      r0,#0x3f
        0x08000f3a:    dc09        ..      BGT      0x8000f50 ; fft_rank_id_get + 24
        0x08000f3c:    2807        .(      CMP      r0,#7
        0x08000f3e:    dd15        ..      BLE      0x8000f6c ; fft_rank_id_get + 52
        0x08000f40:    2808        .(      CMP      r0,#8
        0x08000f42:    d01f        ..      BEQ      0x8000f84 ; fft_rank_id_get + 76
        0x08000f44:    2810        .(      CMP      r0,#0x10
        0x08000f46:    d01f        ..      BEQ      0x8000f88 ; fft_rank_id_get + 80
        0x08000f48:    2820         (      CMP      r0,#0x20
        0x08000f4a:    d127        '.      BNE      0x8000f9c ; fft_rank_id_get + 100
        0x08000f4c:    2005        .       MOVS     r0,#5
        0x08000f4e:    4770        pG      BX       lr
        0x08000f50:    28ff        .(      CMP      r0,#0xff
        0x08000f52:    dd11        ..      BLE      0x8000f78 ; fft_rank_id_get + 64
        0x08000f54:    2101        .!      MOVS     r1,#1
        0x08000f56:    020a        ..      LSLS     r2,r1,#8
        0x08000f58:    4290        .B      CMP      r0,r2
        0x08000f5a:    d017        ..      BEQ      0x8000f8c ; fft_rank_id_get + 84
        0x08000f5c:    028a        ..      LSLS     r2,r1,#10
        0x08000f5e:    4290        .B      CMP      r0,r2
        0x08000f60:    d016        ..      BEQ      0x8000f90 ; fft_rank_id_get + 88
        0x08000f62:    0249        I.      LSLS     r1,r1,#9
        0x08000f64:    4288        .B      CMP      r0,r1
        0x08000f66:    d119        ..      BNE      0x8000f9c ; fft_rank_id_get + 100
        0x08000f68:    2009        .       MOVS     r0,#9
        0x08000f6a:    4770        pG      BX       lr
        0x08000f6c:    2802        .(      CMP      r0,#2
        0x08000f6e:    d011        ..      BEQ      0x8000f94 ; fft_rank_id_get + 92
        0x08000f70:    2804        .(      CMP      r0,#4
        0x08000f72:    d113        ..      BNE      0x8000f9c ; fft_rank_id_get + 100
        0x08000f74:    2002        .       MOVS     r0,#2
        0x08000f76:    4770        pG      BX       lr
        0x08000f78:    2840        @(      CMP      r0,#0x40
        0x08000f7a:    d00d        ..      BEQ      0x8000f98 ; fft_rank_id_get + 96
        0x08000f7c:    2880        .(      CMP      r0,#0x80
        0x08000f7e:    d10d        ..      BNE      0x8000f9c ; fft_rank_id_get + 100
        0x08000f80:    2007        .       MOVS     r0,#7
        0x08000f82:    4770        pG      BX       lr
        0x08000f84:    2003        .       MOVS     r0,#3
        0x08000f86:    4770        pG      BX       lr
        0x08000f88:    2004        .       MOVS     r0,#4
        0x08000f8a:    4770        pG      BX       lr
        0x08000f8c:    2008        .       MOVS     r0,#8
        0x08000f8e:    4770        pG      BX       lr
        0x08000f90:    200a        .       MOVS     r0,#0xa
        0x08000f92:    4770        pG      BX       lr
        0x08000f94:    2001        .       MOVS     r0,#1
        0x08000f96:    4770        pG      BX       lr
        0x08000f98:    2006        .       MOVS     r0,#6
        0x08000f9a:    4770        pG      BX       lr
        0x08000f9c:    2000        .       MOVS     r0,#0
        0x08000f9e:    43c0        .C      MVNS     r0,r0
        0x08000fa0:    4770        pG      BX       lr
    fft_range_fft_suspend
        0x08000fa2:    b580        ..      PUSH     {r7,lr}
        0x08000fa4:    2000        .       MOVS     r0,#0
        0x08000fa6:    f004fef7    ....    BL       fft_adc_1d_fft_enable ; 0x8005d98
        0x08000faa:    bd80        ..      POP      {r7,pc}
    fft_range_fft_resume
        0x08000fac:    b580        ..      PUSH     {r7,lr}
        0x08000fae:    2001        .       MOVS     r0,#1
        0x08000fb0:    f004fef2    ....    BL       fft_adc_1d_fft_enable ; 0x8005d98
        0x08000fb4:    bd80        ..      POP      {r7,pc}
    fft_doppler_fft_suspend
        0x08000fb6:    b580        ..      PUSH     {r7,lr}
        0x08000fb8:    2000        .       MOVS     r0,#0
        0x08000fba:    f004ff3f    ..?.    BL       fft_adc_2d_fft_enable ; 0x8005e3c
        0x08000fbe:    bd80        ..      POP      {r7,pc}
    fft_doppler_fft_resume
        0x08000fc0:    b580        ..      PUSH     {r7,lr}
        0x08000fc2:    2001        .       MOVS     r0,#1
        0x08000fc4:    f004ff3a    ..:.    BL       fft_adc_2d_fft_enable ; 0x8005e3c
        0x08000fc8:    bd80        ..      POP      {r7,pc}
    fft_process_trigger
        0x08000fca:    b580        ..      PUSH     {r7,lr}
        0x08000fcc:    2803        .(      CMP      r0,#3
        0x08000fce:    d101        ..      BNE      0x8000fd4 ; fft_process_trigger + 10
        0x08000fd0:    f005f89a    ....    BL       fft_user_fft_start ; 0x8006108
        0x08000fd4:    bd80        ..      POP      {r7,pc}
        0x08000fd6:    46c0        .F      MOV      r8,r8
    invoke_cfar_callback
        0x08000fd8:    b510        ..      PUSH     {r4,lr}
        0x08000fda:    4c0a        .L      LDR      r4,[pc,#40] ; [0x8001004] = 0x2000113c
        0x08000fdc:    6c60        `l      LDR      r0,[r4,#0x44]
        0x08000fde:    6c21        !l      LDR      r1,[r4,#0x40]
        0x08000fe0:    1808        ..      ADDS     r0,r1,r0
        0x08000fe2:    6420         d      STR      r0,[r4,#0x40]
        0x08000fe4:    6be1        .k      LDR      r1,[r4,#0x3c]
        0x08000fe6:    4288        .B      CMP      r0,r1
        0x08000fe8:    d104        ..      BNE      0x8000ff4 ; invoke_cfar_callback + 28
        0x08000fea:    6ce0        .l      LDR      r0,[r4,#0x4c]
        0x08000fec:    4780        .G      BLX      r0
        0x08000fee:    6ba0        .k      LDR      r0,[r4,#0x38]
        0x08000ff0:    6420         d      STR      r0,[r4,#0x40]
        0x08000ff2:    e002        ..      B        0x8000ffa ; invoke_cfar_callback + 34
        0x08000ff4:    6ca0        .l      LDR      r0,[r4,#0x48]
        0x08000ff6:    4780        .G      BLX      r0
        0x08000ff8:    6c20         l      LDR      r0,[r4,#0x40]
        0x08000ffa:    6d22        "m      LDR      r2,[r4,#0x50]
        0x08000ffc:    2102        .!      MOVS     r1,#2
        0x08000ffe:    4790        .G      BLX      r2
        0x08001000:    bd10        ..      POP      {r4,pc}
        0x08001002:    46c0        .F      MOV      r8,r8
    $d.13
    __arm_cp.12_0
        0x08001004:    2000113c    <..     DCD    536875324
    $t.14
    cfar_thr_hw_adapt
        0x08001008:    b5b0        ..      PUSH     {r4,r5,r7,lr}
        0x0800100a:    1a44        D.      SUBS     r4,r0,r1
        0x0800100c:    2c01        .,      CMP      r4,#1
        0x0800100e:    d004        ..      BEQ      0x800101a ; cfar_thr_hw_adapt + 18
        0x08001010:    2c02        .,      CMP      r4,#2
        0x08001012:    d104        ..      BNE      0x800101e ; cfar_thr_hw_adapt + 22
        0x08001014:    2001        .       MOVS     r0,#1
        0x08001016:    0785        ..      LSLS     r5,r0,#30
        0x08001018:    e005        ..      B        0x8001026 ; cfar_thr_hw_adapt + 30
        0x0800101a:    207f        .       MOVS     r0,#0x7f
        0x0800101c:    e002        ..      B        0x8001024 ; cfar_thr_hw_adapt + 28
        0x0800101e:    2c06        .,      CMP      r4,#6
        0x08001020:    d21a        ..      BCS      0x8001058 ; cfar_thr_hw_adapt + 80
        0x08001022:    2081        .       MOVS     r0,#0x81
        0x08001024:    05c5        ..      LSLS     r5,r0,#23
        0x08001026:    4610        .F      MOV      r0,r2
        0x08001028:    f003fa18    ....    BL       __aeabi_ui2f ; 0x800445c
        0x0800102c:    4601        .F      MOV      r1,r0
        0x0800102e:    4628        (F      MOV      r0,r5
        0x08001030:    f006f876    ..v.    BL       __aeabi_fmul ; 0x8007120
        0x08001034:    4605        .F      MOV      r5,r0
        0x08001036:    4620         F      MOV      r0,r4
        0x08001038:    f003fa10    ....    BL       __aeabi_ui2f ; 0x800445c
        0x0800103c:    4601        .F      MOV      r1,r0
        0x0800103e:    4628        (F      MOV      r0,r5
        0x08001040:    f003f930    ..0.    BL       __aeabi_fdiv ; 0x80042a4
        0x08001044:    f003f904    ....    BL       __aeabi_f2d ; 0x8004250
        0x08001048:    2200        ."      MOVS     r2,#0
        0x0800104a:    4b07        .K      LDR      r3,[pc,#28] ; [0x8001068] = 0x3fe00000
        0x0800104c:    f002ff5c    ..\.    BL       __aeabi_dadd ; 0x8003f08
        0x08001050:    f002ff8a    ....    BL       __aeabi_d2uiz ; 0x8003f68
        0x08001054:    b280        ..      UXTH     r0,r0
        0x08001056:    bdb0        ..      POP      {r4,r5,r7,pc}
        0x08001058:    2c09        .,      CMP      r4,#9
        0x0800105a:    d301        ..      BCC      0x8001060 ; cfar_thr_hw_adapt + 88
        0x0800105c:    2500        .%      MOVS     r5,#0
        0x0800105e:    e7e2        ..      B        0x8001026 ; cfar_thr_hw_adapt + 30
        0x08001060:    2041        A       MOVS     r0,#0x41
        0x08001062:    0605        ..      LSLS     r5,r0,#24
        0x08001064:    e7df        ..      B        0x8001026 ; cfar_thr_hw_adapt + 30
        0x08001066:    46c0        .F      MOV      r8,r8
    $d.15
    __arm_cp.13_0
        0x08001068:    3fe00000    ...?    DCD    1071644672
    $t.0
    radar_fmcw_cfg
        0x0800106c:    b510        ..      PUSH     {r4,lr}
        0x0800106e:    b0d2        ..      SUB      sp,sp,#0x148
        0x08001070:    2051        Q       MOVS     r0,#0x51
        0x08001072:    0082        ..      LSLS     r2,r0,#2
        0x08001074:    ac01        ..      ADD      r4,sp,#4
        0x08001076:    4907        .I      LDR      r1,[pc,#28] ; [0x8001094] = 0x80072c0
        0x08001078:    4620         F      MOV      r0,r4
        0x0800107a:    f7fff90d    ....    BL       __aeabi_memcpy4 ; 0x8000298
        0x0800107e:    4620         F      MOV      r0,r4
        0x08001080:    f000f818    ....    BL       hal_radar_init ; 0x80010b4
        0x08001084:    2800        .(      CMP      r0,#0
        0x08001086:    d002        ..      BEQ      0x800108e ; radar_fmcw_cfg + 34
        0x08001088:    a003        ..      ADR      r0,{pc}+0x10 ; 0x8001098
        0x0800108a:    f002fc99    ....    BL       puts ; 0x80039c0
        0x0800108e:    b052        R.      ADD      sp,sp,#0x148
        0x08001090:    bd10        ..      POP      {r4,pc}
        0x08001092:    46c0        .F      MOV      r8,r8
    $d.1
    __arm_cp.0_0
        0x08001094:    080072c0    .r..    DCD    134247104
        0x08001098:    4f525245    ERRO    DCD    1330795077
        0x0800109c:    72203a52    R: r    DCD    1914714706
        0x080010a0:    72616461    adar    DCD    1918985313
        0x080010a4:    696e6920     ini    DCD    1768843552
        0x080010a8:    61662074    t fa    DCD    1634082932
        0x080010ac:    0d216c69    il!.    DCD    220294249
        0x080010b0:    00000000    ....    DCD    0
    $t.0
    hal_radar_init
        0x080010b4:    b5f0        ..      PUSH     {r4-r7,lr}
        0x080010b6:    b0ab        ..      SUB      sp,sp,#0xac
        0x080010b8:    4605        .F      MOV      r5,r0
        0x080010ba:    a809        ..      ADD      r0,sp,#0x24
        0x080010bc:    2400        .$      MOVS     r4,#0
        0x080010be:    7084        .p      STRB     r4,[r0,#2]
        0x080010c0:    8004        ..      STRH     r4,[r0,#0]
        0x080010c2:    f001fd5b    ..[.    BL       sys_clk_enable_radar ; 0x8002b7c
        0x080010c6:    9508        ..      STR      r5,[sp,#0x20]
        0x080010c8:    4628        (F      MOV      r0,r5
        0x080010ca:    3018        .0      ADDS     r0,r0,#0x18
        0x080010cc:    2137        7!      MOVS     r1,#0x37
        0x080010ce:    0109        ..      LSLS     r1,r1,#4
        0x080010d0:    9103        ..      STR      r1,[sp,#0xc]
        0x080010d2:    215f        _!      MOVS     r1,#0x5f
        0x080010d4:    43ce        .C      MVNS     r6,r1
        0x080010d6:    4625        %F      MOV      r5,r4
        0x080010d8:    00b3        ..      LSLS     r3,r6,#2
        0x080010da:    18c7        ..      ADDS     r7,r0,r3
        0x080010dc:    2317        .#      MOVS     r3,#0x17
        0x080010de:    011b        ..      LSLS     r3,r3,#4
        0x080010e0:    58fb        .X      LDR      r3,[r7,r3]
        0x080010e2:    4a93        .J      LDR      r2,[pc,#588] ; [0x8001330] = 0xea60
        0x080010e4:    4293        .B      CMP      r3,r2
        0x080010e6:    d810        ..      BHI      0x800110a ; hal_radar_init + 86
        0x080010e8:    9a03        ..      LDR      r2,[sp,#0xc]
        0x080010ea:    3278        x2      ADDS     r2,r2,#0x78
        0x080010ec:    435a        ZC      MULS     r2,r3,r2
        0x080010ee:    008b        ..      LSLS     r3,r1,#2
        0x080010f0:    58fb        .X      LDR      r3,[r7,r3]
        0x080010f2:    6807        .h      LDR      r7,[r0,#0]
        0x080010f4:    435f        _C      MULS     r7,r3,r7
        0x080010f6:    18ba        ..      ADDS     r2,r7,r2
        0x080010f8:    4b8e        .K      LDR      r3,[pc,#568] ; [0x8001334] = 0x3938701
        0x080010fa:    429a        .B      CMP      r2,r3
        0x080010fc:    d205        ..      BCS      0x800110a ; hal_radar_init + 86
        0x080010fe:    1c6d        m.      ADDS     r5,r5,#1
        0x08001100:    3018        .0      ADDS     r0,r0,#0x18
        0x08001102:    2d07        .-      CMP      r5,#7
        0x08001104:    d9e8        ..      BLS      0x80010d8 ; hal_radar_init + 36
        0x08001106:    2001        .       MOVS     r0,#1
        0x08001108:    e000        ..      B        0x800110c ; hal_radar_init + 88
        0x0800110a:    4620         F      MOV      r0,r4
        0x0800110c:    9f08        ..      LDR      r7,[sp,#0x20]
        0x0800110e:    ad28        (.      ADD      r5,sp,#0xa0
        0x08001110:    7028        (p      STRB     r0,[r5,#0]
        0x08001112:    7838        8x      LDRB     r0,[r7,#0]
        0x08001114:    7068        hp      STRB     r0,[r5,#1]
        0x08001116:    1ca8        ..      ADDS     r0,r5,#2
        0x08001118:    1c79        y.      ADDS     r1,r7,#1
        0x0800111a:    2207        ."      MOVS     r2,#7
        0x0800111c:    f002fc66    ..f.    BL       __aeabi_memcpy ; 0x80039ec
        0x08001120:    4628        (F      MOV      r0,r5
        0x08001122:    f005fa93    ....    BL       radar_init ; 0x800664c
        0x08001126:    a926        &.      ADD      r1,sp,#0x98
        0x08001128:    2002        .       MOVS     r0,#2
        0x0800112a:    8088        ..      STRH     r0,[r1,#4]
        0x0800112c:    2501        .%      MOVS     r5,#1
        0x0800112e:    9526        &.      STR      r5,[sp,#0x98]
        0x08001130:    b2e0        ..      UXTB     r0,r4
        0x08001132:    f005fed5    ....    BL       radar_tx_profile_config ; 0x8006ee0
        0x08001136:    1c64        d.      ADDS     r4,r4,#1
        0x08001138:    b2e0        ..      UXTB     r0,r4
        0x0800113a:    2808        .(      CMP      r0,#8
        0x0800113c:    d3f3        ..      BCC      0x8001126 ; hal_radar_init + 114
        0x0800113e:    9504        ..      STR      r5,[sp,#0x10]
        0x08001140:    4632        2F      MOV      r2,r6
        0x08001142:    325f        _2      ADDS     r2,r2,#0x5f
        0x08001144:    2019        .       MOVS     r0,#0x19
        0x08001146:    0100        ..      LSLS     r0,r0,#4
        0x08001148:    9001        ..      STR      r0,[sp,#4]
        0x0800114a:    2500        .%      MOVS     r5,#0
        0x0800114c:    462c        ,F      MOV      r4,r5
        0x0800114e:    9507        ..      STR      r5,[sp,#0x1c]
        0x08001150:    9602        ..      STR      r6,[sp,#8]
        0x08001152:    9206        ..      STR      r2,[sp,#0x18]
        0x08001154:    1938        8.      ADDS     r0,r7,r4
        0x08001156:    6886        .h      LDR      r6,[r0,#8]
        0x08001158:    68c2        .h      LDR      r2,[r0,#0xc]
        0x0800115a:    6907        .i      LDR      r7,[r0,#0x10]
        0x0800115c:    6943        Ci      LDR      r3,[r0,#0x14]
        0x0800115e:    6981        .i      LDR      r1,[r0,#0x18]
        0x08001160:    9605        ..      STR      r6,[sp,#0x14]
        0x08001162:    9614        ..      STR      r6,[sp,#0x50]
        0x08001164:    9215        ..      STR      r2,[sp,#0x54]
        0x08001166:    9716        ..      STR      r7,[sp,#0x58]
        0x08001168:    9317        ..      STR      r3,[sp,#0x5c]
        0x0800116a:    aa14        ..      ADD      r2,sp,#0x50
        0x0800116c:    9f04        ..      LDR      r7,[sp,#0x10]
        0x0800116e:    7517        .u      STRB     r7,[r2,#0x14]
        0x08001170:    9f07        ..      LDR      r7,[sp,#0x1c]
        0x08001172:    971b        ..      STR      r7,[sp,#0x6c]
        0x08001174:    9118        ..      STR      r1,[sp,#0x60]
        0x08001176:    2206        ."      MOVS     r2,#6
        0x08001178:    921c        ..      STR      r2,[sp,#0x70]
        0x0800117a:    2250        P"      MOVS     r2,#0x50
        0x0800117c:    921a        ..      STR      r2,[sp,#0x68]
        0x0800117e:    434b        KC      MULS     r3,r1,r3
        0x08001180:    496d        mI      LDR      r1,[pc,#436] ; [0x8001338] = 0x1e8480
        0x08001182:    428b        .B      CMP      r3,r1
        0x08001184:    d801        ..      BHI      0x800118a ; hal_radar_init + 214
        0x08001186:    463a        :F      MOV      r2,r7
        0x08001188:    e000        ..      B        0x800118c ; hal_radar_init + 216
        0x0800118a:    2282        ."      MOVS     r2,#0x82
        0x0800118c:    9f08        ..      LDR      r7,[sp,#0x20]
        0x0800118e:    9e02        ..      LDR      r6,[sp,#8]
        0x08001190:    921f        ..      STR      r2,[sp,#0x7c]
        0x08001192:    428b        .B      CMP      r3,r1
        0x08001194:    d802        ..      BHI      0x800119c ; hal_radar_init + 232
        0x08001196:    9b07        ..      LDR      r3,[sp,#0x1c]
        0x08001198:    4619        .F      MOV      r1,r3
        0x0800119a:    e004        ..      B        0x80011a6 ; hal_radar_init + 242
        0x0800119c:    217d        }!      MOVS     r1,#0x7d
        0x0800119e:    0109        ..      LSLS     r1,r1,#4
        0x080011a0:    9b05        ..      LDR      r3,[sp,#0x14]
        0x080011a2:    1859        Y.      ADDS     r1,r3,r1
        0x080011a4:    9b07        ..      LDR      r3,[sp,#0x1c]
        0x080011a6:    911e        ..      STR      r1,[sp,#0x78]
        0x080011a8:    69c0        .i      LDR      r0,[r0,#0x1c]
        0x080011aa:    2800        .(      CMP      r0,#0
        0x080011ac:    4619        .F      MOV      r1,r3
        0x080011ae:    d008        ..      BEQ      0x80011c2 ; hal_radar_init + 270
        0x080011b0:    4611        .F      MOV      r1,r2
        0x080011b2:    9b03        ..      LDR      r3,[sp,#0xc]
        0x080011b4:    4319        .C      ORRS     r1,r1,r3
        0x080011b6:    4288        .B      CMP      r0,r1
        0x080011b8:    9901        ..      LDR      r1,[sp,#4]
        0x080011ba:    d902        ..      BLS      0x80011c2 ; hal_radar_init + 270
        0x080011bc:    495f        _I      LDR      r1,[pc,#380] ; [0x800133c] = 0xfffffe20
        0x080011be:    1a89        ..      SUBS     r1,r1,r2
        0x080011c0:    1809        ..      ADDS     r1,r1,r0
        0x080011c2:    911d        ..      STR      r1,[sp,#0x74]
        0x080011c4:    b2e8        ..      UXTB     r0,r5
        0x080011c6:    a914        ..      ADD      r1,sp,#0x50
        0x080011c8:    f005f852    ..R.    BL       radar_chirp_profile_config ; 0x8006270
        0x080011cc:    981d        ..      LDR      r0,[sp,#0x74]
        0x080011ce:    9a06        ..      LDR      r2,[sp,#0x18]
        0x080011d0:    4290        .B      CMP      r0,r2
        0x080011d2:    4601        .F      MOV      r1,r0
        0x080011d4:    d300        ..      BCC      0x80011d8 ; hal_radar_init + 292
        0x080011d6:    4611        .F      MOV      r1,r2
        0x080011d8:    2800        .(      CMP      r0,#0
        0x080011da:    d100        ..      BNE      0x80011de ; hal_radar_init + 298
        0x080011dc:    4611        .F      MOV      r1,r2
        0x080011de:    3418        .4      ADDS     r4,r4,#0x18
        0x080011e0:    1c6d        m.      ADDS     r5,r5,#1
        0x080011e2:    2cc0        .,      CMP      r4,#0xc0
        0x080011e4:    460a        .F      MOV      r2,r1
        0x080011e6:    d1b4        ..      BNE      0x8001152 ; hal_radar_init + 158
        0x080011e8:    9100        ..      STR      r1,[sp,#0]
        0x080011ea:    4638        8F      MOV      r0,r7
        0x080011ec:    30cc        .0      ADDS     r0,r0,#0xcc
        0x080011ee:    9007        ..      STR      r0,[sp,#0x1c]
        0x080011f0:    4638        8F      MOV      r0,r7
        0x080011f2:    30cb        .0      ADDS     r0,r0,#0xcb
        0x080011f4:    9006        ..      STR      r0,[sp,#0x18]
        0x080011f6:    4638        8F      MOV      r0,r7
        0x080011f8:    30ca        .0      ADDS     r0,r0,#0xca
        0x080011fa:    9005        ..      STR      r0,[sp,#0x14]
        0x080011fc:    4638        8F      MOV      r0,r7
        0x080011fe:    30c9        .0      ADDS     r0,r0,#0xc9
        0x08001200:    9004        ..      STR      r0,[sp,#0x10]
        0x08001202:    4638        8F      MOV      r0,r7
        0x08001204:    30c8        .0      ADDS     r0,r0,#0xc8
        0x08001206:    9003        ..      STR      r0,[sp,#0xc]
        0x08001208:    2400        .$      MOVS     r4,#0
        0x0800120a:    4627        'F      MOV      r7,r4
        0x0800120c:    9803        ..      LDR      r0,[sp,#0xc]
        0x0800120e:    1980        ..      ADDS     r0,r0,r6
        0x08001210:    2260        `"      MOVS     r2,#0x60
        0x08001212:    5c80        .\      LDRB     r0,[r0,r2]
        0x08001214:    a910        ..      ADD      r1,sp,#0x40
        0x08001216:    7008        .p      STRB     r0,[r1,#0]
        0x08001218:    9804        ..      LDR      r0,[sp,#0x10]
        0x0800121a:    1980        ..      ADDS     r0,r0,r6
        0x0800121c:    5c80        .\      LDRB     r0,[r0,r2]
        0x0800121e:    7048        Hp      STRB     r0,[r1,#1]
        0x08001220:    9805        ..      LDR      r0,[sp,#0x14]
        0x08001222:    1980        ..      ADDS     r0,r0,r6
        0x08001224:    5c80        .\      LDRB     r0,[r0,r2]
        0x08001226:    7088        .p      STRB     r0,[r1,#2]
        0x08001228:    9806        ..      LDR      r0,[sp,#0x18]
        0x0800122a:    1980        ..      ADDS     r0,r0,r6
        0x0800122c:    5c80        .\      LDRB     r0,[r0,r2]
        0x0800122e:    70c8        .p      STRB     r0,[r1,#3]
        0x08001230:    9807        ..      LDR      r0,[sp,#0x1c]
        0x08001232:    1980        ..      ADDS     r0,r0,r6
        0x08001234:    5a80        .Z      LDRH     r0,[r0,r2]
        0x08001236:    8088        ..      STRH     r0,[r1,#4]
        0x08001238:    9808        ..      LDR      r0,[sp,#0x20]
        0x0800123a:    1980        ..      ADDS     r0,r0,r6
        0x0800123c:    2213        ."      MOVS     r2,#0x13
        0x0800123e:    0115        ..      LSLS     r5,r2,#4
        0x08001240:    5940        @Y      LDR      r0,[r0,r5]
        0x08001242:    80cc        ..      STRH     r4,[r1,#6]
        0x08001244:    9412        ..      STR      r4,[sp,#0x48]
        0x08001246:    9013        ..      STR      r0,[sp,#0x4c]
        0x08001248:    b2f8        ..      UXTB     r0,r7
        0x0800124a:    f005fe09    ....    BL       radar_subframe_profile_config ; 0x8006e60
        0x0800124e:    360c        .6      ADDS     r6,r6,#0xc
        0x08001250:    1c7f        ..      ADDS     r7,r7,#1
        0x08001252:    2e00        ..      CMP      r6,#0
        0x08001254:    d1da        ..      BNE      0x800120c ; hal_radar_init + 344
        0x08001256:    2025        %       MOVS     r0,#0x25
        0x08001258:    00c0        ..      LSLS     r0,r0,#3
        0x0800125a:    9f08        ..      LDR      r7,[sp,#0x20]
        0x0800125c:    5838        8X      LDR      r0,[r7,r0]
        0x0800125e:    900a        ..      STR      r0,[sp,#0x28]
        0x08001260:    204b        K       MOVS     r0,#0x4b
        0x08001262:    0080        ..      LSLS     r0,r0,#2
        0x08001264:    5838        8X      LDR      r0,[r7,r0]
        0x08001266:    900b        ..      STR      r0,[sp,#0x2c]
        0x08001268:    5d78        x]      LDRB     r0,[r7,r5]
        0x0800126a:    24ff        .$      MOVS     r4,#0xff
        0x0800126c:    4621        !F      MOV      r1,r4
        0x0800126e:    3132        21      ADDS     r1,r1,#0x32
        0x08001270:    5c79        y\      LDRB     r1,[r7,r1]
        0x08001272:    0209        ..      LSLS     r1,r1,#8
        0x08001274:    1808        ..      ADDS     r0,r1,r0
        0x08001276:    2199        .!      MOVS     r1,#0x99
        0x08001278:    0049        I.      LSLS     r1,r1,#1
        0x0800127a:    5c79        y\      LDRB     r1,[r7,r1]
        0x0800127c:    4622        "F      MOV      r2,r4
        0x0800127e:    3234        42      ADDS     r2,r2,#0x34
        0x08001280:    5cba        .\      LDRB     r2,[r7,r2]
        0x08001282:    0212        ..      LSLS     r2,r2,#8
        0x08001284:    1851        Q.      ADDS     r1,r2,r1
        0x08001286:    0409        ..      LSLS     r1,r1,#16
        0x08001288:    1808        ..      ADDS     r0,r1,r0
        0x0800128a:    219b        .!      MOVS     r1,#0x9b
        0x0800128c:    0049        I.      LSLS     r1,r1,#1
        0x0800128e:    5c79        y\      LDRB     r1,[r7,r1]
        0x08001290:    4622        "F      MOV      r2,r4
        0x08001292:    3238        82      ADDS     r2,r2,#0x38
        0x08001294:    5cba        .\      LDRB     r2,[r7,r2]
        0x08001296:    234d        M#      MOVS     r3,#0x4d
        0x08001298:    009b        ..      LSLS     r3,r3,#2
        0x0800129a:    5cfb        .\      LDRB     r3,[r7,r3]
        0x0800129c:    4625        %F      MOV      r5,r4
        0x0800129e:    3536        65      ADDS     r5,r5,#0x36
        0x080012a0:    5d7d        }]      LDRB     r5,[r7,r5]
        0x080012a2:    900d        ..      STR      r0,[sp,#0x34]
        0x080012a4:    0228        (.      LSLS     r0,r5,#8
        0x080012a6:    18c0        ..      ADDS     r0,r0,r3
        0x080012a8:    0212        ..      LSLS     r2,r2,#8
        0x080012aa:    1851        Q.      ADDS     r1,r2,r1
        0x080012ac:    0409        ..      LSLS     r1,r1,#16
        0x080012ae:    1808        ..      ADDS     r0,r1,r0
        0x080012b0:    900e        ..      STR      r0,[sp,#0x38]
        0x080012b2:    2027        '       MOVS     r0,#0x27
        0x080012b4:    00c0        ..      LSLS     r0,r0,#3
        0x080012b6:    5c39        9\      LDRB     r1,[r7,r0]
        0x080012b8:    a80a        ..      ADD      r0,sp,#0x28
        0x080012ba:    7501        .u      STRB     r1,[r0,#0x14]
        0x080012bc:    2600        .&      MOVS     r6,#0
        0x080012be:    960c        ..      STR      r6,[sp,#0x30]
        0x080012c0:    f005f948    ..H.    BL       radar_frame_config ; 0x8006554
        0x080012c4:    9801        ..      LDR      r0,[sp,#4]
        0x080012c6:    9900        ..      LDR      r1,[sp,#0]
        0x080012c8:    4281        .B      CMP      r1,r0
        0x080012ca:    463d        =F      MOV      r5,r7
        0x080012cc:    d201        ..      BCS      0x80012d2 ; hal_radar_init + 542
        0x080012ce:    2014        .       MOVS     r0,#0x14
        0x080012d0:    e005        ..      B        0x80012de ; hal_radar_init + 554
        0x080012d2:    0908        ..      LSRS     r0,r1,#4
        0x080012d4:    288e        .(      CMP      r0,#0x8e
        0x080012d6:    4620         F      MOV      r0,r4
        0x080012d8:    d801        ..      BHI      0x80012de ; hal_radar_init + 554
        0x080012da:    08c8        ..      LSRS     r0,r1,#3
        0x080012dc:    381e        .8      SUBS     r0,r0,#0x1e
        0x080012de:    b2c0        ..      UXTB     r0,r0
        0x080012e0:    f005f8da    ....    BL       radar_faston_time_set ; 0x8006498
        0x080012e4:    204f        O       MOVS     r0,#0x4f
        0x080012e6:    0080        ..      LSLS     r0,r0,#2
        0x080012e8:    5c29        )\      LDRB     r1,[r5,r0]
        0x080012ea:    a820         .      ADD      r0,sp,#0x80
        0x080012ec:    7041        Ap      STRB     r1,[r0,#1]
        0x080012ee:    7869        ix      LDRB     r1,[r5,#1]
        0x080012f0:    7001        .p      STRB     r1,[r0,#0]
        0x080012f2:    219f        .!      MOVS     r1,#0x9f
        0x080012f4:    0049        I.      LSLS     r1,r1,#1
        0x080012f6:    5a69        iZ      LDRH     r1,[r5,r1]
        0x080012f8:    80c1        ..      STRH     r1,[r0,#6]
        0x080012fa:    2105        .!      MOVS     r1,#5
        0x080012fc:    0189        ..      LSLS     r1,r1,#6
        0x080012fe:    5c69        i\      LDRB     r1,[r5,r1]
        0x08001300:    70c1        .p      STRB     r1,[r0,#3]
        0x08001302:    3442        B4      ADDS     r4,r4,#0x42
        0x08001304:    5d29        )]      LDRB     r1,[r5,r4]
        0x08001306:    7086        .p      STRB     r6,[r0,#2]
        0x08001308:    7101        .q      STRB     r1,[r0,#4]
        0x0800130a:    490d        .I      LDR      r1,[pc,#52] ; [0x8001340] = 0x7d01f40
        0x0800130c:    9125        %.      STR      r1,[sp,#0x94]
        0x0800130e:    490d        .I      LDR      r1,[pc,#52] ; [0x8001344] = 0x3e807d0
        0x08001310:    9124        $.      STR      r1,[sp,#0x90]
        0x08001312:    490d        .I      LDR      r1,[pc,#52] ; [0x8001348] = 0xfa00078
        0x08001314:    9123        #.      STR      r1,[sp,#0x8c]
        0x08001316:    210f        .!      MOVS     r1,#0xf
        0x08001318:    04c9        ..      LSLS     r1,r1,#19
        0x0800131a:    9122        ".      STR      r1,[sp,#0x88]
        0x0800131c:    f005f8c8    ....    BL       radar_filter_cfg ; 0x80064b0
        0x08001320:    a809        ..      ADD      r0,sp,#0x24
        0x08001322:    7006        .p      STRB     r6,[r0,#0]
        0x08001324:    f005f900    ....    BL       radar_filter_dma_cfg ; 0x8006528
        0x08001328:    4630        0F      MOV      r0,r6
        0x0800132a:    b02b        +.      ADD      sp,sp,#0xac
        0x0800132c:    bdf0        ..      POP      {r4-r7,pc}
        0x0800132e:    46c0        .F      MOV      r8,r8
    $d.1
    __arm_cp.0_0
        0x08001330:    0000ea60    `...    DCD    60000
    __arm_cp.0_1
        0x08001334:    03938701    ....    DCD    60000001
    __arm_cp.0_2
        0x08001338:    001e8480    ....    DCD    2000000
    __arm_cp.0_3
        0x0800133c:    fffffe20     ...    DCD    4294966816
    __arm_cp.0_4
        0x08001340:    07d01f40    @...    DCD    131080000
    __arm_cp.0_5
        0x08001344:    03e807d0    ....    DCD    65538000
    __arm_cp.0_6
        0x08001348:    0fa00078    x...    DCD    262144120
    $t.2
    hal_radar_burst_init
        0x0800134c:    b510        ..      PUSH     {r4,lr}
        0x0800134e:    4604        .F      MOV      r4,r0
        0x08001350:    f001fc14    ....    BL       sys_clk_enable_radar ; 0x8002b7c
        0x08001354:    4620         F      MOV      r0,r4
        0x08001356:    f004ff7f    ....    BL       radar_burst_init ; 0x8006258
        0x0800135a:    2000        .       MOVS     r0,#0
        0x0800135c:    bd10        ..      POP      {r4,pc}
    hal_radar_stop
        0x0800135e:    b580        ..      PUSH     {r7,lr}
        0x08001360:    f005f962    ..b.    BL       radar_frame_stop ; 0x8006628
        0x08001364:    f005fd3e    ..>.    BL       radar_rf_pwr_off ; 0x8006de4
        0x08001368:    bd80        ..      POP      {r7,pc}
    hal_radar_start
        0x0800136a:    b580        ..      PUSH     {r7,lr}
        0x0800136c:    f005fd42    ..B.    BL       radar_rf_pwr_on ; 0x8006df4
        0x08001370:    f005f954    ..T.    BL       radar_frame_start ; 0x800661c
        0x08001374:    bd80        ..      POP      {r7,pc}
    hal_radar_deinit
        0x08001376:    b580        ..      PUSH     {r7,lr}
        0x08001378:    f001fc0c    ....    BL       sys_clk_disable_radar ; 0x8002b94
        0x0800137c:    2000        .       MOVS     r0,#0
        0x0800137e:    bd80        ..      POP      {r7,pc}
    hal_radar_lp_start
        0x08001380:    b510        ..      PUSH     {r4,lr}
        0x08001382:    b084        ..      SUB      sp,sp,#0x10
        0x08001384:    2000        .       MOVS     r0,#0
        0x08001386:    9002        ..      STR      r0,[sp,#8]
        0x08001388:    9001        ..      STR      r0,[sp,#4]
        0x0800138a:    9000        ..      STR      r0,[sp,#0]
        0x0800138c:    f005fb9e    ....    BL       radar_lp_timer_get ; 0x8006acc
        0x08001390:    a903        ..      ADD      r1,sp,#0xc
        0x08001392:    7008        .p      STRB     r0,[r1,#0]
        0x08001394:    28ff        .(      CMP      r0,#0xff
        0x08001396:    d10a        ..      BNE      0x80013ae ; hal_radar_lp_start + 46
        0x08001398:    ac03        ..      ADD      r4,sp,#0xc
        0x0800139a:    4620         F      MOV      r0,r4
        0x0800139c:    f000f8d8    ....    BL       hal_timer_get_free ; 0x8001550
        0x080013a0:    4805        .H      LDR      r0,[pc,#20] ; [0x80013b8] = 0x1000004
        0x080013a2:    9000        ..      STR      r0,[sp,#0]
        0x080013a4:    7820         x      LDRB     r0,[r4,#0]
        0x080013a6:    4669        iF      MOV      r1,sp
        0x080013a8:    f000f82a    ..*.    BL       hal_timer_init ; 0x8001400
        0x080013ac:    7820         x      LDRB     r0,[r4,#0]
        0x080013ae:    f005fb55    ..U.    BL       radar_lp_init ; 0x8006a5c
        0x080013b2:    b004        ..      ADD      sp,sp,#0x10
        0x080013b4:    bd10        ..      POP      {r4,pc}
        0x080013b6:    46c0        .F      MOV      r8,r8
    $d.3
    __arm_cp.5_0
        0x080013b8:    01000004    ....    DCD    16777220
    $t.4
    hal_radar_lp_stop
        0x080013bc:    b580        ..      PUSH     {r7,lr}
        0x080013be:    f005fb5f    .._.    BL       radar_lp_pause ; 0x8006a80
        0x080013c2:    bd80        ..      POP      {r7,pc}
    hal_radar_ulp_start
        0x080013c4:    b580        ..      PUSH     {r7,lr}
        0x080013c6:    f005fda7    ....    BL       radar_ulp_init ; 0x8006f18
        0x080013ca:    bd80        ..      POP      {r7,pc}
    hal_radar_ulp_stop
        0x080013cc:    b580        ..      PUSH     {r7,lr}
        0x080013ce:    f005fd97    ....    BL       radar_ulp_deinit ; 0x8006f00
        0x080013d2:    bd80        ..      POP      {r7,pc}
    hal_radar_param_set
        0x080013d4:    b580        ..      PUSH     {r7,lr}
        0x080013d6:    00c0        ..      LSLS     r0,r0,#3
        0x080013d8:    4a02        .J      LDR      r2,[pc,#8] ; [0x80013e4] = 0x8007424
        0x080013da:    5812        .X      LDR      r2,[r2,r0]
        0x080013dc:    4608        .F      MOV      r0,r1
        0x080013de:    4790        .G      BLX      r2
        0x080013e0:    2000        .       MOVS     r0,#0
        0x080013e2:    bd80        ..      POP      {r7,pc}
    $d.5
    __arm_cp.9_0
        0x080013e4:    08007424    $t..    DCD    134247460
    $t.6
    hal_radar_param_get
        0x080013e8:    b510        ..      PUSH     {r4,lr}
        0x080013ea:    460c        .F      MOV      r4,r1
        0x080013ec:    00c0        ..      LSLS     r0,r0,#3
        0x080013ee:    4903        .I      LDR      r1,[pc,#12] ; [0x80013fc] = 0x8007424
        0x080013f0:    1808        ..      ADDS     r0,r1,r0
        0x080013f2:    6840        @h      LDR      r0,[r0,#4]
        0x080013f4:    4780        .G      BLX      r0
        0x080013f6:    6020         `      STR      r0,[r4,#0]
        0x080013f8:    2000        .       MOVS     r0,#0
        0x080013fa:    bd10        ..      POP      {r4,pc}
    $d.7
    __arm_cp.10_0
        0x080013fc:    08007424    $t..    DCD    134247460
    $t.0
    hal_timer_init
        0x08001400:    b570        p.      PUSH     {r4-r6,lr}
        0x08001402:    460d        .F      MOV      r5,r1
        0x08001404:    4604        .F      MOV      r4,r0
        0x08001406:    2803        .(      CMP      r0,#3
        0x08001408:    d817        ..      BHI      0x800143a ; hal_timer_init + 58
        0x0800140a:    00a0        ..      LSLS     r0,r4,#2
        0x0800140c:    a101        ..      ADR      r1,{pc}+8 ; 0x8001414
        0x0800140e:    5808        .X      LDR      r0,[r1,r0]
        0x08001410:    4687        .F      MOV      pc,r0
        0x08001412:    46c0        .F      MOV      r8,r8
    $d.1
        0x08001414:    08001425    %...    DCD    134222885
        0x08001418:    0800142b    +...    DCD    134222891
        0x0800141c:    08001431    1...    DCD    134222897
        0x08001420:    08001437    7...    DCD    134222903
    $t.2
        0x08001424:    f001fcc0    ....    BL       sys_clk_enable_timer0 ; 0x8002da8
        0x08001428:    e007        ..      B        0x800143a ; hal_timer_init + 58
        0x0800142a:    f001fcc9    ....    BL       sys_clk_enable_timer1 ; 0x8002dc0
        0x0800142e:    e004        ..      B        0x800143a ; hal_timer_init + 58
        0x08001430:    f001fcd2    ....    BL       sys_clk_enable_timer2 ; 0x8002dd8
        0x08001434:    e001        ..      B        0x800143a ; hal_timer_init + 58
        0x08001436:    f001fcdb    ....    BL       sys_clk_enable_timer3 ; 0x8002df0
        0x0800143a:    7829        )x      LDRB     r1,[r5,#0]
        0x0800143c:    4620         F      MOV      r0,r4
        0x0800143e:    f001ff8d    ....    BL       timer_init ; 0x800335c
        0x08001442:    2003        .       MOVS     r0,#3
        0x08001444:    4360        `C      MULS     r0,r4,r0
        0x08001446:    7829        )x      LDRB     r1,[r5,#0]
        0x08001448:    4a16        .J      LDR      r2,[pc,#88] ; [0x80014a4] = 0x20001279
        0x0800144a:    5411        .T      STRB     r1,[r2,r0]
        0x0800144c:    1810        ..      ADDS     r0,r2,r0
        0x0800144e:    7869        ix      LDRB     r1,[r5,#1]
        0x08001450:    2201        ."      MOVS     r2,#1
        0x08001452:    7082        .p      STRB     r2,[r0,#2]
        0x08001454:    7041        Ap      STRB     r1,[r0,#1]
        0x08001456:    78e8        .x      LDRB     r0,[r5,#3]
        0x08001458:    2800        .(      CMP      r0,#0
        0x0800145a:    d007        ..      BEQ      0x800146c ; hal_timer_init + 108
        0x0800145c:    6869        ih      LDR      r1,[r5,#4]
        0x0800145e:    4620         F      MOV      r0,r4
        0x08001460:    f002f810    ....    BL       timer_cb_set ; 0x8003484
        0x08001464:    4620         F      MOV      r0,r4
        0x08001466:    f001ff8f    ....    BL       timer_irq_enable ; 0x8003388
        0x0800146a:    e002        ..      B        0x8001472 ; hal_timer_init + 114
        0x0800146c:    4620         F      MOV      r0,r4
        0x0800146e:    f001ffa5    ....    BL       timer_irq_disable ; 0x80033bc
        0x08001472:    68a9        .h      LDR      r1,[r5,#8]
        0x08001474:    1c48        H.      ADDS     r0,r1,#1
        0x08001476:    d004        ..      BEQ      0x8001482 ; hal_timer_init + 130
        0x08001478:    4620         F      MOV      r0,r4
        0x0800147a:    f000f815    ....    BL       hal_timer_us_to_ticks ; 0x80014a8
        0x0800147e:    4606        .F      MOV      r6,r0
        0x08001480:    e001        ..      B        0x8001486 ; hal_timer_init + 134
        0x08001482:    2000        .       MOVS     r0,#0
        0x08001484:    43c6        .C      MVNS     r6,r0
        0x08001486:    4620         F      MOV      r0,r4
        0x08001488:    4631        1F      MOV      r1,r6
        0x0800148a:    f001ffe1    ....    BL       timer_reload_set ; 0x8003450
        0x0800148e:    4620         F      MOV      r0,r4
        0x08001490:    4631        1F      MOV      r1,r6
        0x08001492:    f001ffcd    ....    BL       timer_value_set ; 0x8003430
        0x08001496:    78a8        .x      LDRB     r0,[r5,#2]
        0x08001498:    2800        .(      CMP      r0,#0
        0x0800149a:    d002        ..      BEQ      0x80014a2 ; hal_timer_init + 162
        0x0800149c:    4620         F      MOV      r0,r4
        0x0800149e:    f001ffa7    ....    BL       timer_start ; 0x80033f0
        0x080014a2:    bd70        p.      POP      {r4-r6,pc}
    $d.3
    __arm_cp.0_0
        0x080014a4:    20001279    y..     DCD    536875641
    $t.4
    hal_timer_us_to_ticks
        0x080014a8:    b5b0        ..      PUSH     {r4,r5,r7,lr}
        0x080014aa:    460c        .F      MOV      r4,r1
        0x080014ac:    2503        .%      MOVS     r5,#3
        0x080014ae:    4345        EC      MULS     r5,r0,r5
        0x080014b0:    f7fffa00    ....    BL       hal_get_system_clk ; 0x80008b4
        0x080014b4:    4912        .I      LDR      r1,[pc,#72] ; [0x8001500] = 0x20001279
        0x080014b6:    5d4d        M]      LDRB     r5,[r1,r5]
        0x080014b8:    4912        .I      LDR      r1,[pc,#72] ; [0x8001504] = 0xf4240
        0x080014ba:    f002faf8    ....    BL       __aeabi_uidiv ; 0x8003aae
        0x080014be:    2d04        .-      CMP      r5,#4
        0x080014c0:    d80a        ..      BHI      0x80014d8 ; hal_timer_us_to_ticks + 48
        0x080014c2:    46c0        .F      MOV      r8,r8
        0x080014c4:    447d        }D      ADD      r5,r5,pc
        0x080014c6:    792d        -y      LDRB     r5,[r5,#4]
        0x080014c8:    006d        m.      LSLS     r5,r5,#1
        0x080014ca:    44af        .D      ADD      pc,pc,r5
    $d.5
        0x080014cc:    0e0b0802    ....    DCD    235603970
        0x080014d0:    0015        ..      DCW    21
    $t.6
        0x080014d2:    4344        DC      MULS     r4,r0,r4
        0x080014d4:    0924        $.      LSRS     r4,r4,#4
        0x080014d6:    e010        ..      B        0x80014fa ; hal_timer_us_to_ticks + 82
        0x080014d8:    2000        .       MOVS     r0,#0
        0x080014da:    43c4        .C      MVNS     r4,r0
        0x080014dc:    e00d        ..      B        0x80014fa ; hal_timer_us_to_ticks + 82
        0x080014de:    4344        DC      MULS     r4,r0,r4
        0x080014e0:    0964        d.      LSRS     r4,r4,#5
        0x080014e2:    e00a        ..      B        0x80014fa ; hal_timer_us_to_ticks + 82
        0x080014e4:    4344        DC      MULS     r4,r0,r4
        0x080014e6:    09a4        ..      LSRS     r4,r4,#6
        0x080014e8:    e007        ..      B        0x80014fa ; hal_timer_us_to_ticks + 82
        0x080014ea:    0160        `.      LSLS     r0,r4,#5
        0x080014ec:    217d        }!      MOVS     r1,#0x7d
        0x080014ee:    00c9        ..      LSLS     r1,r1,#3
        0x080014f0:    f002fadd    ....    BL       __aeabi_uidiv ; 0x8003aae
        0x080014f4:    4604        .F      MOV      r4,r0
        0x080014f6:    e000        ..      B        0x80014fa ; hal_timer_us_to_ticks + 82
        0x080014f8:    4344        DC      MULS     r4,r0,r4
        0x080014fa:    4620         F      MOV      r0,r4
        0x080014fc:    bdb0        ..      POP      {r4,r5,r7,pc}
        0x080014fe:    46c0        .F      MOV      r8,r8
    $d.7
    __arm_cp.1_0
        0x08001500:    20001279    y..     DCD    536875641
    __arm_cp.1_1
        0x08001504:    000f4240    @B..    DCD    1000000
    $t.8
    hal_timer_deinit
        0x08001508:    b510        ..      PUSH     {r4,lr}
        0x0800150a:    4604        .F      MOV      r4,r0
        0x0800150c:    2803        .(      CMP      r0,#3
        0x0800150e:    d816        ..      BHI      0x800153e ; hal_timer_deinit + 54
        0x08001510:    00a0        ..      LSLS     r0,r4,#2
        0x08001512:    a101        ..      ADR      r1,{pc}+6 ; 0x8001518
        0x08001514:    5808        .X      LDR      r0,[r1,r0]
        0x08001516:    4687        .F      MOV      pc,r0
    $d.9
        0x08001518:    08001529    )...    DCD    134223145
        0x0800151c:    0800152f    /...    DCD    134223151
        0x08001520:    08001535    5...    DCD    134223157
        0x08001524:    0800153b    ;...    DCD    134223163
    $t.10
        0x08001528:    f001fc6e    ..n.    BL       sys_clk_disable_timer0 ; 0x8002e08
        0x0800152c:    e007        ..      B        0x800153e ; hal_timer_deinit + 54
        0x0800152e:    f001fc77    ..w.    BL       sys_clk_disable_timer1 ; 0x8002e20
        0x08001532:    e004        ..      B        0x800153e ; hal_timer_deinit + 54
        0x08001534:    f001fc80    ....    BL       sys_clk_disable_timer2 ; 0x8002e38
        0x08001538:    e001        ..      B        0x800153e ; hal_timer_deinit + 54
        0x0800153a:    f001fc89    ....    BL       sys_clk_disable_timer3 ; 0x8002e50
        0x0800153e:    2003        .       MOVS     r0,#3
        0x08001540:    4360        `C      MULS     r0,r4,r0
        0x08001542:    4902        .I      LDR      r1,[pc,#8] ; [0x800154c] = 0x20001279
        0x08001544:    1808        ..      ADDS     r0,r1,r0
        0x08001546:    2100        .!      MOVS     r1,#0
        0x08001548:    7081        .p      STRB     r1,[r0,#2]
        0x0800154a:    bd10        ..      POP      {r4,pc}
    $d.11
    __arm_cp.2_0
        0x0800154c:    20001279    y..     DCD    536875641
    $t.12
    hal_timer_get_free
        0x08001550:    b510        ..      PUSH     {r4,lr}
        0x08001552:    2100        .!      MOVS     r1,#0
        0x08001554:    4b07        .K      LDR      r3,[pc,#28] ; [0x8001574] = 0x20001279
        0x08001556:    460a        .F      MOV      r2,r1
        0x08001558:    2403        .$      MOVS     r4,#3
        0x0800155a:    4354        TC      MULS     r4,r2,r4
        0x0800155c:    191c        ..      ADDS     r4,r3,r4
        0x0800155e:    78a4        .x      LDRB     r4,[r4,#2]
        0x08001560:    2c00        .,      CMP      r4,#0
        0x08001562:    d004        ..      BEQ      0x800156e ; hal_timer_get_free + 30
        0x08001564:    1c52        R.      ADDS     r2,r2,#1
        0x08001566:    2a04        .*      CMP      r2,#4
        0x08001568:    d3f6        ..      BCC      0x8001558 ; hal_timer_get_free + 8
        0x0800156a:    210a        .!      MOVS     r1,#0xa
        0x0800156c:    22ff        ."      MOVS     r2,#0xff
        0x0800156e:    7002        .p      STRB     r2,[r0,#0]
        0x08001570:    4608        .F      MOV      r0,r1
        0x08001572:    bd10        ..      POP      {r4,pc}
    $d.13
    __arm_cp.3_0
        0x08001574:    20001279    y..     DCD    536875641
    $t.14
    hal_timer_set
        0x08001578:    b570        p.      PUSH     {r4-r6,lr}
        0x0800157a:    4614        .F      MOV      r4,r2
        0x0800157c:    460e        .F      MOV      r6,r1
        0x0800157e:    4605        .F      MOV      r5,r0
        0x08001580:    f001ff42    ..B.    BL       timer_stop ; 0x8003408
        0x08001584:    4628        (F      MOV      r0,r5
        0x08001586:    f001ff6b    ..k.    BL       timer_irq_clear ; 0x8003460
        0x0800158a:    4628        (F      MOV      r0,r5
        0x0800158c:    4631        1F      MOV      r1,r6
        0x0800158e:    f7ffff8b    ....    BL       hal_timer_us_to_ticks ; 0x80014a8
        0x08001592:    4601        .F      MOV      r1,r0
        0x08001594:    4628        (F      MOV      r0,r5
        0x08001596:    f001ff5b    ..[.    BL       timer_reload_set ; 0x8003450
        0x0800159a:    2100        .!      MOVS     r1,#0
        0x0800159c:    4628        (F      MOV      r0,r5
        0x0800159e:    f001ff47    ..G.    BL       timer_value_set ; 0x8003430
        0x080015a2:    4628        (F      MOV      r0,r5
        0x080015a4:    4621        !F      MOV      r1,r4
        0x080015a6:    f001ff6d    ..m.    BL       timer_cb_set ; 0x8003484
        0x080015aa:    bd70        p.      POP      {r4-r6,pc}
    hal_timer_start
        0x080015ac:    b580        ..      PUSH     {r7,lr}
        0x080015ae:    f001ff1f    ....    BL       timer_start ; 0x80033f0
        0x080015b2:    bd80        ..      POP      {r7,pc}
    hal_timer_stop
        0x080015b4:    b580        ..      PUSH     {r7,lr}
        0x080015b6:    f001ff27    ..'.    BL       timer_stop ; 0x8003408
        0x080015ba:    bd80        ..      POP      {r7,pc}
    hal_timer_value_get
        0x080015bc:    b510        ..      PUSH     {r4,lr}
        0x080015be:    2103        .!      MOVS     r1,#3
        0x080015c0:    4341        AC      MULS     r1,r0,r1
        0x080015c2:    4a05        .J      LDR      r2,[pc,#20] ; [0x80015d8] = 0x20001279
        0x080015c4:    1854        T.      ADDS     r4,r2,r1
        0x080015c6:    f001ff2b    ..+.    BL       timer_value_get ; 0x8003420
        0x080015ca:    7861        ax      LDRB     r1,[r4,#1]
        0x080015cc:    2900        .)      CMP      r1,#0
        0x080015ce:    d001        ..      BEQ      0x80015d4 ; hal_timer_value_get + 24
        0x080015d0:    2100        .!      MOVS     r1,#0
        0x080015d2:    43c9        .C      MVNS     r1,r1
        0x080015d4:    4048        H@      EORS     r0,r0,r1
        0x080015d6:    bd10        ..      POP      {r4,pc}
    $d.15
    __arm_cp.7_0
        0x080015d8:    20001279    y..     DCD    536875641
    $t.0
    hal_dualtimer_init
        0x080015dc:    b570        p.      PUSH     {r4-r6,lr}
        0x080015de:    b082        ..      SUB      sp,sp,#8
        0x080015e0:    f001ff66    ..f.    BL       dualtimer_init ; 0x80034b0
        0x080015e4:    466d        mF      MOV      r5,sp
        0x080015e6:    4628        (F      MOV      r0,r5
        0x080015e8:    f001ff78    ..x.    BL       dualtimer_get_default_config ; 0x80034dc
        0x080015ec:    2401        .$      MOVS     r4,#1
        0x080015ee:    702c        ,p      STRB     r4,[r5,#0]
        0x080015f0:    806c        l.      STRH     r4,[r5,#2]
        0x080015f2:    2600        .&      MOVS     r6,#0
        0x080015f4:    4628        (F      MOV      r0,r5
        0x080015f6:    4631        1F      MOV      r1,r6
        0x080015f8:    f001ff78    ..x.    BL       dualtimer_set_config ; 0x80034ec
        0x080015fc:    4628        (F      MOV      r0,r5
        0x080015fe:    f001ff6d    ..m.    BL       dualtimer_get_default_config ; 0x80034dc
        0x08001602:    70ee        .p      STRB     r6,[r5,#3]
        0x08001604:    702c        ,p      STRB     r4,[r5,#0]
        0x08001606:    4628        (F      MOV      r0,r5
        0x08001608:    4621        !F      MOV      r1,r4
        0x0800160a:    f001ff6f    ..o.    BL       dualtimer_set_config ; 0x80034ec
        0x0800160e:    4630        0F      MOV      r0,r6
        0x08001610:    f001ff96    ....    BL       dualtimer_start ; 0x8003540
        0x08001614:    4620         F      MOV      r0,r4
        0x08001616:    f001ff93    ....    BL       dualtimer_start ; 0x8003540
        0x0800161a:    4803        .H      LDR      r0,[pc,#12] ; [0x8001628] = 0xe000e280
        0x0800161c:    2110        .!      MOVS     r1,#0x10
        0x0800161e:    6001        .`      STR      r1,[r0,#0]
        0x08001620:    4802        .H      LDR      r0,[pc,#8] ; [0x800162c] = 0xe000e100
        0x08001622:    6001        .`      STR      r1,[r0,#0]
        0x08001624:    b002        ..      ADD      sp,sp,#8
        0x08001626:    bd70        p.      POP      {r4-r6,pc}
    $d.1
    __arm_cp.0_0
        0x08001628:    e000e280    ....    DCD    3758154368
    __arm_cp.0_1
        0x0800162c:    e000e100    ....    DCD    3758153984
    $t.2
    hal_dualtimer_config
        0x08001630:    b5f0        ..      PUSH     {r4-r7,lr}
        0x08001632:    b083        ..      SUB      sp,sp,#0xc
        0x08001634:    9300        ..      STR      r3,[sp,#0]
        0x08001636:    4616        .F      MOV      r6,r2
        0x08001638:    460f        .F      MOV      r7,r1
        0x0800163a:    4605        .F      MOV      r5,r0
        0x0800163c:    f001ffb0    ....    BL       dualtimer_is_enabled ; 0x80035a0
        0x08001640:    2800        .(      CMP      r0,#0
        0x08001642:    d008        ..      BEQ      0x8001656 ; hal_dualtimer_config + 38
        0x08001644:    4628        (F      MOV      r0,r5
        0x08001646:    f001ff87    ....    BL       dualtimer_stop ; 0x8003558
        0x0800164a:    4810        .H      LDR      r0,[pc,#64] ; [0x800168c] = 0xe000e280
        0x0800164c:    2110        .!      MOVS     r1,#0x10
        0x0800164e:    6001        .`      STR      r1,[r0,#0]
        0x08001650:    4628        (F      MOV      r0,r5
        0x08001652:    f001ff8d    ....    BL       dualtimer_irq_clear ; 0x8003570
        0x08001656:    ac01        ..      ADD      r4,sp,#4
        0x08001658:    4620         F      MOV      r0,r4
        0x0800165a:    f001ff3f    ..?.    BL       dualtimer_get_default_config ; 0x80034dc
        0x0800165e:    7027        'p      STRB     r7,[r4,#0]
        0x08001660:    4620         F      MOV      r0,r4
        0x08001662:    4629        )F      MOV      r1,r5
        0x08001664:    f001ff42    ..B.    BL       dualtimer_set_config ; 0x80034ec
        0x08001668:    f001fa72    ..r.    BL       clk_mcu_get ; 0x8002b50
        0x0800166c:    4908        .I      LDR      r1,[pc,#32] ; [0x8001690] = 0xf4240
        0x0800166e:    f002fa1e    ....    BL       __aeabi_uidiv ; 0x8003aae
        0x08001672:    4346        FC      MULS     r6,r0,r6
        0x08001674:    2100        .!      MOVS     r1,#0
        0x08001676:    4628        (F      MOV      r0,r5
        0x08001678:    4632        2F      MOV      r2,r6
        0x0800167a:    f001ff55    ..U.    BL       dualtimer_set_load ; 0x8003528
        0x0800167e:    4628        (F      MOV      r0,r5
        0x08001680:    9900        ..      LDR      r1,[sp,#0]
        0x08001682:    f001ff87    ....    BL       dualtimer_set_cb ; 0x8003594
        0x08001686:    b003        ..      ADD      sp,sp,#0xc
        0x08001688:    bdf0        ..      POP      {r4-r7,pc}
        0x0800168a:    46c0        .F      MOV      r8,r8
    $d.3
    __arm_cp.1_0
        0x0800168c:    e000e280    ....    DCD    3758154368
    __arm_cp.1_1
        0x08001690:    000f4240    @B..    DCD    1000000
    $t.4
    hal_dualtimer_set_time
        0x08001694:    b570        p.      PUSH     {r4-r6,lr}
        0x08001696:    4614        .F      MOV      r4,r2
        0x08001698:    460d        .F      MOV      r5,r1
        0x0800169a:    4606        .F      MOV      r6,r0
        0x0800169c:    f001fa58    ..X.    BL       clk_mcu_get ; 0x8002b50
        0x080016a0:    4904        .I      LDR      r1,[pc,#16] ; [0x80016b4] = 0xf4240
        0x080016a2:    f002fa04    ....    BL       __aeabi_uidiv ; 0x8003aae
        0x080016a6:    4344        DC      MULS     r4,r0,r4
        0x080016a8:    4630        0F      MOV      r0,r6
        0x080016aa:    4629        )F      MOV      r1,r5
        0x080016ac:    4622        "F      MOV      r2,r4
        0x080016ae:    f001ff3b    ..;.    BL       dualtimer_set_load ; 0x8003528
        0x080016b2:    bd70        p.      POP      {r4-r6,pc}
    $d.5
    __arm_cp.2_0
        0x080016b4:    000f4240    @B..    DCD    1000000
    $t.6
    hal_dualtimer_start
        0x080016b8:    b580        ..      PUSH     {r7,lr}
        0x080016ba:    f001ff41    ..A.    BL       dualtimer_start ; 0x8003540
        0x080016be:    bd80        ..      POP      {r7,pc}
    hal_dualtimer_stop
        0x080016c0:    b580        ..      PUSH     {r7,lr}
        0x080016c2:    f001ff49    ..I.    BL       dualtimer_stop ; 0x8003558
        0x080016c6:    bd80        ..      POP      {r7,pc}
    hal_dualtimer_delay_us
        0x080016c8:    b5b0        ..      PUSH     {r4,r5,r7,lr}
        0x080016ca:    b082        ..      SUB      sp,sp,#8
        0x080016cc:    4605        .F      MOV      r5,r0
        0x080016ce:    f001fa3f    ..?.    BL       clk_mcu_get ; 0x8002b50
        0x080016d2:    490a        .I      LDR      r1,[pc,#40] ; [0x80016fc] = 0xf4240
        0x080016d4:    f002f9eb    ....    BL       __aeabi_uidiv ; 0x8003aae
        0x080016d8:    4604        .F      MOV      r4,r0
        0x080016da:    436c        lC      MULS     r4,r5,r4
        0x080016dc:    d00b        ..      BEQ      0x80016f6 ; hal_dualtimer_delay_us + 46
        0x080016de:    2001        .       MOVS     r0,#1
        0x080016e0:    f001ff50    ..P.    BL       dualtimer_get_value ; 0x8003584
        0x080016e4:    4605        .F      MOV      r5,r0
        0x080016e6:    2001        .       MOVS     r0,#1
        0x080016e8:    f001ff4c    ..L.    BL       dualtimer_get_value ; 0x8003584
        0x080016ec:    9001        ..      STR      r0,[sp,#4]
        0x080016ee:    9801        ..      LDR      r0,[sp,#4]
        0x080016f0:    1a28        (.      SUBS     r0,r5,r0
        0x080016f2:    42a0        .B      CMP      r0,r4
        0x080016f4:    d3f7        ..      BCC      0x80016e6 ; hal_dualtimer_delay_us + 30
        0x080016f6:    b002        ..      ADD      sp,sp,#8
        0x080016f8:    bdb0        ..      POP      {r4,r5,r7,pc}
        0x080016fa:    46c0        .F      MOV      r8,r8
    $d.7
    __arm_cp.5_0
        0x080016fc:    000f4240    @B..    DCD    1000000
    $t.8
    hal_dualtimer_delay_ms
        0x08001700:    b580        ..      PUSH     {r7,lr}
        0x08001702:    217d        }!      MOVS     r1,#0x7d
        0x08001704:    00c9        ..      LSLS     r1,r1,#3
        0x08001706:    4348        HC      MULS     r0,r1,r0
        0x08001708:    f7ffffde    ....    BL       hal_dualtimer_delay_us ; 0x80016c8
        0x0800170c:    bd80        ..      POP      {r7,pc}
    hal_get_start_cnt_value
        0x0800170e:    b580        ..      PUSH     {r7,lr}
        0x08001710:    2001        .       MOVS     r0,#1
        0x08001712:    f001ff37    ..7.    BL       dualtimer_get_value ; 0x8003584
        0x08001716:    bd80        ..      POP      {r7,pc}
    hal_get_elapsed_time_us
        0x08001718:    b570        p.      PUSH     {r4-r6,lr}
        0x0800171a:    4604        .F      MOV      r4,r0
        0x0800171c:    f001fa18    ....    BL       clk_mcu_get ; 0x8002b50
        0x08001720:    4605        .F      MOV      r5,r0
        0x08001722:    2001        .       MOVS     r0,#1
        0x08001724:    f001ff2e    ....    BL       dualtimer_get_value ; 0x8003584
        0x08001728:    4606        .F      MOV      r6,r0
        0x0800172a:    4904        .I      LDR      r1,[pc,#16] ; [0x800173c] = 0xf4240
        0x0800172c:    4628        (F      MOV      r0,r5
        0x0800172e:    f002f9be    ....    BL       __aeabi_uidiv ; 0x8003aae
        0x08001732:    4601        .F      MOV      r1,r0
        0x08001734:    1ba0        ..      SUBS     r0,r4,r6
        0x08001736:    f002f9ba    ....    BL       __aeabi_uidiv ; 0x8003aae
        0x0800173a:    bd70        p.      POP      {r4-r6,pc}
    $d.9
    __arm_cp.8_0
        0x0800173c:    000f4240    @B..    DCD    1000000
    $t.10
    hal_dualtimer_deinit
        0x08001740:    b580        ..      PUSH     {r7,lr}
        0x08001742:    4805        .H      LDR      r0,[pc,#20] ; [0x8001758] = 0xe000e180
        0x08001744:    2110        .!      MOVS     r1,#0x10
        0x08001746:    6001        .`      STR      r1,[r0,#0]
        0x08001748:    f3bf8f4f    ..O.    DSB      
        0x0800174c:    f3bf8f6f    ..o.    ISB      
        0x08001750:    f001feb2    ....    BL       dualtimer_deinit ; 0x80034b8
        0x08001754:    bd80        ..      POP      {r7,pc}
        0x08001756:    46c0        .F      MOV      r8,r8
    $d.11
    __arm_cp.9_0
        0x08001758:    e000e180    ....    DCD    3758154112
    $t.0
    hal_dma_init
        0x0800175c:    b5f0        ..      PUSH     {r4-r7,lr}
        0x0800175e:    b083        ..      SUB      sp,sp,#0xc
        0x08001760:    2800        .(      CMP      r0,#0
        0x08001762:    d100        ..      BNE      0x8001766 ; hal_dma_init + 10
        0x08001764:    e083        ..      B        0x800186e ; 0x800186e
        0x08001766:    4605        .F      MOV      r5,r0
        0x08001768:    6800        .h      LDR      r0,[r0,#0]
        0x0800176a:    4c3c        <L      LDR      r4,[pc,#240] ; [0x800185c] = 0x40100000
        0x0800176c:    42a0        .B      CMP      r0,r4
        0x0800176e:    d000        ..      BEQ      0x8001772 ; hal_dma_init + 22
        0x08001770:    e1e6        ..      B        0x8001b40 ; 0x8001b40
        0x08001772:    686e        nh      LDR      r6,[r5,#4]
        0x08001774:    2e04        ..      CMP      r6,#4
        0x08001776:    d300        ..      BCC      0x800177a ; hal_dma_init + 30
        0x08001778:    e1e7        ..      B        0x8001b4a ; 0x8001b4a
        0x0800177a:    68e8        .h      LDR      r0,[r5,#0xc]
        0x0800177c:    210c        .!      MOVS     r1,#0xc
        0x0800177e:    4001        .@      ANDS     r1,r1,r0
        0x08001780:    290c        .)      CMP      r1,#0xc
        0x08001782:    d100        ..      BNE      0x8001786 ; hal_dma_init + 42
        0x08001784:    e1e6        ..      B        0x8001b54 ; 0x8001b54
        0x08001786:    2160        `!      MOVS     r1,#0x60
        0x08001788:    4001        .@      ANDS     r1,r1,r0
        0x0800178a:    2960        `)      CMP      r1,#0x60
        0x0800178c:    d100        ..      BNE      0x8001790 ; hal_dma_init + 52
        0x0800178e:    e1e6        ..      B        0x8001b5e ; 0x8001b5e
        0x08001790:    2103        .!      MOVS     r1,#3
        0x08001792:    01ca        ..      LSLS     r2,r1,#7
        0x08001794:    4603        .F      MOV      r3,r0
        0x08001796:    4013        .@      ANDS     r3,r3,r2
        0x08001798:    4293        .B      CMP      r3,r2
        0x0800179a:    d100        ..      BNE      0x800179e ; hal_dma_init + 66
        0x0800179c:    e1e4        ..      B        0x8001b68 ; 0x8001b68
        0x0800179e:    0249        I.      LSLS     r1,r1,#9
        0x080017a0:    4008        .@      ANDS     r0,r0,r1
        0x080017a2:    4288        .B      CMP      r0,r1
        0x080017a4:    d100        ..      BNE      0x80017a8 ; hal_dma_init + 76
        0x080017a6:    e1e4        ..      B        0x8001b72 ; 0x8001b72
        0x080017a8:    2040        @       MOVS     r0,#0x40
        0x080017aa:    2100        .!      MOVS     r1,#0
        0x080017ac:    5429        )T      STRB     r1,[r5,r0]
        0x080017ae:    2041        A       MOVS     r0,#0x41
        0x080017b0:    2102        .!      MOVS     r1,#2
        0x080017b2:    5429        )T      STRB     r1,[r5,r0]
        0x080017b4:    4620         F      MOV      r0,r4
        0x080017b6:    4631        1F      MOV      r1,r6
        0x080017b8:    f003ff1a    ....    BL       dma_disable_channel ; 0x80055f0
        0x080017bc:    4628        (F      MOV      r0,r5
        0x080017be:    3041        A0      ADDS     r0,r0,#0x41
        0x080017c0:    9002        ..      STR      r0,[sp,#8]
        0x080017c2:    4620         F      MOV      r0,r4
        0x080017c4:    4631        1F      MOV      r1,r6
        0x080017c6:    f003ffeb    ....    BL       dma_is_active_channel ; 0x80057a0
        0x080017ca:    2800        .(      CMP      r0,#0
        0x080017cc:    d1f9        ..      BNE      0x80017c2 ; hal_dma_init + 102
        0x080017ce:    2200        ."      MOVS     r2,#0
        0x080017d0:    4620         F      MOV      r0,r4
        0x080017d2:    4631        1F      MOV      r1,r6
        0x080017d4:    9201        ..      STR      r2,[sp,#4]
        0x080017d6:    f004f955    ..U.    BL       dma_set_int_en ; 0x8005a84
        0x080017da:    4620         F      MOV      r0,r4
        0x080017dc:    4631        1F      MOV      r1,r6
        0x080017de:    f003ff39    ..9.    BL       dma_disable_it_tfr ; 0x8005654
        0x080017e2:    4620         F      MOV      r0,r4
        0x080017e4:    4631        1F      MOV      r1,r6
        0x080017e6:    f003ff0d    ....    BL       dma_disable_it_block ; 0x8005604
        0x080017ea:    4620         F      MOV      r0,r4
        0x080017ec:    4631        1F      MOV      r1,r6
        0x080017ee:    f003ff1d    ....    BL       dma_disable_it_error ; 0x800562c
        0x080017f2:    4620         F      MOV      r0,r4
        0x080017f4:    4631        1F      MOV      r1,r6
        0x080017f6:    f003ff23    ..#.    BL       dma_disable_it_src_tran ; 0x8005640
        0x080017fa:    4620         F      MOV      r0,r4
        0x080017fc:    4631        1F      MOV      r1,r6
        0x080017fe:    f003ff0b    ....    BL       dma_disable_it_dst_tran ; 0x8005618
        0x08001802:    4620         F      MOV      r0,r4
        0x08001804:    4631        1F      MOV      r1,r6
        0x08001806:    f003fee9    ....    BL       dma_clear_it_tfr ; 0x80055dc
        0x0800180a:    4620         F      MOV      r0,r4
        0x0800180c:    4631        1F      MOV      r1,r6
        0x0800180e:    f003febd    ....    BL       dma_clear_it_block ; 0x800558c
        0x08001812:    4620         F      MOV      r0,r4
        0x08001814:    4631        1F      MOV      r1,r6
        0x08001816:    f003fecd    ....    BL       dma_clear_it_error ; 0x80055b4
        0x0800181a:    4620         F      MOV      r0,r4
        0x0800181c:    4631        1F      MOV      r1,r6
        0x0800181e:    f003fed3    ....    BL       dma_clear_it_src_tran ; 0x80055c8
        0x08001822:    4620         F      MOV      r0,r4
        0x08001824:    4631        1F      MOV      r1,r6
        0x08001826:    f003febb    ....    BL       dma_clear_it_dst_tran ; 0x80055a0
        0x0800182a:    68a8        .h      LDR      r0,[r5,#8]
        0x0800182c:    1e47        G.      SUBS     r7,r0,#1
        0x0800182e:    2f0a        ./      CMP      r7,#0xa
        0x08001830:    d300        ..      BCC      0x8001834 ; hal_dma_init + 216
        0x08001832:    e1a3        ..      B        0x8001b7c ; 0x8001b7c
        0x08001834:    4620         F      MOV      r0,r4
        0x08001836:    4631        1F      MOV      r1,r6
        0x08001838:    f003ffb2    ....    BL       dma_is_active_channel ; 0x80057a0
        0x0800183c:    2800        .(      CMP      r0,#0
        0x0800183e:    d000        ..      BEQ      0x8001842 ; hal_dma_init + 230
        0x08001840:    e0a6        ..      B        0x8001990 ; 0x8001990
        0x08001842:    2f09        ./      CMP      r7,#9
        0x08001844:    d900        ..      BLS      0x8001848 ; hal_dma_init + 236
        0x08001846:    e0a3        ..      B        0x8001990 ; 0x8001990
        0x08001848:    447f        .D      ADD      r7,r7,pc
        0x0800184a:    793f        ?y      LDRB     r7,[r7,#4]
        0x0800184c:    007f        ..      LSLS     r7,r7,#1
        0x0800184e:    44bf        .D      ADD      pc,pc,r7
    $d.1
        0x08001850:    44301707    ..0D    DCD    1144002311
        0x08001854:    56816d10    .m.V    DCD    1451322640
        0x08001858:    46c06089    .`.F    DCD    1187012745
    __arm_cp.0_14
        0x0800185c:    40100000    ...@    DCD    1074790400
    $t.2
        0x08001860:    2700        .'      MOVS     r7,#0
        0x08001862:    4620         F      MOV      r0,r4
        0x08001864:    4631        1F      MOV      r1,r6
        0x08001866:    463a        :F      MOV      r2,r7
        0x08001868:    f004f91a    ....    BL       dma_set_linked_list_loc ; 0x8005aa0
        0x0800186c:    e002        ..      B        0x8001874 ; 0x8001874
        0x0800186e:    2001        .       MOVS     r0,#1
        0x08001870:    e164        d.      B        0x8001b3c ; 0x8001b3c
        0x08001872:    2700        .'      MOVS     r7,#0
        0x08001874:    4620         F      MOV      r0,r4
        0x08001876:    4631        1F      MOV      r1,r6
        0x08001878:    463a        :F      MOV      r2,r7
        0x0800187a:    f004fa05    ....    BL       dma_set_src_linked_list_en ; 0x8005c88
        0x0800187e:    e044        D.      B        0x800190a ; 0x800190a
        0x08001880:    2700        .'      MOVS     r7,#0
        0x08001882:    4620         F      MOV      r0,r4
        0x08001884:    4631        1F      MOV      r1,r6
        0x08001886:    463a        :F      MOV      r2,r7
        0x08001888:    f004f90a    ....    BL       dma_set_linked_list_loc ; 0x8005aa0
        0x0800188c:    4620         F      MOV      r0,r4
        0x0800188e:    4631        1F      MOV      r1,r6
        0x08001890:    463a        :F      MOV      r2,r7
        0x08001892:    f004f9f9    ....    BL       dma_set_src_linked_list_en ; 0x8005c88
        0x08001896:    4620         F      MOV      r0,r4
        0x08001898:    4631        1F      MOV      r1,r6
        0x0800189a:    463a        :F      MOV      r2,r7
        0x0800189c:    f004f856    ..V.    BL       dma_set_dst_linked_list_en ; 0x800594c
        0x080018a0:    4620         F      MOV      r0,r4
        0x080018a2:    4631        1F      MOV      r1,r6
        0x080018a4:    463a        :F      MOV      r2,r7
        0x080018a6:    f004fa01    ....    BL       dma_set_src_realod_en ; 0x8005cac
        0x080018aa:    2201        ."      MOVS     r2,#1
        0x080018ac:    4620         F      MOV      r0,r4
        0x080018ae:    4631        1F      MOV      r1,r6
        0x080018b0:    e06c        l.      B        0x800198c ; 0x800198c
        0x080018b2:    2700        .'      MOVS     r7,#0
        0x080018b4:    4620         F      MOV      r0,r4
        0x080018b6:    4631        1F      MOV      r1,r6
        0x080018b8:    463a        :F      MOV      r2,r7
        0x080018ba:    f004f8f1    ....    BL       dma_set_linked_list_loc ; 0x8005aa0
        0x080018be:    4620         F      MOV      r0,r4
        0x080018c0:    4631        1F      MOV      r1,r6
        0x080018c2:    463a        :F      MOV      r2,r7
        0x080018c4:    f004f9e0    ....    BL       dma_set_src_linked_list_en ; 0x8005c88
        0x080018c8:    4620         F      MOV      r0,r4
        0x080018ca:    4631        1F      MOV      r1,r6
        0x080018cc:    463a        :F      MOV      r2,r7
        0x080018ce:    f004f83d    ..=.    BL       dma_set_dst_linked_list_en ; 0x800594c
        0x080018d2:    2201        ."      MOVS     r2,#1
        0x080018d4:    4620         F      MOV      r0,r4
        0x080018d6:    4631        1F      MOV      r1,r6
        0x080018d8:    e036        6.      B        0x8001948 ; 0x8001948
        0x080018da:    2700        .'      MOVS     r7,#0
        0x080018dc:    4620         F      MOV      r0,r4
        0x080018de:    4631        1F      MOV      r1,r6
        0x080018e0:    463a        :F      MOV      r2,r7
        0x080018e2:    f004f8dd    ....    BL       dma_set_linked_list_loc ; 0x8005aa0
        0x080018e6:    4620         F      MOV      r0,r4
        0x080018e8:    4631        1F      MOV      r1,r6
        0x080018ea:    463a        :F      MOV      r2,r7
        0x080018ec:    f004f9cc    ....    BL       dma_set_src_linked_list_en ; 0x8005c88
        0x080018f0:    4620         F      MOV      r0,r4
        0x080018f2:    4631        1F      MOV      r1,r6
        0x080018f4:    463a        :F      MOV      r2,r7
        0x080018f6:    f004f829    ..).    BL       dma_set_dst_linked_list_en ; 0x800594c
        0x080018fa:    2701        .'      MOVS     r7,#1
        0x080018fc:    e021        !.      B        0x8001942 ; 0x8001942
        0x080018fe:    2201        ."      MOVS     r2,#1
        0x08001900:    4620         F      MOV      r0,r4
        0x08001902:    4631        1F      MOV      r1,r6
        0x08001904:    f004f9c0    ....    BL       dma_set_src_linked_list_en ; 0x8005c88
        0x08001908:    2700        .'      MOVS     r7,#0
        0x0800190a:    4620         F      MOV      r0,r4
        0x0800190c:    4631        1F      MOV      r1,r6
        0x0800190e:    463a        :F      MOV      r2,r7
        0x08001910:    e015        ..      B        0x800193e ; 0x800193e
        0x08001912:    2701        .'      MOVS     r7,#1
        0x08001914:    4620         F      MOV      r0,r4
        0x08001916:    4631        1F      MOV      r1,r6
        0x08001918:    463a        :F      MOV      r2,r7
        0x0800191a:    f004f9b5    ....    BL       dma_set_src_linked_list_en ; 0x8005c88
        0x0800191e:    4620         F      MOV      r0,r4
        0x08001920:    4631        1F      MOV      r1,r6
        0x08001922:    463a        :F      MOV      r2,r7
        0x08001924:    f004f812    ....    BL       dma_set_dst_linked_list_en ; 0x800594c
        0x08001928:    2700        .'      MOVS     r7,#0
        0x0800192a:    e00a        ..      B        0x8001942 ; 0x8001942
        0x0800192c:    2700        .'      MOVS     r7,#0
        0x0800192e:    4620         F      MOV      r0,r4
        0x08001930:    4631        1F      MOV      r1,r6
        0x08001932:    463a        :F      MOV      r2,r7
        0x08001934:    f004f9a8    ....    BL       dma_set_src_linked_list_en ; 0x8005c88
        0x08001938:    2201        ."      MOVS     r2,#1
        0x0800193a:    4620         F      MOV      r0,r4
        0x0800193c:    4631        1F      MOV      r1,r6
        0x0800193e:    f004f805    ....    BL       dma_set_dst_linked_list_en ; 0x800594c
        0x08001942:    4620         F      MOV      r0,r4
        0x08001944:    4631        1F      MOV      r1,r6
        0x08001946:    463a        :F      MOV      r2,r7
        0x08001948:    f004f9b0    ....    BL       dma_set_src_realod_en ; 0x8005cac
        0x0800194c:    4620         F      MOV      r0,r4
        0x0800194e:    4631        1F      MOV      r1,r6
        0x08001950:    463a        :F      MOV      r2,r7
        0x08001952:    e01b        ..      B        0x800198c ; 0x800198c
        0x08001954:    2200        ."      MOVS     r2,#0
        0x08001956:    9200        ..      STR      r2,[sp,#0]
        0x08001958:    4620         F      MOV      r0,r4
        0x0800195a:    4631        1F      MOV      r1,r6
        0x0800195c:    f004f994    ....    BL       dma_set_src_linked_list_en ; 0x8005c88
        0x08001960:    2701        .'      MOVS     r7,#1
        0x08001962:    e006        ..      B        0x8001972 ; 0x8001972
        0x08001964:    2201        ."      MOVS     r2,#1
        0x08001966:    9200        ..      STR      r2,[sp,#0]
        0x08001968:    4620         F      MOV      r0,r4
        0x0800196a:    4631        1F      MOV      r1,r6
        0x0800196c:    f004f98c    ....    BL       dma_set_src_linked_list_en ; 0x8005c88
        0x08001970:    2700        .'      MOVS     r7,#0
        0x08001972:    4620         F      MOV      r0,r4
        0x08001974:    4631        1F      MOV      r1,r6
        0x08001976:    463a        :F      MOV      r2,r7
        0x08001978:    f003ffe8    ....    BL       dma_set_dst_linked_list_en ; 0x800594c
        0x0800197c:    4620         F      MOV      r0,r4
        0x0800197e:    4631        1F      MOV      r1,r6
        0x08001980:    463a        :F      MOV      r2,r7
        0x08001982:    f004f993    ....    BL       dma_set_src_realod_en ; 0x8005cac
        0x08001986:    4620         F      MOV      r0,r4
        0x08001988:    4631        1F      MOV      r1,r6
        0x0800198a:    9a00        ..      LDR      r2,[sp,#0]
        0x0800198c:    f003ffee    ....    BL       dma_set_dst_reload_en ; 0x800596c
        0x08001990:    69ea        .i      LDR      r2,[r5,#0x1c]
        0x08001992:    4620         F      MOV      r0,r4
        0x08001994:    4631        1F      MOV      r1,r6
        0x08001996:    f004f883    ....    BL       dma_set_linked_list_loc ; 0x8005aa0
        0x0800199a:    68e8        .h      LDR      r0,[r5,#0xc]
        0x0800199c:    0640        @.      LSLS     r0,r0,#25
        0x0800199e:    0f42        B.      LSRS     r2,r0,#29
        0x080019a0:    4620         F      MOV      r0,r4
        0x080019a2:    4631        1F      MOV      r1,r6
        0x080019a4:    f004f9ae    ....    BL       dma_set_src_tr_width ; 0x8005d04
        0x080019a8:    68e8        .h      LDR      r0,[r5,#0xc]
        0x080019aa:    0700        ..      LSLS     r0,r0,#28
        0x080019ac:    0f42        B.      LSRS     r2,r0,#29
        0x080019ae:    4620         F      MOV      r0,r4
        0x080019b0:    4631        1F      MOV      r1,r6
        0x080019b2:    f004f82d    ..-.    BL       dma_set_dst_tr_width ; 0x8005a10
        0x080019b6:    68e8        .h      LDR      r0,[r5,#0xc]
        0x080019b8:    0540        @.      LSLS     r0,r0,#21
        0x080019ba:    0f82        ..      LSRS     r2,r0,#30
        0x080019bc:    4620         F      MOV      r0,r4
        0x080019be:    4631        1F      MOV      r1,r6
        0x080019c0:    f004f8d4    ....    BL       dma_set_src_addr_inc ; 0x8005b6c
        0x080019c4:    68e8        .h      LDR      r0,[r5,#0xc]
        0x080019c6:    05c0        ..      LSLS     r0,r0,#23
        0x080019c8:    0f82        ..      LSRS     r2,r0,#30
        0x080019ca:    4620         F      MOV      r0,r4
        0x080019cc:    4631        1F      MOV      r1,r6
        0x080019ce:    f003ff6b    ..k.    BL       dma_set_dst_addr_inc ; 0x80058a8
        0x080019d2:    68e8        .h      LDR      r0,[r5,#0xc]
        0x080019d4:    03c0        ..      LSLS     r0,r0,#15
        0x080019d6:    0f42        B.      LSRS     r2,r0,#29
        0x080019d8:    4620         F      MOV      r0,r4
        0x080019da:    4631        1F      MOV      r1,r6
        0x080019dc:    f004f8d6    ....    BL       dma_set_src_burst_length ; 0x8005b8c
        0x080019e0:    68e8        .h      LDR      r0,[r5,#0xc]
        0x080019e2:    0480        ..      LSLS     r0,r0,#18
        0x080019e4:    0f42        B.      LSRS     r2,r0,#29
        0x080019e6:    4620         F      MOV      r0,r4
        0x080019e8:    4631        1F      MOV      r1,r6
        0x080019ea:    f003ff6d    ..m.    BL       dma_set_dst_burst_length ; 0x80058c8
        0x080019ee:    68e8        .h      LDR      r0,[r5,#0xc]
        0x080019f0:    0380        ..      LSLS     r0,r0,#14
        0x080019f2:    0fc2        ..      LSRS     r2,r0,#31
        0x080019f4:    4620         F      MOV      r0,r4
        0x080019f6:    4631        1F      MOV      r1,r6
        0x080019f8:    f004f8ea    ....    BL       dma_set_src_gather_en ; 0x8005bd0
        0x080019fc:    6a2a        *j      LDR      r2,[r5,#0x20]
        0x080019fe:    0b10        ..      LSRS     r0,r2,#12
        0x08001a00:    d000        ..      BEQ      0x8001a04 ; 0x8001a04
        0x08001a02:    e0c0        ..      B        0x8001b86 ; 0x8001b86
        0x08001a04:    6a68        hj      LDR      r0,[r5,#0x24]
        0x08001a06:    0d00        ..      LSRS     r0,r0,#20
        0x08001a08:    d000        ..      BEQ      0x8001a0c ; 0x8001a0c
        0x08001a0a:    e0c1        ..      B        0x8001b90 ; 0x8001b90
        0x08001a0c:    2701        .'      MOVS     r7,#1
        0x08001a0e:    0338        8.      LSLS     r0,r7,#12
        0x08001a10:    9000        ..      STR      r0,[sp,#0]
        0x08001a12:    4620         F      MOV      r0,r4
        0x08001a14:    4631        1F      MOV      r1,r6
        0x08001a16:    f004f8cb    ....    BL       dma_set_src_gather_cnt ; 0x8005bb0
        0x08001a1a:    6a6a        jj      LDR      r2,[r5,#0x24]
        0x08001a1c:    4620         F      MOV      r0,r4
        0x08001a1e:    4631        1F      MOV      r1,r6
        0x08001a20:    f004f8e8    ....    BL       dma_set_src_gather_interval ; 0x8005bf4
        0x08001a24:    68e8        .h      LDR      r0,[r5,#0xc]
        0x08001a26:    0340        @.      LSLS     r0,r0,#13
        0x08001a28:    0fc2        ..      LSRS     r2,r0,#31
        0x08001a2a:    4620         F      MOV      r0,r4
        0x08001a2c:    4631        1F      MOV      r1,r6
        0x08001a2e:    f003ffb9    ....    BL       dma_set_dst_scatter_en ; 0x80059a4
        0x08001a32:    6aaa        .j      LDR      r2,[r5,#0x28]
        0x08001a34:    9800        ..      LDR      r0,[sp,#0]
        0x08001a36:    4282        .B      CMP      r2,r0
        0x08001a38:    d300        ..      BCC      0x8001a3c ; 0x8001a3c
        0x08001a3a:    e0ae        ..      B        0x8001b9a ; 0x8001b9a
        0x08001a3c:    9700        ..      STR      r7,[sp,#0]
        0x08001a3e:    053f        ?.      LSLS     r7,r7,#20
        0x08001a40:    6ae8        .j      LDR      r0,[r5,#0x2c]
        0x08001a42:    42b8        .B      CMP      r0,r7
        0x08001a44:    d300        ..      BCC      0x8001a48 ; 0x8001a48
        0x08001a46:    e0ad        ..      B        0x8001ba4 ; 0x8001ba4
        0x08001a48:    4620         F      MOV      r0,r4
        0x08001a4a:    4631        1F      MOV      r1,r6
        0x08001a4c:    f003ff9c    ....    BL       dma_set_dst_scatter_cnt ; 0x8005988
        0x08001a50:    6aea        .j      LDR      r2,[r5,#0x2c]
        0x08001a52:    4620         F      MOV      r0,r4
        0x08001a54:    4631        1F      MOV      r1,r6
        0x08001a56:    f003ffb5    ....    BL       dma_set_dst_scatter_interval ; 0x80059c4
        0x08001a5a:    68e8        .h      LDR      r0,[r5,#0xc]
        0x08001a5c:    0240        @.      LSLS     r0,r0,#9
        0x08001a5e:    0f42        B.      LSRS     r2,r0,#29
        0x08001a60:    4620         F      MOV      r0,r4
        0x08001a62:    4631        1F      MOV      r1,r6
        0x08001a64:    f003fffe    ....    BL       dma_set_flowctrl ; 0x8005a64
        0x08001a68:    6968        hi      LDR      r0,[r5,#0x14]
        0x08001a6a:    2207        ."      MOVS     r2,#7
        0x08001a6c:    4002        .@      ANDS     r2,r2,r0
        0x08001a6e:    4620         F      MOV      r0,r4
        0x08001a70:    4631        1F      MOV      r1,r6
        0x08001a72:    f003fef1    ....    BL       dma_set_channel_priority ; 0x8005858
        0x08001a76:    6968        hi      LDR      r0,[r5,#0x14]
        0x08001a78:    0700        ..      LSLS     r0,r0,#28
        0x08001a7a:    0fc2        ..      LSRS     r2,r0,#31
        0x08001a7c:    4620         F      MOV      r0,r4
        0x08001a7e:    4631        1F      MOV      r1,r6
        0x08001a80:    f004f8f0    ....    BL       dma_set_src_handshake_type ; 0x8005c64
        0x08001a84:    6968        hi      LDR      r0,[r5,#0x14]
        0x08001a86:    06c0        ..      LSLS     r0,r0,#27
        0x08001a88:    0fc2        ..      LSRS     r2,r0,#31
        0x08001a8a:    4620         F      MOV      r0,r4
        0x08001a8c:    4631        1F      MOV      r1,r6
        0x08001a8e:    f003ff4d    ..M.    BL       dma_set_dst_handshake_type ; 0x800592c
        0x08001a92:    6968        hi      LDR      r0,[r5,#0x14]
        0x08001a94:    0701        ..      LSLS     r1,r0,#28
        0x08001a96:    d40c        ..      BMI      0x8001ab2 ; 0x8001ab2
        0x08001a98:    0c02        ..      LSRS     r2,r0,#16
        0x08001a9a:    4620         F      MOV      r0,r4
        0x08001a9c:    4631        1F      MOV      r1,r6
        0x08001a9e:    f004f8bd    ....    BL       dma_set_src_handshake_if ; 0x8005c1c
        0x08001aa2:    69a8        .i      LDR      r0,[r5,#0x18]
        0x08001aa4:    03c0        ..      LSLS     r0,r0,#15
        0x08001aa6:    0fc2        ..      LSRS     r2,r0,#31
        0x08001aa8:    4620         F      MOV      r0,r4
        0x08001aaa:    4631        1F      MOV      r1,r6
        0x08001aac:    f004f8c8    ....    BL       dma_set_src_handshake_polarity ; 0x8005c40
        0x08001ab0:    6968        hi      LDR      r0,[r5,#0x14]
        0x08001ab2:    06c0        ..      LSLS     r0,r0,#27
        0x08001ab4:    d40b        ..      BMI      0x8001ace ; 0x8001ace
        0x08001ab6:    8b2a        *.      LDRH     r2,[r5,#0x18]
        0x08001ab8:    4620         F      MOV      r0,r4
        0x08001aba:    4631        1F      MOV      r1,r6
        0x08001abc:    f003ff16    ....    BL       dma_set_dst_handshake_if ; 0x80058ec
        0x08001ac0:    69a8        .i      LDR      r0,[r5,#0x18]
        0x08001ac2:    0380        ..      LSLS     r0,r0,#14
        0x08001ac4:    0fc2        ..      LSRS     r2,r0,#31
        0x08001ac6:    4620         F      MOV      r0,r4
        0x08001ac8:    4631        1F      MOV      r1,r6
        0x08001aca:    f003ff1f    ....    BL       dma_set_dst_handshake_polarity ; 0x800590c
        0x08001ace:    69a8        .i      LDR      r0,[r5,#0x18]
        0x08001ad0:    02c0        ..      LSLS     r0,r0,#11
        0x08001ad2:    0fc2        ..      LSRS     r2,r0,#31
        0x08001ad4:    4620         F      MOV      r0,r4
        0x08001ad6:    4631        1F      MOV      r1,r6
        0x08001ad8:    f004f904    ....    BL       dma_set_src_status_update_en ; 0x8005ce4
        0x08001adc:    69a8        .i      LDR      r0,[r5,#0x18]
        0x08001ade:    0280        ..      LSLS     r0,r0,#10
        0x08001ae0:    0fc2        ..      LSRS     r2,r0,#31
        0x08001ae2:    4620         F      MOV      r0,r4
        0x08001ae4:    4631        1F      MOV      r1,r6
        0x08001ae6:    f003ff85    ....    BL       dma_set_dst_status_update_en ; 0x80059f4
        0x08001aea:    69a8        .i      LDR      r0,[r5,#0x18]
        0x08001aec:    4238        8B      TST      r0,r7
        0x08001aee:    d001        ..      BEQ      0x8001af4 ; 0x8001af4
        0x08001af0:    6b2a        *k      LDR      r2,[r5,#0x30]
        0x08001af2:    e000        ..      B        0x8001af6 ; 0x8001af6
        0x08001af4:    2200        ."      MOVS     r2,#0
        0x08001af6:    4620         F      MOV      r0,r4
        0x08001af8:    4631        1F      MOV      r1,r6
        0x08001afa:    f004f8e7    ....    BL       dma_set_src_status_addr ; 0x8005ccc
        0x08001afe:    9f00        ..      LDR      r7,[sp,#0]
        0x08001b00:    7ea8        .~      LDRB     r0,[r5,#0x1a]
        0x08001b02:    0680        ..      LSLS     r0,r0,#26
        0x08001b04:    d401        ..      BMI      0x8001b0a ; 0x8001b0a
        0x08001b06:    2200        ."      MOVS     r2,#0
        0x08001b08:    e000        ..      B        0x8001b0c ; 0x8001b0c
        0x08001b0a:    6b6a        jk      LDR      r2,[r5,#0x34]
        0x08001b0c:    4620         F      MOV      r0,r4
        0x08001b0e:    4631        1F      MOV      r1,r6
        0x08001b10:    f003ff66    ..f.    BL       dma_set_dst_status_addr ; 0x80059e0
        0x08001b14:    69a8        .i      LDR      r0,[r5,#0x18]
        0x08001b16:    0240        @.      LSLS     r0,r0,#9
        0x08001b18:    0fc2        ..      LSRS     r2,r0,#31
        0x08001b1a:    4620         F      MOV      r0,r4
        0x08001b1c:    4631        1F      MOV      r1,r6
        0x08001b1e:    f003ff85    ....    BL       dma_set_fifo_mode ; 0x8005a2c
        0x08001b22:    69a8        .i      LDR      r0,[r5,#0x18]
        0x08001b24:    0200        ..      LSLS     r0,r0,#8
        0x08001b26:    0fc2        ..      LSRS     r2,r0,#31
        0x08001b28:    4620         F      MOV      r0,r4
        0x08001b2a:    4631        1F      MOV      r1,r6
        0x08001b2c:    f003ff8c    ....    BL       dma_set_flow_control_mode ; 0x8005a48
        0x08001b30:    4620         F      MOV      r0,r4
        0x08001b32:    f003fda5    ....    BL       dma_enable_global ; 0x8005680
        0x08001b36:    9802        ..      LDR      r0,[sp,#8]
        0x08001b38:    7007        .p      STRB     r7,[r0,#0]
        0x08001b3a:    9801        ..      LDR      r0,[sp,#4]
        0x08001b3c:    b003        ..      ADD      sp,sp,#0xc
        0x08001b3e:    bdf0        ..      POP      {r4-r7,pc}
        0x08001b40:    206d        m       MOVS     r0,#0x6d
        0x08001b42:    491b        .I      LDR      r1,[pc,#108] ; [0x8001bb0] = 0x8007672
        0x08001b44:    a21b        ..      ADR      r2,{pc}+0x70 ; 0x8001bb4
        0x08001b46:    f000f875    ..u.    BL       __assert_func ; 0x8001c34
        0x08001b4a:    206e        n       MOVS     r0,#0x6e
        0x08001b4c:    4918        .I      LDR      r1,[pc,#96] ; [0x8001bb0] = 0x8007672
        0x08001b4e:    a21f        ..      ADR      r2,{pc}+0x7e ; 0x8001bcc
        0x08001b50:    f000f870    ..p.    BL       __assert_func ; 0x8001c34
        0x08001b54:    2070        p       MOVS     r0,#0x70
        0x08001b56:    4916        .I      LDR      r1,[pc,#88] ; [0x8001bb0] = 0x8007672
        0x08001b58:    4a35        5J      LDR      r2,[pc,#212] ; [0x8001c30] = 0x8007565
        0x08001b5a:    f000f86b    ..k.    BL       __assert_func ; 0x8001c34
        0x08001b5e:    2071        q       MOVS     r0,#0x71
        0x08001b60:    4913        .I      LDR      r1,[pc,#76] ; [0x8001bb0] = 0x8007672
        0x08001b62:    4a32        2J      LDR      r2,[pc,#200] ; [0x8001c2c] = 0x8007534
        0x08001b64:    f000f866    ..f.    BL       __assert_func ; 0x8001c34
        0x08001b68:    2072        r       MOVS     r0,#0x72
        0x08001b6a:    4911        .I      LDR      r1,[pc,#68] ; [0x8001bb0] = 0x8007672
        0x08001b6c:    4a2e        .J      LDR      r2,[pc,#184] ; [0x8001c28] = 0x80074fe
        0x08001b6e:    f000f861    ..a.    BL       __assert_func ; 0x8001c34
        0x08001b72:    2073        s       MOVS     r0,#0x73
        0x08001b74:    490e        .I      LDR      r1,[pc,#56] ; [0x8001bb0] = 0x8007672
        0x08001b76:    4a2b        +J      LDR      r2,[pc,#172] ; [0x8001c24] = 0x80074c8
        0x08001b78:    f000f85c    ..\.    BL       __assert_func ; 0x8001c34
        0x08001b7c:    2098        .       MOVS     r0,#0x98
        0x08001b7e:    490c        .I      LDR      r1,[pc,#48] ; [0x8001bb0] = 0x8007672
        0x08001b80:    a218        ..      ADR      r2,{pc}+0x64 ; 0x8001be4
        0x08001b82:    f000f857    ..W.    BL       __assert_func ; 0x8001c34
        0x08001b86:    20a6        .       MOVS     r0,#0xa6
        0x08001b88:    4909        .I      LDR      r1,[pc,#36] ; [0x8001bb0] = 0x8007672
        0x08001b8a:    4a22        "J      LDR      r2,[pc,#136] ; [0x8001c14] = 0x800760e
        0x08001b8c:    f000f852    ..R.    BL       __assert_func ; 0x8001c34
        0x08001b90:    20a7        .       MOVS     r0,#0xa7
        0x08001b92:    4907        .I      LDR      r1,[pc,#28] ; [0x8001bb0] = 0x8007672
        0x08001b94:    4a20         J      LDR      r2,[pc,#128] ; [0x8001c18] = 0x8007596
        0x08001b96:    f000f84d    ..M.    BL       __assert_func ; 0x8001c34
        0x08001b9a:    20ac        .       MOVS     r0,#0xac
        0x08001b9c:    4904        .I      LDR      r1,[pc,#16] ; [0x8001bb0] = 0x8007672
        0x08001b9e:    4a1f        .J      LDR      r2,[pc,#124] ; [0x8001c1c] = 0x800763f
        0x08001ba0:    f000f848    ..H.    BL       __assert_func ; 0x8001c34
        0x08001ba4:    20ad        .       MOVS     r0,#0xad
        0x08001ba6:    4902        .I      LDR      r1,[pc,#8] ; [0x8001bb0] = 0x8007672
        0x08001ba8:    4a1d        .J      LDR      r2,[pc,#116] ; [0x8001c20] = 0x80075d1
        0x08001baa:    f000f843    ..C.    BL       __assert_func ; 0x8001c34
        0x08001bae:    46c0        .F      MOV      r8,r8
    $d.3
    __arm_cp.0_1
        0x08001bb0:    08007672    rv..    DCD    134248050
        0x08001bb4:    445f5349    IS_D    DCD    1147097929
        0x08001bb8:    495f414d    MA_I    DCD    1230979405
        0x08001bbc:    4154534e    NSTA    DCD    1096045390
        0x08001bc0:    2845434e    NCE(    DCD    675627854
        0x08001bc4:    78616d64    dmax    DCD    2019650916
        0x08001bc8:    00000029    )...    DCD    41
        0x08001bcc:    445f5349    IS_D    DCD    1147097929
        0x08001bd0:    435f414d    MA_C    DCD    1130316109
        0x08001bd4:    4e4e4148    HANN    DCD    1313751368
        0x08001bd8:    63284c45    EL(c    DCD    1663585349
        0x08001bdc:    786e6168    hanx    DCD    2020499816
        0x08001be0:    00000029    )...    DCD    41
        0x08001be4:    445f5349    IS_D    DCD    1147097929
        0x08001be8:    545f414d    MA_T    DCD    1415528781
        0x08001bec:    534e4152    RANS    DCD    1397637458
        0x08001bf0:    5f524546    FER_    DCD    1599227206
        0x08001bf4:    45505954    TYPE    DCD    1162893652
        0x08001bf8:    6d646828    (hdm    DCD    1835296808
        0x08001bfc:    693e2d61    a->i    DCD    1765682529
        0x08001c00:    2e74696e    nit.    DCD    779381102
        0x08001c04:    6e617274    tran    DCD    1851880052
        0x08001c08:    72656673    sfer    DCD    1919247987
        0x08001c0c:    7079745f    _typ    DCD    1887007839
        0x08001c10:    00002965    e)..    DCD    10597
    __arm_cp.0_5
        0x08001c14:    0800760e    .v..    DCD    134247950
    __arm_cp.0_6
        0x08001c18:    08007596    .u..    DCD    134247830
    __arm_cp.0_7
        0x08001c1c:    0800763f    ?v..    DCD    134247999
    __arm_cp.0_8
        0x08001c20:    080075d1    .u..    DCD    134247889
    __arm_cp.0_9
        0x08001c24:    080074c8    .t..    DCD    134247624
    __arm_cp.0_10
        0x08001c28:    080074fe    .t..    DCD    134247678
    __arm_cp.0_11
        0x08001c2c:    08007534    4u..    DCD    134247732
    __arm_cp.0_12
        0x08001c30:    08007565    eu..    DCD    134247781
    $t.4
    __assert_func
        0x08001c34:    b082        ..      SUB      sp,sp,#8
        0x08001c36:    460b        .F      MOV      r3,r1
        0x08001c38:    4604        .F      MOV      r4,r0
        0x08001c3a:    4668        hF      MOV      r0,sp
        0x08001c3c:    6002        .`      STR      r2,[r0,#0]
        0x08001c3e:    a003        ..      ADR      r0,{pc}+0xe ; 0x8001c4c
        0x08001c40:    a109        ..      ADR      r1,{pc}+0x28 ; 0x8001c68
        0x08001c42:    4622        "F      MOV      r2,r4
        0x08001c44:    f001fe18    ....    BL       __2printf ; 0x8003878
        0x08001c48:    e7fe        ..      B        0x8001c48 ; __assert_func + 20
        0x08001c4a:    46c0        .F      MOV      r8,r8
    $d.5
        0x08001c4c:    3a73255b    [%s:    DCD    980624731
        0x08001c50:    5b5d6425    %d][    DCD    1532847141
        0x08001c54:    205d7325    %s]     DCD    542995237
        0x08001c58:    65737361    asse    DCD    1702064993
        0x08001c5c:    40207472    rt @    DCD    1075868786
        0x08001c60:    0d732520     %s.    DCD    225649952
        0x08001c64:    0000000a    ....    DCD    10
        0x08001c68:    2e2f2e2e    ../.    DCD    774843950
        0x08001c6c:    2e2e2f2e    ./..    DCD    774778670
        0x08001c70:    2f2e2e2f    /../    DCD    791555631
        0x08001c74:    702f2e2e    ../p    DCD    1882140206
        0x08001c78:    6674616c    latf    DCD    1718903148
        0x08001c7c:    2f6d726f    orm/    DCD    795701871
        0x08001c80:    2f6c6168    hal/    DCD    795631976
        0x08001c84:    2f637273    src/    DCD    795046515
        0x08001c88:    5f6c6168    hal_    DCD    1600938344
        0x08001c8c:    2e616d64    dma.    DCD    778136932
        0x08001c90:    00000063    c...    DCD    99
    $t.6
    hal_dma_deinit
        0x08001c94:    b5f0        ..      PUSH     {r4-r7,lr}
        0x08001c96:    b083        ..      SUB      sp,sp,#0xc
        0x08001c98:    2800        .(      CMP      r0,#0
        0x08001c9a:    d006        ..      BEQ      0x8001caa ; hal_dma_deinit + 22
        0x08001c9c:    4601        .F      MOV      r1,r0
        0x08001c9e:    2041        A       MOVS     r0,#0x41
        0x08001ca0:    5c08        .\      LDRB     r0,[r1,r0]
        0x08001ca2:    2802        .(      CMP      r0,#2
        0x08001ca4:    d103        ..      BNE      0x8001cae ; hal_dma_deinit + 26
        0x08001ca6:    2502        .%      MOVS     r5,#2
        0x08001ca8:    e102        ..      B        0x8001eb0 ; hal_dma_deinit + 540
        0x08001caa:    2501        .%      MOVS     r5,#1
        0x08001cac:    e100        ..      B        0x8001eb0 ; hal_dma_deinit + 540
        0x08001cae:    684e        Nh      LDR      r6,[r1,#4]
        0x08001cb0:    2e04        ..      CMP      r6,#4
        0x08001cb2:    d300        ..      BCC      0x8001cb6 ; hal_dma_deinit + 34
        0x08001cb4:    e0ff        ..      B        0x8001eb6 ; hal_dma_deinit + 546
        0x08001cb6:    4608        .F      MOV      r0,r1
        0x08001cb8:    3041        A0      ADDS     r0,r0,#0x41
        0x08001cba:    9002        ..      STR      r0,[sp,#8]
        0x08001cbc:    680f        .h      LDR      r7,[r1,#0]
        0x08001cbe:    4638        8F      MOV      r0,r7
        0x08001cc0:    9101        ..      STR      r1,[sp,#4]
        0x08001cc2:    4631        1F      MOV      r1,r6
        0x08001cc4:    f003fc94    ....    BL       dma_disable_channel ; 0x80055f0
        0x08001cc8:    2500        .%      MOVS     r5,#0
        0x08001cca:    4638        8F      MOV      r0,r7
        0x08001ccc:    4631        1F      MOV      r1,r6
        0x08001cce:    462a        *F      MOV      r2,r5
        0x08001cd0:    f003ff42    ..B.    BL       dma_set_src_addr ; 0x8005b58
        0x08001cd4:    4638        8F      MOV      r0,r7
        0x08001cd6:    4631        1F      MOV      r1,r6
        0x08001cd8:    462a        *F      MOV      r2,r5
        0x08001cda:    f003fddb    ....    BL       dma_set_dst_addr ; 0x8005894
        0x08001cde:    2202        ."      MOVS     r2,#2
        0x08001ce0:    4638        8F      MOV      r0,r7
        0x08001ce2:    4631        1F      MOV      r1,r6
        0x08001ce4:    f003fda6    ....    BL       dma_set_block_transfer_size ; 0x8005834
        0x08001ce8:    4638        8F      MOV      r0,r7
        0x08001cea:    4631        1F      MOV      r1,r6
        0x08001cec:    462a        *F      MOV      r2,r5
        0x08001cee:    f003ffcb    ....    BL       dma_set_src_linked_list_en ; 0x8005c88
        0x08001cf2:    4638        8F      MOV      r0,r7
        0x08001cf4:    4631        1F      MOV      r1,r6
        0x08001cf6:    462a        *F      MOV      r2,r5
        0x08001cf8:    f003fe28    ..(.    BL       dma_set_dst_linked_list_en ; 0x800594c
        0x08001cfc:    2203        ."      MOVS     r2,#3
        0x08001cfe:    4638        8F      MOV      r0,r7
        0x08001d00:    4631        1F      MOV      r1,r6
        0x08001d02:    f003feaf    ....    BL       dma_set_flowctrl ; 0x8005a64
        0x08001d06:    4638        8F      MOV      r0,r7
        0x08001d08:    4631        1F      MOV      r1,r6
        0x08001d0a:    462a        *F      MOV      r2,r5
        0x08001d0c:    f003fe4a    ..J.    BL       dma_set_dst_scatter_en ; 0x80059a4
        0x08001d10:    4638        8F      MOV      r0,r7
        0x08001d12:    4631        1F      MOV      r1,r6
        0x08001d14:    462a        *F      MOV      r2,r5
        0x08001d16:    f003ff5b    ..[.    BL       dma_set_src_gather_en ; 0x8005bd0
        0x08001d1a:    2401        .$      MOVS     r4,#1
        0x08001d1c:    4638        8F      MOV      r0,r7
        0x08001d1e:    4631        1F      MOV      r1,r6
        0x08001d20:    4622        "F      MOV      r2,r4
        0x08001d22:    f003ff33    ..3.    BL       dma_set_src_burst_length ; 0x8005b8c
        0x08001d26:    4638        8F      MOV      r0,r7
        0x08001d28:    4631        1F      MOV      r1,r6
        0x08001d2a:    4622        "F      MOV      r2,r4
        0x08001d2c:    f003fdcc    ....    BL       dma_set_dst_burst_length ; 0x80058c8
        0x08001d30:    4638        8F      MOV      r0,r7
        0x08001d32:    4631        1F      MOV      r1,r6
        0x08001d34:    462a        *F      MOV      r2,r5
        0x08001d36:    f003ff19    ....    BL       dma_set_src_addr_inc ; 0x8005b6c
        0x08001d3a:    4638        8F      MOV      r0,r7
        0x08001d3c:    4631        1F      MOV      r1,r6
        0x08001d3e:    462a        *F      MOV      r2,r5
        0x08001d40:    f003fdb2    ....    BL       dma_set_dst_addr_inc ; 0x80058a8
        0x08001d44:    4638        8F      MOV      r0,r7
        0x08001d46:    4631        1F      MOV      r1,r6
        0x08001d48:    462a        *F      MOV      r2,r5
        0x08001d4a:    f003ffdb    ....    BL       dma_set_src_tr_width ; 0x8005d04
        0x08001d4e:    4638        8F      MOV      r0,r7
        0x08001d50:    4631        1F      MOV      r1,r6
        0x08001d52:    462a        *F      MOV      r2,r5
        0x08001d54:    f003fe5c    ..\.    BL       dma_set_dst_tr_width ; 0x8005a10
        0x08001d58:    4638        8F      MOV      r0,r7
        0x08001d5a:    4631        1F      MOV      r1,r6
        0x08001d5c:    4622        "F      MOV      r2,r4
        0x08001d5e:    f003fe91    ....    BL       dma_set_int_en ; 0x8005a84
        0x08001d62:    4638        8F      MOV      r0,r7
        0x08001d64:    4631        1F      MOV      r1,r6
        0x08001d66:    462a        *F      MOV      r2,r5
        0x08001d68:    f003ff58    ..X.    BL       dma_set_src_handshake_if ; 0x8005c1c
        0x08001d6c:    4638        8F      MOV      r0,r7
        0x08001d6e:    4631        1F      MOV      r1,r6
        0x08001d70:    462a        *F      MOV      r2,r5
        0x08001d72:    f003fdbb    ....    BL       dma_set_dst_handshake_if ; 0x80058ec
        0x08001d76:    4638        8F      MOV      r0,r7
        0x08001d78:    4631        1F      MOV      r1,r6
        0x08001d7a:    462a        *F      MOV      r2,r5
        0x08001d7c:    f003ffb2    ....    BL       dma_set_src_status_update_en ; 0x8005ce4
        0x08001d80:    4638        8F      MOV      r0,r7
        0x08001d82:    4631        1F      MOV      r1,r6
        0x08001d84:    462a        *F      MOV      r2,r5
        0x08001d86:    f003fe35    ..5.    BL       dma_set_dst_status_update_en ; 0x80059f4
        0x08001d8a:    4638        8F      MOV      r0,r7
        0x08001d8c:    4631        1F      MOV      r1,r6
        0x08001d8e:    4622        "F      MOV      r2,r4
        0x08001d90:    f003fed4    ....    BL       dma_set_protection_control ; 0x8005b3c
        0x08001d94:    4638        8F      MOV      r0,r7
        0x08001d96:    4631        1F      MOV      r1,r6
        0x08001d98:    462a        *F      MOV      r2,r5
        0x08001d9a:    f003fe47    ..G.    BL       dma_set_fifo_mode ; 0x8005a2c
        0x08001d9e:    4638        8F      MOV      r0,r7
        0x08001da0:    4631        1F      MOV      r1,r6
        0x08001da2:    462a        *F      MOV      r2,r5
        0x08001da4:    f003fe50    ..P.    BL       dma_set_flow_control_mode ; 0x8005a48
        0x08001da8:    4638        8F      MOV      r0,r7
        0x08001daa:    4631        1F      MOV      r1,r6
        0x08001dac:    462a        *F      MOV      r2,r5
        0x08001dae:    f003fddd    ....    BL       dma_set_dst_reload_en ; 0x800596c
        0x08001db2:    4638        8F      MOV      r0,r7
        0x08001db4:    4631        1F      MOV      r1,r6
        0x08001db6:    462a        *F      MOV      r2,r5
        0x08001db8:    f003ff78    ..x.    BL       dma_set_src_realod_en ; 0x8005cac
        0x08001dbc:    4638        8F      MOV      r0,r7
        0x08001dbe:    4631        1F      MOV      r1,r6
        0x08001dc0:    462a        *F      MOV      r2,r5
        0x08001dc2:    f003ff3d    ..=.    BL       dma_set_src_handshake_polarity ; 0x8005c40
        0x08001dc6:    4638        8F      MOV      r0,r7
        0x08001dc8:    4631        1F      MOV      r1,r6
        0x08001dca:    462a        *F      MOV      r2,r5
        0x08001dcc:    f003fd9e    ....    BL       dma_set_dst_handshake_polarity ; 0x800590c
        0x08001dd0:    4638        8F      MOV      r0,r7
        0x08001dd2:    4631        1F      MOV      r1,r6
        0x08001dd4:    462a        *F      MOV      r2,r5
        0x08001dd6:    f003fe71    ..q.    BL       dma_set_lock_bus ; 0x8005abc
        0x08001dda:    4638        8F      MOV      r0,r7
        0x08001ddc:    4631        1F      MOV      r1,r6
        0x08001dde:    462a        *F      MOV      r2,r5
        0x08001de0:    f003fe8c    ....    BL       dma_set_lock_channel ; 0x8005afc
        0x08001de4:    4638        8F      MOV      r0,r7
        0x08001de6:    4631        1F      MOV      r1,r6
        0x08001de8:    462a        *F      MOV      r2,r5
        0x08001dea:    f003fe77    ..w.    BL       dma_set_lock_bus_level ; 0x8005adc
        0x08001dee:    4638        8F      MOV      r0,r7
        0x08001df0:    4631        1F      MOV      r1,r6
        0x08001df2:    462a        *F      MOV      r2,r5
        0x08001df4:    f003fe92    ....    BL       dma_set_lock_channel_level ; 0x8005b1c
        0x08001df8:    4638        8F      MOV      r0,r7
        0x08001dfa:    4631        1F      MOV      r1,r6
        0x08001dfc:    4622        "F      MOV      r2,r4
        0x08001dfe:    f003ff31    ..1.    BL       dma_set_src_handshake_type ; 0x8005c64
        0x08001e02:    4638        8F      MOV      r0,r7
        0x08001e04:    4631        1F      MOV      r1,r6
        0x08001e06:    4622        "F      MOV      r2,r4
        0x08001e08:    f003fd90    ....    BL       dma_set_dst_handshake_type ; 0x800592c
        0x08001e0c:    4638        8F      MOV      r0,r7
        0x08001e0e:    4631        1F      MOV      r1,r6
        0x08001e10:    462a        *F      MOV      r2,r5
        0x08001e12:    f003fd2f    ../.    BL       dma_set_channel_suspend ; 0x8005874
        0x08001e16:    4638        8F      MOV      r0,r7
        0x08001e18:    4631        1F      MOV      r1,r6
        0x08001e1a:    462a        *F      MOV      r2,r5
        0x08001e1c:    f003fd1c    ....    BL       dma_set_channel_priority ; 0x8005858
        0x08001e20:    4638        8F      MOV      r0,r7
        0x08001e22:    4631        1F      MOV      r1,r6
        0x08001e24:    462a        *F      MOV      r2,r5
        0x08001e26:    f003fec3    ....    BL       dma_set_src_gather_cnt ; 0x8005bb0
        0x08001e2a:    4638        8F      MOV      r0,r7
        0x08001e2c:    4631        1F      MOV      r1,r6
        0x08001e2e:    462a        *F      MOV      r2,r5
        0x08001e30:    f003fee0    ....    BL       dma_set_src_gather_interval ; 0x8005bf4
        0x08001e34:    4638        8F      MOV      r0,r7
        0x08001e36:    4631        1F      MOV      r1,r6
        0x08001e38:    462a        *F      MOV      r2,r5
        0x08001e3a:    f003fda5    ....    BL       dma_set_dst_scatter_cnt ; 0x8005988
        0x08001e3e:    4638        8F      MOV      r0,r7
        0x08001e40:    4631        1F      MOV      r1,r6
        0x08001e42:    462a        *F      MOV      r2,r5
        0x08001e44:    f003fdbe    ....    BL       dma_set_dst_scatter_interval ; 0x80059c4
        0x08001e48:    4638        8F      MOV      r0,r7
        0x08001e4a:    4631        1F      MOV      r1,r6
        0x08001e4c:    f003fc02    ....    BL       dma_disable_it_tfr ; 0x8005654
        0x08001e50:    4638        8F      MOV      r0,r7
        0x08001e52:    4631        1F      MOV      r1,r6
        0x08001e54:    f003fbd6    ....    BL       dma_disable_it_block ; 0x8005604
        0x08001e58:    4638        8F      MOV      r0,r7
        0x08001e5a:    4631        1F      MOV      r1,r6
        0x08001e5c:    f003fbf0    ....    BL       dma_disable_it_src_tran ; 0x8005640
        0x08001e60:    4638        8F      MOV      r0,r7
        0x08001e62:    4631        1F      MOV      r1,r6
        0x08001e64:    f003fbd8    ....    BL       dma_disable_it_dst_tran ; 0x8005618
        0x08001e68:    4638        8F      MOV      r0,r7
        0x08001e6a:    4631        1F      MOV      r1,r6
        0x08001e6c:    f003fbde    ....    BL       dma_disable_it_error ; 0x800562c
        0x08001e70:    9c01        ..      LDR      r4,[sp,#4]
        0x08001e72:    4620         F      MOV      r0,r4
        0x08001e74:    3048        H0      ADDS     r0,r0,#0x48
        0x08001e76:    2118        .!      MOVS     r1,#0x18
        0x08001e78:    f001fe17    ....    BL       __aeabi_memclr4 ; 0x8003aaa
        0x08001e7c:    4638        8F      MOV      r0,r7
        0x08001e7e:    4631        1F      MOV      r1,r6
        0x08001e80:    f003fbac    ....    BL       dma_clear_it_tfr ; 0x80055dc
        0x08001e84:    4638        8F      MOV      r0,r7
        0x08001e86:    4631        1F      MOV      r1,r6
        0x08001e88:    f003fb80    ....    BL       dma_clear_it_block ; 0x800558c
        0x08001e8c:    4638        8F      MOV      r0,r7
        0x08001e8e:    4631        1F      MOV      r1,r6
        0x08001e90:    f003fb9a    ....    BL       dma_clear_it_src_tran ; 0x80055c8
        0x08001e94:    4638        8F      MOV      r0,r7
        0x08001e96:    4631        1F      MOV      r1,r6
        0x08001e98:    f003fb82    ....    BL       dma_clear_it_dst_tran ; 0x80055a0
        0x08001e9c:    4638        8F      MOV      r0,r7
        0x08001e9e:    4631        1F      MOV      r1,r6
        0x08001ea0:    f003fb88    ....    BL       dma_clear_it_error ; 0x80055b4
        0x08001ea4:    4621        !F      MOV      r1,r4
        0x08001ea6:    6625        %f      STR      r5,[r4,#0x60]
        0x08001ea8:    9802        ..      LDR      r0,[sp,#8]
        0x08001eaa:    7005        .p      STRB     r5,[r0,#0]
        0x08001eac:    2040        @       MOVS     r0,#0x40
        0x08001eae:    5425        %T      STRB     r5,[r4,r0]
        0x08001eb0:    4628        (F      MOV      r0,r5
        0x08001eb2:    b003        ..      ADD      sp,sp,#0xc
        0x08001eb4:    bdf0        ..      POP      {r4-r7,pc}
        0x08001eb6:    20fd        .       MOVS     r0,#0xfd
        0x08001eb8:    a101        ..      ADR      r1,{pc}+8 ; 0x8001ec0
        0x08001eba:    a205        ..      ADR      r2,{pc}+0x16 ; 0x8001ed0
        0x08001ebc:    f7fffeba    ....    BL       __assert_func ; 0x8001c34
    $d.7
        0x08001ec0:    5f6c6168    hal_    DCD    1600938344
        0x08001ec4:    5f616d64    dma_    DCD    1600220516
        0x08001ec8:    6e696564    dein    DCD    1852400996
        0x08001ecc:    00007469    it..    DCD    29801
        0x08001ed0:    445f5349    IS_D    DCD    1147097929
        0x08001ed4:    435f414d    MA_C    DCD    1130316109
        0x08001ed8:    4e4e4148    HANN    DCD    1313751368
        0x08001edc:    68284c45    EL(h    DCD    1747471429
        0x08001ee0:    2d616d64    dma-    DCD    761359716
        0x08001ee4:    696e693e    >ini    DCD    1768843582
        0x08001ee8:    68632e74    t.ch    DCD    1751330420
        0x08001eec:    656e6e61    anne    DCD    1701736033
        0x08001ef0:    0000296c    l)..    DCD    10604
    $t.8
    hal_dma_init_struct_init
        0x08001ef4:    b510        ..      PUSH     {r4,lr}
        0x08001ef6:    2800        .(      CMP      r0,#0
        0x08001ef8:    d01e        ..      BEQ      0x8001f38 ; hal_dma_init_struct_init + 68
        0x08001efa:    2400        .$      MOVS     r4,#0
        0x08001efc:    6004        .`      STR      r4,[r0,#0]
        0x08001efe:    2101        .!      MOVS     r1,#1
        0x08001f00:    6041        A`      STR      r1,[r0,#4]
        0x08001f02:    68c1        .h      LDR      r1,[r0,#0xc]
        0x08001f04:    4a0e        .J      LDR      r2,[pc,#56] ; [0x8001f40] = 0xffffe000
        0x08001f06:    400a        .@      ANDS     r2,r2,r1
        0x08001f08:    60c2        .`      STR      r2,[r0,#0xc]
        0x08001f0a:    6881        .h      LDR      r1,[r0,#8]
        0x08001f0c:    4a0d        .J      LDR      r2,[pc,#52] ; [0x8001f44] = 0xe7880000
        0x08001f0e:    400a        .@      ANDS     r2,r2,r1
        0x08001f10:    2105        .!      MOVS     r1,#5
        0x08001f12:    0209        ..      LSLS     r1,r1,#8
        0x08001f14:    1851        Q.      ADDS     r1,r2,r1
        0x08001f16:    6081        .`      STR      r1,[r0,#8]
        0x08001f18:    6901        .i      LDR      r1,[r0,#0x10]
        0x08001f1a:    4a0b        .J      LDR      r2,[pc,#44] ; [0x8001f48] = 0xffe0
        0x08001f1c:    400a        .@      ANDS     r2,r2,r1
        0x08001f1e:    490b        .I      LDR      r1,[pc,#44] ; [0x8001f4c] = 0x80018
        0x08001f20:    1851        Q.      ADDS     r1,r2,r1
        0x08001f22:    6101        .a      STR      r1,[r0,#0x10]
        0x08001f24:    6941        Ai      LDR      r1,[r0,#0x14]
        0x08001f26:    4a0a        .J      LDR      r2,[pc,#40] ; [0x8001f50] = 0xc0030000
        0x08001f28:    400a        .@      ANDS     r2,r2,r1
        0x08001f2a:    3209        .2      ADDS     r2,r2,#9
        0x08001f2c:    6142        Ba      STR      r2,[r0,#0x14]
        0x08001f2e:    3018        .0      ADDS     r0,r0,#0x18
        0x08001f30:    211c        .!      MOVS     r1,#0x1c
        0x08001f32:    f001fdba    ....    BL       __aeabi_memclr4 ; 0x8003aaa
        0x08001f36:    e000        ..      B        0x8001f3a ; hal_dma_init_struct_init + 70
        0x08001f38:    2401        .$      MOVS     r4,#1
        0x08001f3a:    4620         F      MOV      r0,r4
        0x08001f3c:    bd10        ..      POP      {r4,pc}
        0x08001f3e:    46c0        .F      MOV      r8,r8
    $d.9
    __arm_cp.3_0
        0x08001f40:    ffffe000    ....    DCD    4294959104
    __arm_cp.3_1
        0x08001f44:    e7880000    ....    DCD    3884449792
    __arm_cp.3_2
        0x08001f48:    0000ffe0    ....    DCD    65504
    __arm_cp.3_3
        0x08001f4c:    00080018    ....    DCD    524312
    __arm_cp.3_4
        0x08001f50:    c0030000    ....    DCD    3221422080
    $t.10
    hal_dma_lli_struct_init
        0x08001f54:    b5f0        ..      PUSH     {r4-r7,lr}
        0x08001f56:    b081        ..      SUB      sp,sp,#4
        0x08001f58:    2800        .(      CMP      r0,#0
        0x08001f5a:    d023        #.      BEQ      0x8001fa4 ; hal_dma_lli_struct_init + 80
        0x08001f5c:    2900        .)      CMP      r1,#0
        0x08001f5e:    d01f        ..      BEQ      0x8001fa0 ; hal_dma_lli_struct_init + 76
        0x08001f60:    301c        .0      ADDS     r0,r0,#0x1c
        0x08001f62:    1e4a        J.      SUBS     r2,r1,#1
        0x08001f64:    9200        ..      STR      r2,[sp,#0]
        0x08001f66:    2306        .#      MOVS     r3,#6
        0x08001f68:    43dc        .C      MVNS     r4,r3
        0x08001f6a:    2300        .#      MOVS     r3,#0
        0x08001f6c:    00a4        ..      LSLS     r4,r4,#2
        0x08001f6e:    461f        .F      MOV      r7,r3
        0x08001f70:    5103        .Q      STR      r3,[r0,r4]
        0x08001f72:    1905        ..      ADDS     r5,r0,r4
        0x08001f74:    606b        k`      STR      r3,[r5,#4]
        0x08001f76:    60ab        .`      STR      r3,[r5,#8]
        0x08001f78:    616b        ka      STR      r3,[r5,#0x14]
        0x08001f7a:    61ab        .a      STR      r3,[r5,#0x18]
        0x08001f7c:    692e        .i      LDR      r6,[r5,#0x10]
        0x08001f7e:    4a0b        .J      LDR      r2,[pc,#44] ; [0x8001fac] = 0xffffe000
        0x08001f80:    4016        .@      ANDS     r6,r6,r2
        0x08001f82:    612e        .a      STR      r6,[r5,#0x10]
        0x08001f84:    68ee        .h      LDR      r6,[r5,#0xc]
        0x08001f86:    4a0a        .J      LDR      r2,[pc,#40] ; [0x8001fb0] = 0xe7880000
        0x08001f88:    4016        .@      ANDS     r6,r6,r2
        0x08001f8a:    1c76        v.      ADDS     r6,r6,#1
        0x08001f8c:    60ee        .`      STR      r6,[r5,#0xc]
        0x08001f8e:    9a00        ..      LDR      r2,[sp,#0]
        0x08001f90:    4297        .B      CMP      r7,r2
        0x08001f92:    d201        ..      BCS      0x8001f98 ; hal_dma_lli_struct_init + 68
        0x08001f94:    3508        .5      ADDS     r5,r5,#8
        0x08001f96:    6028        (`      STR      r0,[r5,#0]
        0x08001f98:    301c        .0      ADDS     r0,r0,#0x1c
        0x08001f9a:    1c7f        ..      ADDS     r7,r7,#1
        0x08001f9c:    42b9        .B      CMP      r1,r7
        0x08001f9e:    d1e7        ..      BNE      0x8001f70 ; hal_dma_lli_struct_init + 28
        0x08001fa0:    2000        .       MOVS     r0,#0
        0x08001fa2:    e000        ..      B        0x8001fa6 ; hal_dma_lli_struct_init + 82
        0x08001fa4:    2001        .       MOVS     r0,#1
        0x08001fa6:    b001        ..      ADD      sp,sp,#4
        0x08001fa8:    bdf0        ..      POP      {r4-r7,pc}
        0x08001faa:    46c0        .F      MOV      r8,r8
    $d.11
    __arm_cp.4_0
        0x08001fac:    ffffe000    ....    DCD    4294959104
    __arm_cp.4_1
        0x08001fb0:    e7880000    ....    DCD    3884449792
    $t.12
    hal_dma_start
        0x08001fb4:    b5f0        ..      PUSH     {r4-r7,lr}
        0x08001fb6:    b083        ..      SUB      sp,sp,#0xc
        0x08001fb8:    4605        .F      MOV      r5,r0
        0x08001fba:    2040        @       MOVS     r0,#0x40
        0x08001fbc:    5c28        (\      LDRB     r0,[r5,r0]
        0x08001fbe:    2402        .$      MOVS     r4,#2
        0x08001fc0:    2801        .(      CMP      r0,#1
        0x08001fc2:    d029        ).      BEQ      0x8002018 ; hal_dma_start + 100
        0x08001fc4:    4628        (F      MOV      r0,r5
        0x08001fc6:    3040        @0      ADDS     r0,r0,#0x40
        0x08001fc8:    682e        .h      LDR      r6,[r5,#0]
        0x08001fca:    9602        ..      STR      r6,[sp,#8]
        0x08001fcc:    686f        oh      LDR      r7,[r5,#4]
        0x08001fce:    2601        .&      MOVS     r6,#1
        0x08001fd0:    7006        .p      STRB     r6,[r0,#0]
        0x08001fd2:    2641        A&      MOVS     r6,#0x41
        0x08001fd4:    5dae        .]      LDRB     r6,[r5,r6]
        0x08001fd6:    2e01        ..      CMP      r6,#1
        0x08001fd8:    d11c        ..      BNE      0x8002014 ; hal_dma_start + 96
        0x08001fda:    9808        ..      LDR      r0,[sp,#0x20]
        0x08001fdc:    9001        ..      STR      r0,[sp,#4]
        0x08001fde:    4628        (F      MOV      r0,r5
        0x08001fe0:    3041        A0      ADDS     r0,r0,#0x41
        0x08001fe2:    2402        .$      MOVS     r4,#2
        0x08001fe4:    7004        .p      STRB     r4,[r0,#0]
        0x08001fe6:    2400        .$      MOVS     r4,#0
        0x08001fe8:    662c        ,f      STR      r4,[r5,#0x60]
        0x08001fea:    4628        (F      MOV      r0,r5
        0x08001fec:    f000f817    ....    BL       dma_setconfig ; 0x800201e
        0x08001ff0:    9e02        ..      LDR      r6,[sp,#8]
        0x08001ff2:    4630        0F      MOV      r0,r6
        0x08001ff4:    4639        9F      MOV      r1,r7
        0x08001ff6:    f003fabd    ....    BL       dma_clear_block_done_flag ; 0x8005574
        0x08001ffa:    9801        ..      LDR      r0,[sp,#4]
        0x08001ffc:    63a8        .c      STR      r0,[r5,#0x38]
        0x08001ffe:    63ec        .c      STR      r4,[r5,#0x3c]
        0x08002000:    4630        0F      MOV      r0,r6
        0x08002002:    4639        9F      MOV      r1,r7
        0x08002004:    4622        "F      MOV      r2,r4
        0x08002006:    f003fd3d    ..=.    BL       dma_set_int_en ; 0x8005a84
        0x0800200a:    4630        0F      MOV      r0,r6
        0x0800200c:    4639        9F      MOV      r1,r7
        0x0800200e:    f003fb2b    ..+.    BL       dma_enable_channel ; 0x8005668
        0x08002012:    e001        ..      B        0x8002018 ; hal_dma_start + 100
        0x08002014:    2100        .!      MOVS     r1,#0
        0x08002016:    7001        .p      STRB     r1,[r0,#0]
        0x08002018:    4620         F      MOV      r0,r4
        0x0800201a:    b003        ..      ADD      sp,sp,#0xc
        0x0800201c:    bdf0        ..      POP      {r4-r7,pc}
    dma_setconfig
        0x0800201e:    b5f0        ..      PUSH     {r4-r7,lr}
        0x08002020:    b081        ..      SUB      sp,sp,#4
        0x08002022:    461c        .F      MOV      r4,r3
        0x08002024:    4615        .F      MOV      r5,r2
        0x08002026:    460a        .F      MOV      r2,r1
        0x08002028:    c8c0        ..      LDM      r0!,{r6,r7}
        0x0800202a:    4630        0F      MOV      r0,r6
        0x0800202c:    4639        9F      MOV      r1,r7
        0x0800202e:    f003fd93    ....    BL       dma_set_src_addr ; 0x8005b58
        0x08002032:    4630        0F      MOV      r0,r6
        0x08002034:    4639        9F      MOV      r1,r7
        0x08002036:    462a        *F      MOV      r2,r5
        0x08002038:    f003fc2c    ..,.    BL       dma_set_dst_addr ; 0x8005894
        0x0800203c:    4630        0F      MOV      r0,r6
        0x0800203e:    4639        9F      MOV      r1,r7
        0x08002040:    4622        "F      MOV      r2,r4
        0x08002042:    f003fbf7    ....    BL       dma_set_block_transfer_size ; 0x8005834
        0x08002046:    b001        ..      ADD      sp,sp,#4
        0x08002048:    bdf0        ..      POP      {r4-r7,pc}
    hal_dma_abort
        0x0800204a:    b5f0        ..      PUSH     {r4-r7,lr}
        0x0800204c:    b081        ..      SUB      sp,sp,#4
        0x0800204e:    2800        .(      CMP      r0,#0
        0x08002050:    d031        1.      BEQ      0x80020b6 ; hal_dma_abort + 108
        0x08002052:    4604        .F      MOV      r4,r0
        0x08002054:    2041        A       MOVS     r0,#0x41
        0x08002056:    5c20         \      LDRB     r0,[r4,r0]
        0x08002058:    2802        .(      CMP      r0,#2
        0x0800205a:    d12e        ..      BNE      0x80020ba ; hal_dma_abort + 112
        0x0800205c:    4620         F      MOV      r0,r4
        0x0800205e:    3041        A0      ADDS     r0,r0,#0x41
        0x08002060:    9000        ..      STR      r0,[sp,#0]
        0x08002062:    cc60        `.      LDM      r4!,{r5,r6}
        0x08002064:    4628        (F      MOV      r0,r5
        0x08002066:    4631        1F      MOV      r1,r6
        0x08002068:    3c08        .<      SUBS     r4,r4,#8
        0x0800206a:    f003faf3    ....    BL       dma_disable_it_tfr ; 0x8005654
        0x0800206e:    4628        (F      MOV      r0,r5
        0x08002070:    4631        1F      MOV      r1,r6
        0x08002072:    f003fac7    ....    BL       dma_disable_it_block ; 0x8005604
        0x08002076:    4628        (F      MOV      r0,r5
        0x08002078:    4631        1F      MOV      r1,r6
        0x0800207a:    f003fae1    ....    BL       dma_disable_it_src_tran ; 0x8005640
        0x0800207e:    4628        (F      MOV      r0,r5
        0x08002080:    4631        1F      MOV      r1,r6
        0x08002082:    f003fabf    ....    BL       dma_disable_it_block ; 0x8005604
        0x08002086:    4628        (F      MOV      r0,r5
        0x08002088:    4631        1F      MOV      r1,r6
        0x0800208a:    f003facf    ....    BL       dma_disable_it_error ; 0x800562c
        0x0800208e:    4628        (F      MOV      r0,r5
        0x08002090:    4631        1F      MOV      r1,r6
        0x08002092:    f003faad    ....    BL       dma_disable_channel ; 0x80055f0
        0x08002096:    2031        1       MOVS     r0,#0x31
        0x08002098:    43c7        .C      MVNS     r7,r0
        0x0800209a:    4628        (F      MOV      r0,r5
        0x0800209c:    4631        1F      MOV      r1,r6
        0x0800209e:    f003fb7f    ....    BL       dma_is_active_channel ; 0x80057a0
        0x080020a2:    2800        .(      CMP      r0,#0
        0x080020a4:    d00d        ..      BEQ      0x80020c2 ; hal_dma_abort + 120
        0x080020a6:    1c7f        ..      ADDS     r7,r7,#1
        0x080020a8:    d1f7        ..      BNE      0x800209a ; hal_dma_abort + 80
        0x080020aa:    2004        .       MOVS     r0,#4
        0x080020ac:    6620         f      STR      r0,[r4,#0x60]
        0x080020ae:    2003        .       MOVS     r0,#3
        0x080020b0:    9900        ..      LDR      r1,[sp,#0]
        0x080020b2:    7008        .p      STRB     r0,[r1,#0]
        0x080020b4:    e01d        ..      B        0x80020f2 ; hal_dma_abort + 168
        0x080020b6:    2001        .       MOVS     r0,#1
        0x080020b8:    e01e        ..      B        0x80020f8 ; hal_dma_abort + 174
        0x080020ba:    2010        .       MOVS     r0,#0x10
        0x080020bc:    6620         f      STR      r0,[r4,#0x60]
        0x080020be:    2001        .       MOVS     r0,#1
        0x080020c0:    e017        ..      B        0x80020f2 ; hal_dma_abort + 168
        0x080020c2:    4628        (F      MOV      r0,r5
        0x080020c4:    4631        1F      MOV      r1,r6
        0x080020c6:    f003fa89    ....    BL       dma_clear_it_tfr ; 0x80055dc
        0x080020ca:    4628        (F      MOV      r0,r5
        0x080020cc:    4631        1F      MOV      r1,r6
        0x080020ce:    f003fa5d    ..].    BL       dma_clear_it_block ; 0x800558c
        0x080020d2:    4628        (F      MOV      r0,r5
        0x080020d4:    4631        1F      MOV      r1,r6
        0x080020d6:    f003fa77    ..w.    BL       dma_clear_it_src_tran ; 0x80055c8
        0x080020da:    4628        (F      MOV      r0,r5
        0x080020dc:    4631        1F      MOV      r1,r6
        0x080020de:    f003fa5f    .._.    BL       dma_clear_it_dst_tran ; 0x80055a0
        0x080020e2:    4628        (F      MOV      r0,r5
        0x080020e4:    4631        1F      MOV      r1,r6
        0x080020e6:    f003fa65    ..e.    BL       dma_clear_it_error ; 0x80055b4
        0x080020ea:    2001        .       MOVS     r0,#1
        0x080020ec:    9900        ..      LDR      r1,[sp,#0]
        0x080020ee:    7008        .p      STRB     r0,[r1,#0]
        0x080020f0:    2000        .       MOVS     r0,#0
        0x080020f2:    2140        @!      MOVS     r1,#0x40
        0x080020f4:    2200        ."      MOVS     r2,#0
        0x080020f6:    5462        bT      STRB     r2,[r4,r1]
        0x080020f8:    b001        ..      ADD      sp,sp,#4
        0x080020fa:    bdf0        ..      POP      {r4-r7,pc}
    hal_dma_poll_transfer
        0x080020fc:    b570        p.      PUSH     {r4-r6,lr}
        0x080020fe:    4604        .F      MOV      r4,r0
        0x08002100:    c860        `.      LDM      r0!,{r5,r6}
        0x08002102:    3808        .8      SUBS     r0,r0,#8
        0x08002104:    4628        (F      MOV      r0,r5
        0x08002106:    4631        1F      MOV      r1,r6
        0x08002108:    f003fb4a    ..J.    BL       dma_is_active_channel ; 0x80057a0
        0x0800210c:    2800        .(      CMP      r0,#0
        0x0800210e:    d1f9        ..      BNE      0x8002104 ; hal_dma_poll_transfer + 8
        0x08002110:    4628        (F      MOV      r0,r5
        0x08002112:    4631        1F      MOV      r1,r6
        0x08002114:    f003fafc    ....    BL       dma_get_raw_tfr ; 0x8005710
        0x08002118:    2800        .(      CMP      r0,#0
        0x0800211a:    d001        ..      BEQ      0x8002120 ; hal_dma_poll_transfer + 36
        0x0800211c:    2101        .!      MOVS     r1,#1
        0x0800211e:    e000        ..      B        0x8002122 ; hal_dma_poll_transfer + 38
        0x08002120:    2104        .!      MOVS     r1,#4
        0x08002122:    2241        A"      MOVS     r2,#0x41
        0x08002124:    54a1        .T      STRB     r1,[r4,r2]
        0x08002126:    2140        @!      MOVS     r1,#0x40
        0x08002128:    2200        ."      MOVS     r2,#0
        0x0800212a:    5462        bT      STRB     r2,[r4,r1]
        0x0800212c:    4241        AB      RSBS     r1,r0,#0
        0x0800212e:    4141        AA      ADCS     r1,r1,r0
        0x08002130:    6621        !f      STR      r1,[r4,#0x60]
        0x08002132:    4608        .F      MOV      r0,r1
        0x08002134:    bd70        p.      POP      {r4-r6,pc}
    hal_dma_start_it
        0x08002136:    b5f0        ..      PUSH     {r4-r7,lr}
        0x08002138:    b083        ..      SUB      sp,sp,#0xc
        0x0800213a:    4607        .F      MOV      r7,r0
        0x0800213c:    2040        @       MOVS     r0,#0x40
        0x0800213e:    5c38        8\      LDRB     r0,[r7,r0]
        0x08002140:    2402        .$      MOVS     r4,#2
        0x08002142:    2801        .(      CMP      r0,#1
        0x08002144:    d100        ..      BNE      0x8002148 ; hal_dma_start_it + 18
        0x08002146:    e08c        ..      B        0x8002262 ; hal_dma_start_it + 300
        0x08002148:    9401        ..      STR      r4,[sp,#4]
        0x0800214a:    4638        8F      MOV      r0,r7
        0x0800214c:    3040        @0      ADDS     r0,r0,#0x40
        0x0800214e:    683e        >h      LDR      r6,[r7,#0]
        0x08002150:    687c        |h      LDR      r4,[r7,#4]
        0x08002152:    9402        ..      STR      r4,[sp,#8]
        0x08002154:    2501        .%      MOVS     r5,#1
        0x08002156:    7005        .p      STRB     r5,[r0,#0]
        0x08002158:    2441        A$      MOVS     r4,#0x41
        0x0800215a:    5d3c        <]      LDRB     r4,[r7,r4]
        0x0800215c:    2c01        .,      CMP      r4,#1
        0x0800215e:    d145        E.      BNE      0x80021ec ; hal_dma_start_it + 182
        0x08002160:    9501        ..      STR      r5,[sp,#4]
        0x08002162:    9808        ..      LDR      r0,[sp,#0x20]
        0x08002164:    9000        ..      STR      r0,[sp,#0]
        0x08002166:    4638        8F      MOV      r0,r7
        0x08002168:    3041        A0      ADDS     r0,r0,#0x41
        0x0800216a:    2402        .$      MOVS     r4,#2
        0x0800216c:    7004        .p      STRB     r4,[r0,#0]
        0x0800216e:    2400        .$      MOVS     r4,#0
        0x08002170:    663c        <f      STR      r4,[r7,#0x60]
        0x08002172:    4638        8F      MOV      r0,r7
        0x08002174:    f7ffff53    ..S.    BL       dma_setconfig ; 0x800201e
        0x08002178:    4630        0F      MOV      r0,r6
        0x0800217a:    9d02        ..      LDR      r5,[sp,#8]
        0x0800217c:    4629        )F      MOV      r1,r5
        0x0800217e:    f003f9f9    ....    BL       dma_clear_block_done_flag ; 0x8005574
        0x08002182:    9800        ..      LDR      r0,[sp,#0]
        0x08002184:    63b8        .c      STR      r0,[r7,#0x38]
        0x08002186:    63fc        .c      STR      r4,[r7,#0x3c]
        0x08002188:    4630        0F      MOV      r0,r6
        0x0800218a:    4629        )F      MOV      r1,r5
        0x0800218c:    f003fa12    ....    BL       dma_clear_it_error ; 0x80055b4
        0x08002190:    4630        0F      MOV      r0,r6
        0x08002192:    4629        )F      MOV      r1,r5
        0x08002194:    f003fa22    ..".    BL       dma_clear_it_tfr ; 0x80055dc
        0x08002198:    4630        0F      MOV      r0,r6
        0x0800219a:    4629        )F      MOV      r1,r5
        0x0800219c:    f003f9f6    ....    BL       dma_clear_it_block ; 0x800558c
        0x080021a0:    4630        0F      MOV      r0,r6
        0x080021a2:    4629        )F      MOV      r1,r5
        0x080021a4:    f003fa10    ....    BL       dma_clear_it_src_tran ; 0x80055c8
        0x080021a8:    4630        0F      MOV      r0,r6
        0x080021aa:    4629        )F      MOV      r1,r5
        0x080021ac:    f003f9f8    ....    BL       dma_clear_it_dst_tran ; 0x80055a0
        0x080021b0:    4630        0F      MOV      r0,r6
        0x080021b2:    4629        )F      MOV      r1,r5
        0x080021b4:    f003fa88    ....    BL       dma_enable_it_error ; 0x80056c8
        0x080021b8:    4630        0F      MOV      r0,r6
        0x080021ba:    4629        )F      MOV      r1,r5
        0x080021bc:    f003fa6c    ..l.    BL       dma_enable_it_block ; 0x8005698
        0x080021c0:    4630        0F      MOV      r0,r6
        0x080021c2:    4629        )F      MOV      r1,r5
        0x080021c4:    f003fa98    ....    BL       dma_enable_it_tfr ; 0x80056f8
        0x080021c8:    6978        xi      LDR      r0,[r7,#0x14]
        0x080021ca:    0701        ..      LSLS     r1,r0,#28
        0x080021cc:    4635        5F      MOV      r5,r6
        0x080021ce:    d411        ..      BMI      0x80021f4 ; hal_dma_start_it + 190
        0x080021d0:    0c02        ..      LSRS     r2,r0,#16
        0x080021d2:    4628        (F      MOV      r0,r5
        0x080021d4:    9e02        ..      LDR      r6,[sp,#8]
        0x080021d6:    4631        1F      MOV      r1,r6
        0x080021d8:    f003fd20    .. .    BL       dma_set_src_handshake_if ; 0x8005c1c
        0x080021dc:    69b8        .i      LDR      r0,[r7,#0x18]
        0x080021de:    03c0        ..      LSLS     r0,r0,#15
        0x080021e0:    0fc2        ..      LSRS     r2,r0,#31
        0x080021e2:    4628        (F      MOV      r0,r5
        0x080021e4:    4631        1F      MOV      r1,r6
        0x080021e6:    f003fd2b    ..+.    BL       dma_set_src_handshake_polarity ; 0x8005c40
        0x080021ea:    e013        ..      B        0x8002214 ; hal_dma_start_it + 222
        0x080021ec:    2100        .!      MOVS     r1,#0
        0x080021ee:    7001        .p      STRB     r1,[r0,#0]
        0x080021f0:    9c01        ..      LDR      r4,[sp,#4]
        0x080021f2:    e036        6.      B        0x8002262 ; hal_dma_start_it + 300
        0x080021f4:    68f8        .h      LDR      r0,[r7,#0xc]
        0x080021f6:    0240        @.      LSLS     r0,r0,#9
        0x080021f8:    0f40        @.      LSRS     r0,r0,#29
        0x080021fa:    2807        .(      CMP      r0,#7
        0x080021fc:    9a01        ..      LDR      r2,[sp,#4]
        0x080021fe:    9e02        ..      LDR      r6,[sp,#8]
        0x08002200:    d809        ..      BHI      0x8002216 ; hal_dma_start_it + 224
        0x08002202:    4611        .F      MOV      r1,r2
        0x08002204:    4081        .@      LSLS     r1,r1,r0
        0x08002206:    20b4        .       MOVS     r0,#0xb4
        0x08002208:    4201        .B      TST      r1,r0
        0x0800220a:    d004        ..      BEQ      0x8002216 ; hal_dma_start_it + 224
        0x0800220c:    4628        (F      MOV      r0,r5
        0x0800220e:    4631        1F      MOV      r1,r6
        0x08002210:    f003fa66    ..f.    BL       dma_enable_it_src_tran ; 0x80056e0
        0x08002214:    9a01        ..      LDR      r2,[sp,#4]
        0x08002216:    7d38        8}      LDRB     r0,[r7,#0x14]
        0x08002218:    06c0        ..      LSLS     r0,r0,#27
        0x0800221a:    d40c        ..      BMI      0x8002236 ; hal_dma_start_it + 256
        0x0800221c:    8b3a        :.      LDRH     r2,[r7,#0x18]
        0x0800221e:    4628        (F      MOV      r0,r5
        0x08002220:    4631        1F      MOV      r1,r6
        0x08002222:    f003fb63    ..c.    BL       dma_set_dst_handshake_if ; 0x80058ec
        0x08002226:    69b8        .i      LDR      r0,[r7,#0x18]
        0x08002228:    0380        ..      LSLS     r0,r0,#14
        0x0800222a:    0fc2        ..      LSRS     r2,r0,#31
        0x0800222c:    4628        (F      MOV      r0,r5
        0x0800222e:    4631        1F      MOV      r1,r6
        0x08002230:    f003fb6c    ..l.    BL       dma_set_dst_handshake_polarity ; 0x800590c
        0x08002234:    e00c        ..      B        0x8002250 ; hal_dma_start_it + 282
        0x08002236:    68f8        .h      LDR      r0,[r7,#0xc]
        0x08002238:    0240        @.      LSLS     r0,r0,#9
        0x0800223a:    0f40        @.      LSRS     r0,r0,#29
        0x0800223c:    2807        .(      CMP      r0,#7
        0x0800223e:    d807        ..      BHI      0x8002250 ; hal_dma_start_it + 282
        0x08002240:    4082        .@      LSLS     r2,r2,r0
        0x08002242:    20e2        .       MOVS     r0,#0xe2
        0x08002244:    4202        .B      TST      r2,r0
        0x08002246:    d003        ..      BEQ      0x8002250 ; hal_dma_start_it + 282
        0x08002248:    4628        (F      MOV      r0,r5
        0x0800224a:    4631        1F      MOV      r1,r6
        0x0800224c:    f003fa30    ..0.    BL       dma_enable_it_dst_tran ; 0x80056b0
        0x08002250:    2201        ."      MOVS     r2,#1
        0x08002252:    4628        (F      MOV      r0,r5
        0x08002254:    4631        1F      MOV      r1,r6
        0x08002256:    f003fc15    ....    BL       dma_set_int_en ; 0x8005a84
        0x0800225a:    4628        (F      MOV      r0,r5
        0x0800225c:    4631        1F      MOV      r1,r6
        0x0800225e:    f003fa03    ....    BL       dma_enable_channel ; 0x8005668
        0x08002262:    4620         F      MOV      r0,r4
        0x08002264:    b003        ..      ADD      sp,sp,#0xc
        0x08002266:    bdf0        ..      POP      {r4-r7,pc}
    hal_dma_aboart_it
        0x08002268:    b580        ..      PUSH     {r7,lr}
        0x0800226a:    4601        .F      MOV      r1,r0
        0x0800226c:    2001        .       MOVS     r0,#1
        0x0800226e:    2900        .)      CMP      r1,#0
        0x08002270:    d00b        ..      BEQ      0x800228a ; hal_dma_aboart_it + 34
        0x08002272:    2241        A"      MOVS     r2,#0x41
        0x08002274:    5c8a        .\      LDRB     r2,[r1,r2]
        0x08002276:    2a02        .*      CMP      r2,#2
        0x08002278:    d108        ..      BNE      0x800228c ; hal_dma_aboart_it + 36
        0x0800227a:    460a        .F      MOV      r2,r1
        0x0800227c:    3241        A2      ADDS     r2,r2,#0x41
        0x0800227e:    c903        ..      LDM      r1,{r0,r1}
        0x08002280:    2305        .#      MOVS     r3,#5
        0x08002282:    7013        .p      STRB     r3,[r2,#0]
        0x08002284:    f003f9b4    ....    BL       dma_disable_channel ; 0x80055f0
        0x08002288:    2000        .       MOVS     r0,#0
        0x0800228a:    bd80        ..      POP      {r7,pc}
        0x0800228c:    2210        ."      MOVS     r2,#0x10
        0x0800228e:    660a        .f      STR      r2,[r1,#0x60]
        0x08002290:    bd80        ..      POP      {r7,pc}
        0x08002292:    46c0        .F      MOV      r8,r8
    hal_dma_irq_handler
        0x08002294:    b5f0        ..      PUSH     {r4-r7,lr}
        0x08002296:    b081        ..      SUB      sp,sp,#4
        0x08002298:    4604        .F      MOV      r4,r0
        0x0800229a:    c860        `.      LDM      r0!,{r5,r6}
        0x0800229c:    4628        (F      MOV      r0,r5
        0x0800229e:    4631        1F      MOV      r1,r6
        0x080022a0:    f003fa5a    ..Z.    BL       dma_get_status_error ; 0x8005758
        0x080022a4:    2800        .(      CMP      r0,#0
        0x080022a6:    d00f        ..      BEQ      0x80022c8 ; hal_dma_irq_handler + 52
        0x080022a8:    4628        (F      MOV      r0,r5
        0x080022aa:    4631        1F      MOV      r1,r6
        0x080022ac:    f003fa9c    ....    BL       dma_is_enabled_it_error ; 0x80057e8
        0x080022b0:    2800        .(      CMP      r0,#0
        0x080022b2:    d009        ..      BEQ      0x80022c8 ; hal_dma_irq_handler + 52
        0x080022b4:    4628        (F      MOV      r0,r5
        0x080022b6:    4631        1F      MOV      r1,r6
        0x080022b8:    f003f9b8    ....    BL       dma_disable_it_error ; 0x800562c
        0x080022bc:    4628        (F      MOV      r0,r5
        0x080022be:    4631        1F      MOV      r1,r6
        0x080022c0:    f003f978    ..x.    BL       dma_clear_it_error ; 0x80055b4
        0x080022c4:    2001        .       MOVS     r0,#1
        0x080022c6:    6620         f      STR      r0,[r4,#0x60]
        0x080022c8:    4628        (F      MOV      r0,r5
        0x080022ca:    4631        1F      MOV      r1,r6
        0x080022cc:    f003fa5c    ..\.    BL       dma_get_status_tfr ; 0x8005788
        0x080022d0:    2800        .(      CMP      r0,#0
        0x080022d2:    d069        i.      BEQ      0x80023a8 ; hal_dma_irq_handler + 276
        0x080022d4:    4628        (F      MOV      r0,r5
        0x080022d6:    4631        1F      MOV      r1,r6
        0x080022d8:    f003fa9e    ....    BL       dma_is_enabled_it_tfr ; 0x8005818
        0x080022dc:    2800        .(      CMP      r0,#0
        0x080022de:    d063        c.      BEQ      0x80023a8 ; hal_dma_irq_handler + 276
        0x080022e0:    6be0        .k      LDR      r0,[r4,#0x3c]
        0x080022e2:    1c40        @.      ADDS     r0,r0,#1
        0x080022e4:    63e0        .c      STR      r0,[r4,#0x3c]
        0x080022e6:    68a1        .h      LDR      r1,[r4,#8]
        0x080022e8:    2904        .)      CMP      r1,#4
        0x080022ea:    d11e        ..      BNE      0x800232a ; hal_dma_irq_handler + 150
        0x080022ec:    6ba1        .k      LDR      r1,[r4,#0x38]
        0x080022ee:    4288        .B      CMP      r0,r1
        0x080022f0:    d200        ..      BCS      0x80022f4 ; hal_dma_irq_handler + 96
        0x080022f2:    e0e8        ..      B        0x80024c6 ; hal_dma_irq_handler + 562
        0x080022f4:    6ca1        .l      LDR      r1,[r4,#0x48]
        0x080022f6:    2900        .)      CMP      r1,#0
        0x080022f8:    d001        ..      BEQ      0x80022fe ; hal_dma_irq_handler + 106
        0x080022fa:    4620         F      MOV      r0,r4
        0x080022fc:    4788        .G      BLX      r1
        0x080022fe:    2200        ."      MOVS     r2,#0
        0x08002300:    4628        (F      MOV      r0,r5
        0x08002302:    4631        1F      MOV      r1,r6
        0x08002304:    f003fbbe    ....    BL       dma_set_int_en ; 0x8005a84
        0x08002308:    4628        (F      MOV      r0,r5
        0x0800230a:    4631        1F      MOV      r1,r6
        0x0800230c:    f003f966    ..f.    BL       dma_clear_it_tfr ; 0x80055dc
        0x08002310:    4628        (F      MOV      r0,r5
        0x08002312:    4631        1F      MOV      r1,r6
        0x08002314:    f003f958    ..X.    BL       dma_clear_it_src_tran ; 0x80055c8
        0x08002318:    4628        (F      MOV      r0,r5
        0x0800231a:    4631        1F      MOV      r1,r6
        0x0800231c:    f003f940    ..@.    BL       dma_clear_it_dst_tran ; 0x80055a0
        0x08002320:    4628        (F      MOV      r0,r5
        0x08002322:    4631        1F      MOV      r1,r6
        0x08002324:    f003f932    ..2.    BL       dma_clear_it_block ; 0x800558c
        0x08002328:    e0cd        ..      B        0x80024c6 ; hal_dma_irq_handler + 562
        0x0800232a:    6ca1        .l      LDR      r1,[r4,#0x48]
        0x0800232c:    2900        .)      CMP      r1,#0
        0x0800232e:    d001        ..      BEQ      0x8002334 ; hal_dma_irq_handler + 160
        0x08002330:    4620         F      MOV      r0,r4
        0x08002332:    4788        .G      BLX      r1
        0x08002334:    4628        (F      MOV      r0,r5
        0x08002336:    4631        1F      MOV      r1,r6
        0x08002338:    f003f950    ..P.    BL       dma_clear_it_tfr ; 0x80055dc
        0x0800233c:    4628        (F      MOV      r0,r5
        0x0800233e:    4631        1F      MOV      r1,r6
        0x08002340:    f003f924    ..$.    BL       dma_clear_it_block ; 0x800558c
        0x08002344:    4628        (F      MOV      r0,r5
        0x08002346:    4631        1F      MOV      r1,r6
        0x08002348:    f003f93e    ..>.    BL       dma_clear_it_src_tran ; 0x80055c8
        0x0800234c:    4628        (F      MOV      r0,r5
        0x0800234e:    4631        1F      MOV      r1,r6
        0x08002350:    f003f926    ..&.    BL       dma_clear_it_dst_tran ; 0x80055a0
        0x08002354:    4628        (F      MOV      r0,r5
        0x08002356:    4631        1F      MOV      r1,r6
        0x08002358:    f003f97c    ..|.    BL       dma_disable_it_tfr ; 0x8005654
        0x0800235c:    4628        (F      MOV      r0,r5
        0x0800235e:    4631        1F      MOV      r1,r6
        0x08002360:    f003f950    ..P.    BL       dma_disable_it_block ; 0x8005604
        0x08002364:    4628        (F      MOV      r0,r5
        0x08002366:    4631        1F      MOV      r1,r6
        0x08002368:    f003f96a    ..j.    BL       dma_disable_it_src_tran ; 0x8005640
        0x0800236c:    4628        (F      MOV      r0,r5
        0x0800236e:    4631        1F      MOV      r1,r6
        0x08002370:    f003f952    ..R.    BL       dma_disable_it_dst_tran ; 0x8005618
        0x08002374:    4628        (F      MOV      r0,r5
        0x08002376:    4631        1F      MOV      r1,r6
        0x08002378:    f003f958    ..X.    BL       dma_disable_it_error ; 0x800562c
        0x0800237c:    2041        A       MOVS     r0,#0x41
        0x0800237e:    5c20         \      LDRB     r0,[r4,r0]
        0x08002380:    4627        'F      MOV      r7,r4
        0x08002382:    3741        A7      ADDS     r7,r7,#0x41
        0x08002384:    2805        .(      CMP      r0,#5
        0x08002386:    d10a        ..      BNE      0x800239e ; hal_dma_irq_handler + 266
        0x08002388:    6de1        .m      LDR      r1,[r4,#0x5c]
        0x0800238a:    2900        .)      CMP      r1,#0
        0x0800238c:    d001        ..      BEQ      0x8002392 ; hal_dma_irq_handler + 254
        0x0800238e:    4620         F      MOV      r0,r4
        0x08002390:    4788        .G      BLX      r1
        0x08002392:    2001        .       MOVS     r0,#1
        0x08002394:    7038        8p      STRB     r0,[r7,#0]
        0x08002396:    2040        @       MOVS     r0,#0x40
        0x08002398:    2100        .!      MOVS     r1,#0
        0x0800239a:    5421        !T      STRB     r1,[r4,r0]
        0x0800239c:    e093        ..      B        0x80024c6 ; hal_dma_irq_handler + 562
        0x0800239e:    2001        .       MOVS     r0,#1
        0x080023a0:    7038        8p      STRB     r0,[r7,#0]
        0x080023a2:    2040        @       MOVS     r0,#0x40
        0x080023a4:    2100        .!      MOVS     r1,#0
        0x080023a6:    5421        !T      STRB     r1,[r4,r0]
        0x080023a8:    4628        (F      MOV      r0,r5
        0x080023aa:    4631        1F      MOV      r1,r6
        0x080023ac:    f003f9bc    ....    BL       dma_get_status_block ; 0x8005728
        0x080023b0:    2800        .(      CMP      r0,#0
        0x080023b2:    d03f        ?.      BEQ      0x8002434 ; hal_dma_irq_handler + 416
        0x080023b4:    4628        (F      MOV      r0,r5
        0x080023b6:    4631        1F      MOV      r1,r6
        0x080023b8:    f003f9fe    ....    BL       dma_is_enabled_it_block ; 0x80057b8
        0x080023bc:    2800        .(      CMP      r0,#0
        0x080023be:    d039        9.      BEQ      0x8002434 ; hal_dma_irq_handler + 416
        0x080023c0:    6be0        .k      LDR      r0,[r4,#0x3c]
        0x080023c2:    1c40        @.      ADDS     r0,r0,#1
        0x080023c4:    63e0        .c      STR      r0,[r4,#0x3c]
        0x080023c6:    6ba1        .k      LDR      r1,[r4,#0x38]
        0x080023c8:    1e49        I.      SUBS     r1,r1,#1
        0x080023ca:    4288        .B      CMP      r0,r1
        0x080023cc:    d121        !.      BNE      0x8002412 ; hal_dma_irq_handler + 382
        0x080023ce:    68a0        .h      LDR      r0,[r4,#8]
        0x080023d0:    1e80        ..      SUBS     r0,r0,#2
        0x080023d2:    2807        .(      CMP      r0,#7
        0x080023d4:    d81d        ..      BHI      0x8002412 ; hal_dma_irq_handler + 382
        0x080023d6:    46c0        .F      MOV      r8,r8
        0x080023d8:    4478        xD      ADD      r0,r0,pc
        0x080023da:    7900        .y      LDRB     r0,[r0,#4]
        0x080023dc:    0040        @.      LSLS     r0,r0,#1
        0x080023de:    4487        .D      ADD      pc,pc,r0
    $d.13
        0x080023e0:    180d0703    ....    DCD    403506947
        0x080023e4:    03180718    ....    DCD    51906328
    $t.14
        0x080023e8:    2200        ."      MOVS     r2,#0
        0x080023ea:    4628        (F      MOV      r0,r5
        0x080023ec:    4631        1F      MOV      r1,r6
        0x080023ee:    e00e        ..      B        0x800240e ; hal_dma_irq_handler + 378
        0x080023f0:    2200        ."      MOVS     r2,#0
        0x080023f2:    4628        (F      MOV      r0,r5
        0x080023f4:    4631        1F      MOV      r1,r6
        0x080023f6:    f003fc59    ..Y.    BL       dma_set_src_realod_en ; 0x8005cac
        0x080023fa:    e00a        ..      B        0x8002412 ; hal_dma_irq_handler + 382
        0x080023fc:    2700        .'      MOVS     r7,#0
        0x080023fe:    4628        (F      MOV      r0,r5
        0x08002400:    4631        1F      MOV      r1,r6
        0x08002402:    463a        :F      MOV      r2,r7
        0x08002404:    f003fc52    ..R.    BL       dma_set_src_realod_en ; 0x8005cac
        0x08002408:    4628        (F      MOV      r0,r5
        0x0800240a:    4631        1F      MOV      r1,r6
        0x0800240c:    463a        :F      MOV      r2,r7
        0x0800240e:    f003faad    ....    BL       dma_set_dst_reload_en ; 0x800596c
        0x08002412:    6d21        !m      LDR      r1,[r4,#0x50]
        0x08002414:    2900        .)      CMP      r1,#0
        0x08002416:    d001        ..      BEQ      0x800241c ; hal_dma_irq_handler + 392
        0x08002418:    4620         F      MOV      r0,r4
        0x0800241a:    4788        .G      BLX      r1
        0x0800241c:    4628        (F      MOV      r0,r5
        0x0800241e:    4631        1F      MOV      r1,r6
        0x08002420:    f003f8d2    ....    BL       dma_clear_it_src_tran ; 0x80055c8
        0x08002424:    4628        (F      MOV      r0,r5
        0x08002426:    4631        1F      MOV      r1,r6
        0x08002428:    f003f8ba    ....    BL       dma_clear_it_dst_tran ; 0x80055a0
        0x0800242c:    4628        (F      MOV      r0,r5
        0x0800242e:    4631        1F      MOV      r1,r6
        0x08002430:    f003f8ac    ....    BL       dma_clear_it_block ; 0x800558c
        0x08002434:    4628        (F      MOV      r0,r5
        0x08002436:    4631        1F      MOV      r1,r6
        0x08002438:    f003f99a    ....    BL       dma_get_status_src_tran ; 0x8005770
        0x0800243c:    2800        .(      CMP      r0,#0
        0x0800243e:    d00e        ..      BEQ      0x800245e ; hal_dma_irq_handler + 458
        0x08002440:    4628        (F      MOV      r0,r5
        0x08002442:    4631        1F      MOV      r1,r6
        0x08002444:    f003f9dc    ....    BL       dma_is_enabled_it_src_tran ; 0x8005800
        0x08002448:    2800        .(      CMP      r0,#0
        0x0800244a:    d008        ..      BEQ      0x800245e ; hal_dma_irq_handler + 458
        0x0800244c:    6d61        am      LDR      r1,[r4,#0x54]
        0x0800244e:    2900        .)      CMP      r1,#0
        0x08002450:    d001        ..      BEQ      0x8002456 ; hal_dma_irq_handler + 450
        0x08002452:    4620         F      MOV      r0,r4
        0x08002454:    4788        .G      BLX      r1
        0x08002456:    4628        (F      MOV      r0,r5
        0x08002458:    4631        1F      MOV      r1,r6
        0x0800245a:    f003f8b5    ....    BL       dma_clear_it_src_tran ; 0x80055c8
        0x0800245e:    4628        (F      MOV      r0,r5
        0x08002460:    4631        1F      MOV      r1,r6
        0x08002462:    f003f96d    ..m.    BL       dma_get_status_dst_tran ; 0x8005740
        0x08002466:    2800        .(      CMP      r0,#0
        0x08002468:    d00e        ..      BEQ      0x8002488 ; hal_dma_irq_handler + 500
        0x0800246a:    4628        (F      MOV      r0,r5
        0x0800246c:    4631        1F      MOV      r1,r6
        0x0800246e:    f003f9af    ....    BL       dma_is_enabled_it_dst_tran ; 0x80057d0
        0x08002472:    2800        .(      CMP      r0,#0
        0x08002474:    d008        ..      BEQ      0x8002488 ; hal_dma_irq_handler + 500
        0x08002476:    6da1        .m      LDR      r1,[r4,#0x58]
        0x08002478:    2900        .)      CMP      r1,#0
        0x0800247a:    d001        ..      BEQ      0x8002480 ; hal_dma_irq_handler + 492
        0x0800247c:    4620         F      MOV      r0,r4
        0x0800247e:    4788        .G      BLX      r1
        0x08002480:    4628        (F      MOV      r0,r5
        0x08002482:    4631        1F      MOV      r1,r6
        0x08002484:    f003f88c    ....    BL       dma_clear_it_dst_tran ; 0x80055a0
        0x08002488:    6e20         n      LDR      r0,[r4,#0x60]
        0x0800248a:    2800        .(      CMP      r0,#0
        0x0800248c:    d01b        ..      BEQ      0x80024c6 ; hal_dma_irq_handler + 562
        0x0800248e:    6e20         n      LDR      r0,[r4,#0x60]
        0x08002490:    07c0        ..      LSLS     r0,r0,#31
        0x08002492:    d013        ..      BEQ      0x80024bc ; hal_dma_irq_handler + 552
        0x08002494:    2041        A       MOVS     r0,#0x41
        0x08002496:    2105        .!      MOVS     r1,#5
        0x08002498:    5421        !T      STRB     r1,[r4,r0]
        0x0800249a:    4628        (F      MOV      r0,r5
        0x0800249c:    4631        1F      MOV      r1,r6
        0x0800249e:    f003f8a7    ....    BL       dma_disable_channel ; 0x80055f0
        0x080024a2:    4627        'F      MOV      r7,r4
        0x080024a4:    3741        A7      ADDS     r7,r7,#0x41
        0x080024a6:    4628        (F      MOV      r0,r5
        0x080024a8:    4631        1F      MOV      r1,r6
        0x080024aa:    f003f979    ..y.    BL       dma_is_active_channel ; 0x80057a0
        0x080024ae:    2800        .(      CMP      r0,#0
        0x080024b0:    d1f9        ..      BNE      0x80024a6 ; hal_dma_irq_handler + 530
        0x080024b2:    2001        .       MOVS     r0,#1
        0x080024b4:    7038        8p      STRB     r0,[r7,#0]
        0x080024b6:    2040        @       MOVS     r0,#0x40
        0x080024b8:    2100        .!      MOVS     r1,#0
        0x080024ba:    5421        !T      STRB     r1,[r4,r0]
        0x080024bc:    6ce1        .l      LDR      r1,[r4,#0x4c]
        0x080024be:    2900        .)      CMP      r1,#0
        0x080024c0:    d001        ..      BEQ      0x80024c6 ; hal_dma_irq_handler + 562
        0x080024c2:    4620         F      MOV      r0,r4
        0x080024c4:    4788        .G      BLX      r1
        0x080024c6:    b001        ..      ADD      sp,sp,#4
        0x080024c8:    bdf0        ..      POP      {r4-r7,pc}
        0x080024ca:    46c0        .F      MOV      r8,r8
    hal_dma_register_callbacks
        0x080024cc:    b5b0        ..      PUSH     {r4,r5,r7,lr}
        0x080024ce:    4603        .F      MOV      r3,r0
        0x080024d0:    2040        @       MOVS     r0,#0x40
        0x080024d2:    5c18        .\      LDRB     r0,[r3,r0]
        0x080024d4:    2801        .(      CMP      r0,#1
        0x080024d6:    d101        ..      BNE      0x80024dc ; hal_dma_register_callbacks + 16
        0x080024d8:    2002        .       MOVS     r0,#2
        0x080024da:    bdb0        ..      POP      {r4,r5,r7,pc}
        0x080024dc:    461c        .F      MOV      r4,r3
        0x080024de:    3440        @4      ADDS     r4,r4,#0x40
        0x080024e0:    2001        .       MOVS     r0,#1
        0x080024e2:    7020         p      STRB     r0,[r4,#0]
        0x080024e4:    2541        A%      MOVS     r5,#0x41
        0x080024e6:    5d5d        ]]      LDRB     r5,[r3,r5]
        0x080024e8:    2d01        .-      CMP      r5,#1
        0x080024ea:    d114        ..      BNE      0x8002516 ; hal_dma_register_callbacks + 74
        0x080024ec:    2905        .)      CMP      r1,#5
        0x080024ee:    d812        ..      BHI      0x8002516 ; hal_dma_register_callbacks + 74
        0x080024f0:    4479        yD      ADD      r1,r1,pc
        0x080024f2:    7909        .y      LDRB     r1,[r1,#4]
        0x080024f4:    0049        I.      LSLS     r1,r1,#1
        0x080024f6:    448f        .D      ADD      pc,pc,r1
    $d.15
        0x080024f8:    08060402    ....    DCD    134611970
        0x080024fc:    0c0a        ..      DCW    3082
    $t.16
        0x080024fe:    649a        .d      STR      r2,[r3,#0x48]
        0x08002500:    e008        ..      B        0x8002514 ; hal_dma_register_callbacks + 72
        0x08002502:    64da        .d      STR      r2,[r3,#0x4c]
        0x08002504:    e006        ..      B        0x8002514 ; hal_dma_register_callbacks + 72
        0x08002506:    651a        .e      STR      r2,[r3,#0x50]
        0x08002508:    e004        ..      B        0x8002514 ; hal_dma_register_callbacks + 72
        0x0800250a:    655a        Ze      STR      r2,[r3,#0x54]
        0x0800250c:    e002        ..      B        0x8002514 ; hal_dma_register_callbacks + 72
        0x0800250e:    659a        .e      STR      r2,[r3,#0x58]
        0x08002510:    e000        ..      B        0x8002514 ; hal_dma_register_callbacks + 72
        0x08002512:    65da        .e      STR      r2,[r3,#0x5c]
        0x08002514:    2000        .       MOVS     r0,#0
        0x08002516:    2100        .!      MOVS     r1,#0
        0x08002518:    7021        !p      STRB     r1,[r4,#0]
        0x0800251a:    bdb0        ..      POP      {r4,r5,r7,pc}
    hal_dma_unregister_callbacks
        0x0800251c:    b5b0        ..      PUSH     {r4,r5,r7,lr}
        0x0800251e:    2240        @"      MOVS     r2,#0x40
        0x08002520:    5c82        .\      LDRB     r2,[r0,r2]
        0x08002522:    2a01        .*      CMP      r2,#1
        0x08002524:    d101        ..      BNE      0x800252a ; hal_dma_unregister_callbacks + 14
        0x08002526:    2202        ."      MOVS     r2,#2
        0x08002528:    e02c        ,.      B        0x8002584 ; hal_dma_unregister_callbacks + 104
        0x0800252a:    4604        .F      MOV      r4,r0
        0x0800252c:    3440        @4      ADDS     r4,r4,#0x40
        0x0800252e:    2301        .#      MOVS     r3,#1
        0x08002530:    7023        #p      STRB     r3,[r4,#0]
        0x08002532:    2241        A"      MOVS     r2,#0x41
        0x08002534:    5c82        .\      LDRB     r2,[r0,r2]
        0x08002536:    2500        .%      MOVS     r5,#0
        0x08002538:    2a01        .*      CMP      r2,#1
        0x0800253a:    462a        *F      MOV      r2,r5
        0x0800253c:    d121        !.      BNE      0x8002582 ; hal_dma_unregister_callbacks + 102
        0x0800253e:    2906        .)      CMP      r1,#6
        0x08002540:    461a        .F      MOV      r2,r3
        0x08002542:    d81e        ..      BHI      0x8002582 ; hal_dma_unregister_callbacks + 102
        0x08002544:    4479        yD      ADD      r1,r1,pc
        0x08002546:    7909        .y      LDRB     r1,[r1,#4]
        0x08002548:    0049        I.      LSLS     r1,r1,#1
        0x0800254a:    448f        .D      ADD      pc,pc,r1
    $d.17
        0x0800254c:    0c090603    ....    DCD    201917955
        0x08002550:    0015120f    ....    DCD    1380879
    $t.18
        0x08002554:    2200        ."      MOVS     r2,#0
        0x08002556:    6482        .d      STR      r2,[r0,#0x48]
        0x08002558:    e013        ..      B        0x8002582 ; hal_dma_unregister_callbacks + 102
        0x0800255a:    2200        ."      MOVS     r2,#0
        0x0800255c:    64c2        .d      STR      r2,[r0,#0x4c]
        0x0800255e:    e010        ..      B        0x8002582 ; hal_dma_unregister_callbacks + 102
        0x08002560:    2200        ."      MOVS     r2,#0
        0x08002562:    6502        .e      STR      r2,[r0,#0x50]
        0x08002564:    e00d        ..      B        0x8002582 ; hal_dma_unregister_callbacks + 102
        0x08002566:    2200        ."      MOVS     r2,#0
        0x08002568:    6542        Be      STR      r2,[r0,#0x54]
        0x0800256a:    e00a        ..      B        0x8002582 ; hal_dma_unregister_callbacks + 102
        0x0800256c:    2200        ."      MOVS     r2,#0
        0x0800256e:    6582        .e      STR      r2,[r0,#0x58]
        0x08002570:    e007        ..      B        0x8002582 ; hal_dma_unregister_callbacks + 102
        0x08002572:    2200        ."      MOVS     r2,#0
        0x08002574:    65c2        .e      STR      r2,[r0,#0x5c]
        0x08002576:    e004        ..      B        0x8002582 ; hal_dma_unregister_callbacks + 102
        0x08002578:    3048        H0      ADDS     r0,r0,#0x48
        0x0800257a:    2118        .!      MOVS     r1,#0x18
        0x0800257c:    f001fa95    ....    BL       __aeabi_memclr4 ; 0x8003aaa
        0x08002580:    462a        *F      MOV      r2,r5
        0x08002582:    7025        %p      STRB     r5,[r4,#0]
        0x08002584:    4610        .F      MOV      r0,r2
        0x08002586:    bdb0        ..      POP      {r4,r5,r7,pc}
    hal_dma_get_state
        0x08002588:    2141        A!      MOVS     r1,#0x41
        0x0800258a:    5c40        @\      LDRB     r0,[r0,r1]
        0x0800258c:    4770        pG      BX       lr
    hal_dma_get_error
        0x0800258e:    6e00        .n      LDR      r0,[r0,#0x60]
        0x08002590:    4770        pG      BX       lr
        0x08002592:    0000        ..      MOVS     r0,r0
    uart_baudrate_set
        0x08002594:    b5f0        ..      PUSH     {r4-r7,lr}
        0x08002596:    b081        ..      SUB      sp,sp,#4
        0x08002598:    460c        .F      MOV      r4,r1
        0x0800259a:    0080        ..      LSLS     r0,r0,#2
        0x0800259c:    490e        .I      LDR      r1,[pc,#56] ; [0x80025d8] = 0x8007418
        0x0800259e:    580e        .X      LDR      r6,[r1,r0]
        0x080025a0:    f000fad6    ....    BL       clk_mcu_get ; 0x8002b50
        0x080025a4:    68f1        .h      LDR      r1,[r6,#0xc]
        0x080025a6:    2780        .'      MOVS     r7,#0x80
        0x080025a8:    4339        9C      ORRS     r1,r1,r7
        0x080025aa:    60f1        .`      STR      r1,[r6,#0xc]
        0x080025ac:    0905        ..      LSRS     r5,r0,#4
        0x080025ae:    4628        (F      MOV      r0,r5
        0x080025b0:    4621        !F      MOV      r1,r4
        0x080025b2:    f001fa7c    ..|.    BL       __aeabi_uidiv ; 0x8003aae
        0x080025b6:    b2c1        ..      UXTB     r1,r0
        0x080025b8:    6031        1`      STR      r1,[r6,#0]
        0x080025ba:    0a01        ..      LSRS     r1,r0,#8
        0x080025bc:    6071        q`      STR      r1,[r6,#4]
        0x080025be:    4360        `C      MULS     r0,r4,r0
        0x080025c0:    1a28        (.      SUBS     r0,r5,r0
        0x080025c2:    0180        ..      LSLS     r0,r0,#6
        0x080025c4:    4621        !F      MOV      r1,r4
        0x080025c6:    f001fa72    ..r.    BL       __aeabi_uidiv ; 0x8003aae
        0x080025ca:    21c0        .!      MOVS     r1,#0xc0
        0x080025cc:    5070        pP      STR      r0,[r6,r1]
        0x080025ce:    68f0        .h      LDR      r0,[r6,#0xc]
        0x080025d0:    43b8        .C      BICS     r0,r0,r7
        0x080025d2:    60f0        .`      STR      r0,[r6,#0xc]
        0x080025d4:    b001        ..      ADD      sp,sp,#4
        0x080025d6:    bdf0        ..      POP      {r4-r7,pc}
    $d.1
    __arm_cp.0_0
        0x080025d8:    08007418    .t..    DCD    134247448
    $t.2
    uart_baudrate_reset
        0x080025dc:    b5b0        ..      PUSH     {r4,r5,r7,lr}
        0x080025de:    0082        ..      LSLS     r2,r0,#2
        0x080025e0:    4b0c        .K      LDR      r3,[pc,#48] ; [0x8002614] = 0x8007418
        0x080025e2:    589c        .X      LDR      r4,[r3,r2]
        0x080025e4:    6fe2        .o      LDR      r2,[r4,#0x7c]
        0x080025e6:    0752        R.      LSLS     r2,r2,#29
        0x080025e8:    d5fc        ..      BPL      0x80025e4 ; uart_baudrate_reset + 8
        0x080025ea:    6fe2        .o      LDR      r2,[r4,#0x7c]
        0x080025ec:    07d2        ..      LSLS     r2,r2,#31
        0x080025ee:    d1fc        ..      BNE      0x80025ea ; uart_baudrate_reset + 14
        0x080025f0:    4a09        .J      LDR      r2,[pc,#36] ; [0x8002618] = 0xe000e180
        0x080025f2:    2320         #      MOVS     r3,#0x20
        0x080025f4:    6013        .`      STR      r3,[r2,#0]
        0x080025f6:    f3bf8f4f    ..O.    DSB      
        0x080025fa:    f3bf8f6f    ..o.    ISB      
        0x080025fe:    4a07        .J      LDR      r2,[pc,#28] ; [0x800261c] = 0xe000e280
        0x08002600:    6013        .`      STR      r3,[r2,#0]
        0x08002602:    6865        eh      LDR      r5,[r4,#4]
        0x08002604:    2200        ."      MOVS     r2,#0
        0x08002606:    6062        b`      STR      r2,[r4,#4]
        0x08002608:    4a05        .J      LDR      r2,[pc,#20] ; [0x8002620] = 0xe000e100
        0x0800260a:    6013        .`      STR      r3,[r2,#0]
        0x0800260c:    f7ffffc2    ....    BL       uart_baudrate_set ; 0x8002594
        0x08002610:    6065        e`      STR      r5,[r4,#4]
        0x08002612:    bdb0        ..      POP      {r4,r5,r7,pc}
    $d.3
    __arm_cp.1_0
        0x08002614:    08007418    .t..    DCD    134247448
    __arm_cp.1_1
        0x08002618:    e000e180    ....    DCD    3758154112
    __arm_cp.1_2
        0x0800261c:    e000e280    ....    DCD    3758154368
    __arm_cp.1_3
        0x08002620:    e000e100    ....    DCD    3758153984
    $t.4
    uart_data_width_set
        0x08002624:    2203        ."      MOVS     r2,#3
        0x08002626:    4011        .@      ANDS     r1,r1,r2
        0x08002628:    0080        ..      LSLS     r0,r0,#2
        0x0800262a:    4b03        .K      LDR      r3,[pc,#12] ; [0x8002638] = 0x8007418
        0x0800262c:    5818        .X      LDR      r0,[r3,r0]
        0x0800262e:    68c3        .h      LDR      r3,[r0,#0xc]
        0x08002630:    4393        .C      BICS     r3,r3,r2
        0x08002632:    1859        Y.      ADDS     r1,r3,r1
        0x08002634:    60c1        .`      STR      r1,[r0,#0xc]
        0x08002636:    4770        pG      BX       lr
    $d.5
    __arm_cp.2_0
        0x08002638:    08007418    .t..    DCD    134247448
    $t.6
    uart_parity_set
        0x0800263c:    0080        ..      LSLS     r0,r0,#2
        0x0800263e:    4a09        .J      LDR      r2,[pc,#36] ; [0x8002664] = 0x8007418
        0x08002640:    5810        .X      LDR      r0,[r2,r0]
        0x08002642:    68c2        .h      LDR      r2,[r0,#0xc]
        0x08002644:    2900        .)      CMP      r1,#0
        0x08002646:    d003        ..      BEQ      0x8002650 ; uart_parity_set + 20
        0x08002648:    2902        .)      CMP      r1,#2
        0x0800264a:    d106        ..      BNE      0x800265a ; uart_parity_set + 30
        0x0800264c:    2108        .!      MOVS     r1,#8
        0x0800264e:    e002        ..      B        0x8002656 ; uart_parity_set + 26
        0x08002650:    2108        .!      MOVS     r1,#8
        0x08002652:    430a        .C      ORRS     r2,r2,r1
        0x08002654:    2110        .!      MOVS     r1,#0x10
        0x08002656:    438a        .C      BICS     r2,r2,r1
        0x08002658:    e001        ..      B        0x800265e ; uart_parity_set + 34
        0x0800265a:    2118        .!      MOVS     r1,#0x18
        0x0800265c:    430a        .C      ORRS     r2,r2,r1
        0x0800265e:    60c2        .`      STR      r2,[r0,#0xc]
        0x08002660:    4770        pG      BX       lr
        0x08002662:    46c0        .F      MOV      r8,r8
    $d.7
    __arm_cp.3_0
        0x08002664:    08007418    .t..    DCD    134247448
    $t.8
    uart_stop_bits_set
        0x08002668:    0080        ..      LSLS     r0,r0,#2
        0x0800266a:    4a05        .J      LDR      r2,[pc,#20] ; [0x8002680] = 0x8007418
        0x0800266c:    5810        .X      LDR      r0,[r2,r0]
        0x0800266e:    68c2        .h      LDR      r2,[r0,#0xc]
        0x08002670:    2304        .#      MOVS     r3,#4
        0x08002672:    2900        .)      CMP      r1,#0
        0x08002674:    d001        ..      BEQ      0x800267a ; uart_stop_bits_set + 18
        0x08002676:    431a        .C      ORRS     r2,r2,r3
        0x08002678:    e000        ..      B        0x800267c ; uart_stop_bits_set + 20
        0x0800267a:    439a        .C      BICS     r2,r2,r3
        0x0800267c:    60c2        .`      STR      r2,[r0,#0xc]
        0x0800267e:    4770        pG      BX       lr
    $d.9
    __arm_cp.4_0
        0x08002680:    08007418    .t..    DCD    134247448
    $t.10
    uart_set_dma_mode
        0x08002684:    0080        ..      LSLS     r0,r0,#2
        0x08002686:    4a02        .J      LDR      r2,[pc,#8] ; [0x8002690] = 0x8007418
        0x08002688:    5810        .X      LDR      r0,[r2,r0]
        0x0800268a:    2294        ."      MOVS     r2,#0x94
        0x0800268c:    5081        .P      STR      r1,[r0,r2]
        0x0800268e:    4770        pG      BX       lr
    $d.11
    __arm_cp.5_0
        0x08002690:    08007418    .t..    DCD    134247448
    $t.12
    uart_send_byte
        0x08002694:    0080        ..      LSLS     r0,r0,#2
        0x08002696:    4a04        .J      LDR      r2,[pc,#16] ; [0x80026a8] = 0x8007418
        0x08002698:    5810        .X      LDR      r0,[r2,r0]
        0x0800269a:    6fc2        .o      LDR      r2,[r0,#0x7c]
        0x0800269c:    0792        ..      LSLS     r2,r2,#30
        0x0800269e:    d5fc        ..      BPL      0x800269a ; uart_send_byte + 6
        0x080026a0:    6001        .`      STR      r1,[r0,#0]
        0x080026a2:    4608        .F      MOV      r0,r1
        0x080026a4:    4770        pG      BX       lr
        0x080026a6:    46c0        .F      MOV      r8,r8
    $d.13
    __arm_cp.6_0
        0x080026a8:    08007418    .t..    DCD    134247448
    $t.14
    uart_send_bs
        0x080026ac:    b5b0        ..      PUSH     {r4,r5,r7,lr}
        0x080026ae:    2a00        .*      CMP      r2,#0
        0x080026b0:    d00b        ..      BEQ      0x80026ca ; uart_send_bs + 30
        0x080026b2:    0080        ..      LSLS     r0,r0,#2
        0x080026b4:    4b05        .K      LDR      r3,[pc,#20] ; [0x80026cc] = 0x8007418
        0x080026b6:    5818        .X      LDR      r0,[r3,r0]
        0x080026b8:    2300        .#      MOVS     r3,#0
        0x080026ba:    5ccc        .\      LDRB     r4,[r1,r3]
        0x080026bc:    6fc5        .o      LDR      r5,[r0,#0x7c]
        0x080026be:    07ad        ..      LSLS     r5,r5,#30
        0x080026c0:    d5fc        ..      BPL      0x80026bc ; uart_send_bs + 16
        0x080026c2:    6004        .`      STR      r4,[r0,#0]
        0x080026c4:    1c5b        [.      ADDS     r3,r3,#1
        0x080026c6:    4293        .B      CMP      r3,r2
        0x080026c8:    d1f7        ..      BNE      0x80026ba ; uart_send_bs + 14
        0x080026ca:    bdb0        ..      POP      {r4,r5,r7,pc}
    $d.15
    __arm_cp.7_0
        0x080026cc:    08007418    .t..    DCD    134247448
    $t.16
    uart_send_str
        0x080026d0:    780a        .x      LDRB     r2,[r1,#0]
        0x080026d2:    2a00        .*      CMP      r2,#0
        0x080026d4:    d00b        ..      BEQ      0x80026ee ; uart_send_str + 30
        0x080026d6:    0080        ..      LSLS     r0,r0,#2
        0x080026d8:    4b05        .K      LDR      r3,[pc,#20] ; [0x80026f0] = 0x8007418
        0x080026da:    5818        .X      LDR      r0,[r3,r0]
        0x080026dc:    6fc3        .o      LDR      r3,[r0,#0x7c]
        0x080026de:    079b        ..      LSLS     r3,r3,#30
        0x080026e0:    d5fc        ..      BPL      0x80026dc ; uart_send_str + 12
        0x080026e2:    6002        .`      STR      r2,[r0,#0]
        0x080026e4:    1c4b        K.      ADDS     r3,r1,#1
        0x080026e6:    784a        Jx      LDRB     r2,[r1,#1]
        0x080026e8:    2a00        .*      CMP      r2,#0
        0x080026ea:    4619        .F      MOV      r1,r3
        0x080026ec:    d1f6        ..      BNE      0x80026dc ; uart_send_str + 12
        0x080026ee:    4770        pG      BX       lr
    $d.17
    __arm_cp.8_0
        0x080026f0:    08007418    .t..    DCD    134247448
    $t.18
    uart_recv_byte
        0x080026f4:    0080        ..      LSLS     r0,r0,#2
        0x080026f6:    4904        .I      LDR      r1,[pc,#16] ; [0x8002708] = 0x8007418
        0x080026f8:    5808        .X      LDR      r0,[r1,r0]
        0x080026fa:    6fc1        .o      LDR      r1,[r0,#0x7c]
        0x080026fc:    0709        ..      LSLS     r1,r1,#28
        0x080026fe:    d5fc        ..      BPL      0x80026fa ; uart_recv_byte + 6
        0x08002700:    6800        .h      LDR      r0,[r0,#0]
        0x08002702:    b2c0        ..      UXTB     r0,r0
        0x08002704:    4770        pG      BX       lr
        0x08002706:    46c0        .F      MOV      r8,r8
    $d.19
    __arm_cp.9_0
        0x08002708:    08007418    .t..    DCD    134247448
    $t.20
    uart_get_status
        0x0800270c:    2905        .)      CMP      r1,#5
        0x0800270e:    d80d        ..      BHI      0x800272c ; uart_get_status + 32
        0x08002710:    4479        yD      ADD      r1,r1,pc
        0x08002712:    7909        .y      LDRB     r1,[r1,#4]
        0x08002714:    0049        I.      LSLS     r1,r1,#1
        0x08002716:    448f        .D      ADD      pc,pc,r1
    $d.21
        0x08002718:    17100b02    ....    DCD    386927362
        0x0800271c:    261f        .&      DCW    9759
    $t.22
        0x0800271e:    0080        ..      LSLS     r0,r0,#2
        0x08002720:    4914        .I      LDR      r1,[pc,#80] ; [0x8002774] = 0x8007418
        0x08002722:    5808        .X      LDR      r0,[r1,r0]
        0x08002724:    6940        @i      LDR      r0,[r0,#0x14]
        0x08002726:    0640        @.      LSLS     r0,r0,#25
        0x08002728:    0fc0        ..      LSRS     r0,r0,#31
        0x0800272a:    4770        pG      BX       lr
        0x0800272c:    2000        .       MOVS     r0,#0
        0x0800272e:    4770        pG      BX       lr
        0x08002730:    0080        ..      LSLS     r0,r0,#2
        0x08002732:    4910        .I      LDR      r1,[pc,#64] ; [0x8002774] = 0x8007418
        0x08002734:    5808        .X      LDR      r0,[r1,r0]
        0x08002736:    6941        Ai      LDR      r1,[r0,#0x14]
        0x08002738:    e00b        ..      B        0x8002752 ; uart_get_status + 70
        0x0800273a:    0080        ..      LSLS     r0,r0,#2
        0x0800273c:    490d        .I      LDR      r1,[pc,#52] ; [0x8002774] = 0x8007418
        0x0800273e:    5808        .X      LDR      r0,[r1,r0]
        0x08002740:    6940        @i      LDR      r0,[r0,#0x14]
        0x08002742:    0780        ..      LSLS     r0,r0,#30
        0x08002744:    0fc0        ..      LSRS     r0,r0,#31
        0x08002746:    4770        pG      BX       lr
        0x08002748:    0080        ..      LSLS     r0,r0,#2
        0x0800274a:    490a        .I      LDR      r1,[pc,#40] ; [0x8002774] = 0x8007418
        0x0800274c:    5808        .X      LDR      r0,[r1,r0]
        0x0800274e:    6fc0        .o      LDR      r0,[r0,#0x7c]
        0x08002750:    0841        A.      LSRS     r1,r0,#1
        0x08002752:    2001        .       MOVS     r0,#1
        0x08002754:    4388        .C      BICS     r0,r0,r1
        0x08002756:    4770        pG      BX       lr
        0x08002758:    0080        ..      LSLS     r0,r0,#2
        0x0800275a:    4906        .I      LDR      r1,[pc,#24] ; [0x8002774] = 0x8007418
        0x0800275c:    5808        .X      LDR      r0,[r1,r0]
        0x0800275e:    6fc0        .o      LDR      r0,[r0,#0x7c]
        0x08002760:    06c0        ..      LSLS     r0,r0,#27
        0x08002762:    0fc0        ..      LSRS     r0,r0,#31
        0x08002764:    4770        pG      BX       lr
        0x08002766:    0080        ..      LSLS     r0,r0,#2
        0x08002768:    4902        .I      LDR      r1,[pc,#8] ; [0x8002774] = 0x8007418
        0x0800276a:    5808        .X      LDR      r0,[r1,r0]
        0x0800276c:    6fc1        .o      LDR      r1,[r0,#0x7c]
        0x0800276e:    2001        .       MOVS     r0,#1
        0x08002770:    4008        .@      ANDS     r0,r0,r1
        0x08002772:    4770        pG      BX       lr
    $d.23
    __arm_cp.10_0
        0x08002774:    08007418    .t..    DCD    134247448
    $t.24
    uart_set_hdl
        0x08002778:    2318        .#      MOVS     r3,#0x18
        0x0800277a:    4343        CC      MULS     r3,r0,r3
        0x0800277c:    4802        .H      LDR      r0,[pc,#8] ; [0x8002788] = 0x20001288
        0x0800277e:    18c0        ..      ADDS     r0,r0,r3
        0x08002780:    0089        ..      LSLS     r1,r1,#2
        0x08002782:    5042        BP      STR      r2,[r0,r1]
        0x08002784:    4770        pG      BX       lr
        0x08002786:    46c0        .F      MOV      r8,r8
    $d.25
    __arm_cp.11_0
        0x08002788:    20001288    ...     DCD    536875656
    $t.26
    uart_irq_enable
        0x0800278c:    2904        .)      CMP      r1,#4
        0x0800278e:    d809        ..      BHI      0x80027a4 ; uart_irq_enable + 24
        0x08002790:    b249        I.      SXTB     r1,r1
        0x08002792:    0089        ..      LSLS     r1,r1,#2
        0x08002794:    a204        ..      ADR      r2,{pc}+0x14 ; 0x80027a8
        0x08002796:    5851        QX      LDR      r1,[r2,r1]
        0x08002798:    0080        ..      LSLS     r0,r0,#2
        0x0800279a:    4a08        .J      LDR      r2,[pc,#32] ; [0x80027bc] = 0x8007418
        0x0800279c:    5810        .X      LDR      r0,[r2,r0]
        0x0800279e:    6842        Bh      LDR      r2,[r0,#4]
        0x080027a0:    430a        .C      ORRS     r2,r2,r1
        0x080027a2:    6042        B`      STR      r2,[r0,#4]
        0x080027a4:    4770        pG      BX       lr
        0x080027a6:    46c0        .F      MOV      r8,r8
    $d.27
        0x080027a8:    00000002    ....    DCD    2
        0x080027ac:    00000001    ....    DCD    1
        0x080027b0:    00000001    ....    DCD    1
        0x080027b4:    00000004    ....    DCD    4
        0x080027b8:    00000008    ....    DCD    8
    __arm_cp.12_1
        0x080027bc:    08007418    .t..    DCD    134247448
    $t.28
    uart_irq_disable
        0x080027c0:    2904        .)      CMP      r1,#4
        0x080027c2:    d809        ..      BHI      0x80027d8 ; uart_irq_disable + 24
        0x080027c4:    b249        I.      SXTB     r1,r1
        0x080027c6:    0089        ..      LSLS     r1,r1,#2
        0x080027c8:    a204        ..      ADR      r2,{pc}+0x14 ; 0x80027dc
        0x080027ca:    5851        QX      LDR      r1,[r2,r1]
        0x080027cc:    0080        ..      LSLS     r0,r0,#2
        0x080027ce:    4a08        .J      LDR      r2,[pc,#32] ; [0x80027f0] = 0x8007418
        0x080027d0:    5810        .X      LDR      r0,[r2,r0]
        0x080027d2:    6842        Bh      LDR      r2,[r0,#4]
        0x080027d4:    400a        .@      ANDS     r2,r2,r1
        0x080027d6:    6042        B`      STR      r2,[r0,#4]
        0x080027d8:    4770        pG      BX       lr
        0x080027da:    46c0        .F      MOV      r8,r8
    $d.29
        0x080027dc:    fffffffd    ....    DCD    4294967293
        0x080027e0:    fffffffe    ....    DCD    4294967294
        0x080027e4:    fffffffe    ....    DCD    4294967294
        0x080027e8:    fffffffb    ....    DCD    4294967291
        0x080027ec:    fffffff7    ....    DCD    4294967287
    __arm_cp.13_1
        0x080027f0:    08007418    .t..    DCD    134247448
    $t.30
    uart_isr
        0x080027f4:    b580        ..      PUSH     {r7,lr}
        0x080027f6:    0081        ..      LSLS     r1,r0,#2
        0x080027f8:    4a0b        .J      LDR      r2,[pc,#44] ; [0x8002828] = 0x8007418
        0x080027fa:    5851        QX      LDR      r1,[r2,r1]
        0x080027fc:    688a        .h      LDR      r2,[r1,#8]
        0x080027fe:    210f        .!      MOVS     r1,#0xf
        0x08002800:    4011        .@      ANDS     r1,r1,r2
        0x08002802:    290c        .)      CMP      r1,#0xc
        0x08002804:    d80f        ..      BHI      0x8002826 ; uart_isr + 50
        0x08002806:    4a09        .J      LDR      r2,[pc,#36] ; [0x800282c] = 0x10d5
        0x08002808:    40ca        .@      LSRS     r2,r2,r1
        0x0800280a:    07d2        ..      LSLS     r2,r2,#31
        0x0800280c:    d00b        ..      BEQ      0x8002826 ; uart_isr + 50
        0x0800280e:    2218        ."      MOVS     r2,#0x18
        0x08002810:    4342        BC      MULS     r2,r0,r2
        0x08002812:    4807        .H      LDR      r0,[pc,#28] ; [0x8002830] = 0x20001288
        0x08002814:    1880        ..      ADDS     r0,r0,r2
        0x08002816:    0089        ..      LSLS     r1,r1,#2
        0x08002818:    a206        ..      ADR      r2,{pc}+0x1c ; 0x8002834
        0x0800281a:    5851        QX      LDR      r1,[r2,r1]
        0x0800281c:    0089        ..      LSLS     r1,r1,#2
        0x0800281e:    5840        @X      LDR      r0,[r0,r1]
        0x08002820:    2800        .(      CMP      r0,#0
        0x08002822:    d000        ..      BEQ      0x8002826 ; uart_isr + 50
        0x08002824:    4780        .G      BLX      r0
        0x08002826:    bd80        ..      POP      {r7,pc}
    $d.31
    __arm_cp.14_0
        0x08002828:    08007418    .t..    DCD    134247448
    __arm_cp.14_1
        0x0800282c:    000010d5    ....    DCD    4309
    __arm_cp.14_2
        0x08002830:    20001288    ...     DCD    536875656
        0x08002834:    00000004    ....    DCD    4
        0x08002838:    00000004    ....    DCD    4
        0x0800283c:    00000000    ....    DCD    0
        0x08002840:    00000004    ....    DCD    4
        0x08002844:    00000001    ....    DCD    1
        0x08002848:    00000004    ....    DCD    4
        0x0800284c:    00000003    ....    DCD    3
        0x08002850:    00000005    ....    DCD    5
        0x08002854:    00000004    ....    DCD    4
        0x08002858:    00000004    ....    DCD    4
        0x0800285c:    00000004    ....    DCD    4
        0x08002860:    00000004    ....    DCD    4
        0x08002864:    00000002    ....    DCD    2
    $t.32
    uart_fifo_init
        0x08002868:    7809        .x      LDRB     r1,[r1,#0]
        0x0800286a:    2201        ."      MOVS     r2,#1
        0x0800286c:    400a        .@      ANDS     r2,r2,r1
        0x0800286e:    00c9        ..      LSLS     r1,r1,#3
        0x08002870:    2330        0#      MOVS     r3,#0x30
        0x08002872:    400b        .@      ANDS     r3,r3,r1
        0x08002874:    189a        ..      ADDS     r2,r3,r2
        0x08002876:    23c0        .#      MOVS     r3,#0xc0
        0x08002878:    400b        .@      ANDS     r3,r3,r1
        0x0800287a:    18d1        ..      ADDS     r1,r2,r3
        0x0800287c:    0080        ..      LSLS     r0,r0,#2
        0x0800287e:    4a02        .J      LDR      r2,[pc,#8] ; [0x8002888] = 0x8007418
        0x08002880:    5810        .X      LDR      r0,[r2,r0]
        0x08002882:    6081        .`      STR      r1,[r0,#8]
        0x08002884:    4770        pG      BX       lr
        0x08002886:    46c0        .F      MOV      r8,r8
    $d.33
    __arm_cp.15_0
        0x08002888:    08007418    .t..    DCD    134247448
    $t.34
    uart_tx_fifo_clr
        0x0800288c:    0080        ..      LSLS     r0,r0,#2
        0x0800288e:    4904        .I      LDR      r1,[pc,#16] ; [0x80028a0] = 0x8007418
        0x08002890:    5808        .X      LDR      r0,[r1,r0]
        0x08002892:    2188        .!      MOVS     r1,#0x88
        0x08002894:    5842        BX      LDR      r2,[r0,r1]
        0x08002896:    2304        .#      MOVS     r3,#4
        0x08002898:    4313        .C      ORRS     r3,r3,r2
        0x0800289a:    5043        CP      STR      r3,[r0,r1]
        0x0800289c:    4770        pG      BX       lr
        0x0800289e:    46c0        .F      MOV      r8,r8
    $d.35
    __arm_cp.16_0
        0x080028a0:    08007418    .t..    DCD    134247448
    $t.36
    uart_rx_fifo_clr
        0x080028a4:    0080        ..      LSLS     r0,r0,#2
        0x080028a6:    4904        .I      LDR      r1,[pc,#16] ; [0x80028b8] = 0x8007418
        0x080028a8:    5808        .X      LDR      r0,[r1,r0]
        0x080028aa:    2188        .!      MOVS     r1,#0x88
        0x080028ac:    5842        BX      LDR      r2,[r0,r1]
        0x080028ae:    2302        .#      MOVS     r3,#2
        0x080028b0:    4313        .C      ORRS     r3,r3,r2
        0x080028b2:    5043        CP      STR      r3,[r0,r1]
        0x080028b4:    4770        pG      BX       lr
        0x080028b6:    46c0        .F      MOV      r8,r8
    $d.37
    __arm_cp.17_0
        0x080028b8:    08007418    .t..    DCD    134247448
    $t.38
    uart_get_dr_addr
        0x080028bc:    0080        ..      LSLS     r0,r0,#2
        0x080028be:    4901        .I      LDR      r1,[pc,#4] ; [0x80028c4] = 0x8007418
        0x080028c0:    5808        .X      LDR      r0,[r1,r0]
        0x080028c2:    4770        pG      BX       lr
    $d.39
    __arm_cp.18_0
        0x080028c4:    08007418    .t..    DCD    134247448
    $t.0
    clock_init
        0x080028c8:    4801        .H      LDR      r0,[pc,#4] ; [0x80028d0] = 0x2000122c
        0x080028ca:    4902        .I      LDR      r1,[pc,#8] ; [0x80028d4] = 0x2625a00
        0x080028cc:    6001        .`      STR      r1,[r0,#0]
        0x080028ce:    4770        pG      BX       lr
    $d.1
    __arm_cp.0_0
        0x080028d0:    2000122c    ,..     DCD    536875564
    __arm_cp.0_1
        0x080028d4:    02625a00    .Zb.    DCD    40000000
    $t.2
    clock_xtal_type_get
        0x080028d8:    2000        .       MOVS     r0,#0
        0x080028da:    4770        pG      BX       lr
    pll_ana_clk_config
        0x080028dc:    4770        pG      BX       lr
        0x080028de:    46c0        .F      MOV      r8,r8
    set_pll_clk_divider
        0x080028e0:    b510        ..      PUSH     {r4,lr}
        0x080028e2:    2201        ."      MOVS     r2,#1
        0x080028e4:    0493        ..      LSLS     r3,r2,#18
        0x080028e6:    490e        .I      LDR      r1,[pc,#56] ; [0x8002920] = 0x40105008
        0x080028e8:    680c        .h      LDR      r4,[r1,#0]
        0x080028ea:    431c        .C      ORRS     r4,r4,r3
        0x080028ec:    600c        .`      STR      r4,[r1,#0]
        0x080028ee:    680b        .h      LDR      r3,[r1,#0]
        0x080028f0:    2800        .(      CMP      r0,#0
        0x080028f2:    db11        ..      BLT      0x8002918 ; set_pll_clk_divider + 56
        0x080028f4:    24ff        .$      MOVS     r4,#0xff
        0x080028f6:    0524        $.      LSLS     r4,r4,#20
        0x080028f8:    43a3        .C      BICS     r3,r3,r4
        0x080028fa:    b2c0        ..      UXTB     r0,r0
        0x080028fc:    0500        ..      LSLS     r0,r0,#20
        0x080028fe:    1818        ..      ADDS     r0,r3,r0
        0x08002900:    6008        .`      STR      r0,[r1,#0]
        0x08002902:    0450        P.      LSLS     r0,r2,#17
        0x08002904:    680b        .h      LDR      r3,[r1,#0]
        0x08002906:    4303        .C      ORRS     r3,r3,r0
        0x08002908:    600b        .`      STR      r3,[r1,#0]
        0x0800290a:    680b        .h      LDR      r3,[r1,#0]
        0x0800290c:    4383        .C      BICS     r3,r3,r0
        0x0800290e:    600b        .`      STR      r3,[r1,#0]
        0x08002910:    0410        ..      LSLS     r0,r2,#16
        0x08002912:    680b        .h      LDR      r3,[r1,#0]
        0x08002914:    4383        .C      BICS     r3,r3,r0
        0x08002916:    e001        ..      B        0x800291c ; set_pll_clk_divider + 60
        0x08002918:    0410        ..      LSLS     r0,r2,#16
        0x0800291a:    4303        .C      ORRS     r3,r3,r0
        0x0800291c:    600b        .`      STR      r3,[r1,#0]
        0x0800291e:    bd10        ..      POP      {r4,pc}
    $d.3
    __arm_cp.3_0
        0x08002920:    40105008    .P.@    DCD    1074810888
    $t.4
    disable_pll_clk
        0x08002924:    2001        .       MOVS     r0,#1
        0x08002926:    0480        ..      LSLS     r0,r0,#18
        0x08002928:    4902        .I      LDR      r1,[pc,#8] ; [0x8002934] = 0x40105008
        0x0800292a:    680a        .h      LDR      r2,[r1,#0]
        0x0800292c:    4382        .C      BICS     r2,r2,r0
        0x0800292e:    600a        .`      STR      r2,[r1,#0]
        0x08002930:    4770        pG      BX       lr
        0x08002932:    46c0        .F      MOV      r8,r8
    $d.5
    __arm_cp.4_0
        0x08002934:    40105008    .P.@    DCD    1074810888
    $t.6
    clk_mcu_src_set
        0x08002938:    490b        .I      LDR      r1,[pc,#44] ; [0x8002968] = 0x40105008
        0x0800293a:    2802        .(      CMP      r0,#2
        0x0800293c:    d006        ..      BEQ      0x800294c ; clk_mcu_src_set + 20
        0x0800293e:    2801        .(      CMP      r0,#1
        0x08002940:    d009        ..      BEQ      0x8002956 ; clk_mcu_src_set + 30
        0x08002942:    2800        .(      CMP      r0,#0
        0x08002944:    d10e        ..      BNE      0x8002964 ; clk_mcu_src_set + 44
        0x08002946:    6808        .h      LDR      r0,[r1,#0]
        0x08002948:    6008        .`      STR      r0,[r1,#0]
        0x0800294a:    e009        ..      B        0x8002960 ; clk_mcu_src_set + 40
        0x0800294c:    2001        .       MOVS     r0,#1
        0x0800294e:    0742        B.      LSLS     r2,r0,#29
        0x08002950:    6808        .h      LDR      r0,[r1,#0]
        0x08002952:    4310        .C      ORRS     r0,r0,r2
        0x08002954:    e005        ..      B        0x8002962 ; clk_mcu_src_set + 42
        0x08002956:    2001        .       MOVS     r0,#1
        0x08002958:    0700        ..      LSLS     r0,r0,#28
        0x0800295a:    680a        .h      LDR      r2,[r1,#0]
        0x0800295c:    4302        .C      ORRS     r2,r2,r0
        0x0800295e:    600a        .`      STR      r2,[r1,#0]
        0x08002960:    6808        .h      LDR      r0,[r1,#0]
        0x08002962:    6008        .`      STR      r0,[r1,#0]
        0x08002964:    4770        pG      BX       lr
        0x08002966:    46c0        .F      MOV      r8,r8
    $d.7
    __arm_cp.5_0
        0x08002968:    40105008    .P.@    DCD    1074810888
    $t.8
    set_sys_clk_divider
        0x0800296c:    b580        ..      PUSH     {r7,lr}
        0x0800296e:    4913        .I      LDR      r1,[pc,#76] ; [0x80029bc] = 0x4010500c
        0x08002970:    680a        .h      LDR      r2,[r1,#0]
        0x08002972:    2800        .(      CMP      r0,#0
        0x08002974:    db1a        ..      BLT      0x80029ac ; set_sys_clk_divider + 64
        0x08002976:    2304        .#      MOVS     r3,#4
        0x08002978:    431a        .C      ORRS     r2,r2,r3
        0x0800297a:    600a        .`      STR      r2,[r1,#0]
        0x0800297c:    22ff        ."      MOVS     r2,#0xff
        0x0800297e:    0112        ..      LSLS     r2,r2,#4
        0x08002980:    680b        .h      LDR      r3,[r1,#0]
        0x08002982:    4393        .C      BICS     r3,r3,r2
        0x08002984:    b2c0        ..      UXTB     r0,r0
        0x08002986:    0102        ..      LSLS     r2,r0,#4
        0x08002988:    189a        ..      ADDS     r2,r3,r2
        0x0800298a:    600a        .`      STR      r2,[r1,#0]
        0x0800298c:    680a        .h      LDR      r2,[r1,#0]
        0x0800298e:    2302        .#      MOVS     r3,#2
        0x08002990:    431a        .C      ORRS     r2,r2,r3
        0x08002992:    600a        .`      STR      r2,[r1,#0]
        0x08002994:    680a        .h      LDR      r2,[r1,#0]
        0x08002996:    439a        .C      BICS     r2,r2,r3
        0x08002998:    600a        .`      STR      r2,[r1,#0]
        0x0800299a:    680a        .h      LDR      r2,[r1,#0]
        0x0800299c:    2301        .#      MOVS     r3,#1
        0x0800299e:    439a        .C      BICS     r2,r2,r3
        0x080029a0:    600a        .`      STR      r2,[r1,#0]
        0x080029a2:    1c41        A.      ADDS     r1,r0,#1
        0x080029a4:    4807        .H      LDR      r0,[pc,#28] ; [0x80029c4] = 0x4c4b400
        0x080029a6:    f001f882    ....    BL       __aeabi_uidiv ; 0x8003aae
        0x080029aa:    e003        ..      B        0x80029b4 ; set_sys_clk_divider + 72
        0x080029ac:    2001        .       MOVS     r0,#1
        0x080029ae:    4302        .C      ORRS     r2,r2,r0
        0x080029b0:    600a        .`      STR      r2,[r1,#0]
        0x080029b2:    4803        .H      LDR      r0,[pc,#12] ; [0x80029c0] = 0x9896800
        0x080029b4:    4904        .I      LDR      r1,[pc,#16] ; [0x80029c8] = 0x2000122c
        0x080029b6:    6008        .`      STR      r0,[r1,#0]
        0x080029b8:    bd80        ..      POP      {r7,pc}
        0x080029ba:    46c0        .F      MOV      r8,r8
    $d.9
    __arm_cp.6_0
        0x080029bc:    4010500c    .P.@    DCD    1074810892
    __arm_cp.6_1
        0x080029c0:    09896800    .h..    DCD    160000000
    __arm_cp.6_2
        0x080029c4:    04c4b400    ....    DCD    80000000
    __arm_cp.6_3
        0x080029c8:    2000122c    ,..     DCD    536875564
    $t.10
    set_spi_flash_clk_divider
        0x080029cc:    b510        ..      PUSH     {r4,lr}
        0x080029ce:    4910        .I      LDR      r1,[pc,#64] ; [0x8002a10] = 0x4010500c
        0x080029d0:    680b        .h      LDR      r3,[r1,#0]
        0x080029d2:    2800        .(      CMP      r0,#0
        0x080029d4:    db16        ..      BLT      0x8002a04 ; set_spi_flash_clk_divider + 56
        0x080029d6:    2201        ."      MOVS     r2,#1
        0x080029d8:    0394        ..      LSLS     r4,r2,#14
        0x080029da:    4323        #C      ORRS     r3,r3,r4
        0x080029dc:    600b        .`      STR      r3,[r1,#0]
        0x080029de:    23ff        .#      MOVS     r3,#0xff
        0x080029e0:    041b        ..      LSLS     r3,r3,#16
        0x080029e2:    680c        .h      LDR      r4,[r1,#0]
        0x080029e4:    439c        .C      BICS     r4,r4,r3
        0x080029e6:    b2c0        ..      UXTB     r0,r0
        0x080029e8:    0400        ..      LSLS     r0,r0,#16
        0x080029ea:    1820         .      ADDS     r0,r4,r0
        0x080029ec:    6008        .`      STR      r0,[r1,#0]
        0x080029ee:    0350        P.      LSLS     r0,r2,#13
        0x080029f0:    680b        .h      LDR      r3,[r1,#0]
        0x080029f2:    4303        .C      ORRS     r3,r3,r0
        0x080029f4:    600b        .`      STR      r3,[r1,#0]
        0x080029f6:    680b        .h      LDR      r3,[r1,#0]
        0x080029f8:    4383        .C      BICS     r3,r3,r0
        0x080029fa:    600b        .`      STR      r3,[r1,#0]
        0x080029fc:    0310        ..      LSLS     r0,r2,#12
        0x080029fe:    680b        .h      LDR      r3,[r1,#0]
        0x08002a00:    4383        .C      BICS     r3,r3,r0
        0x08002a02:    e002        ..      B        0x8002a0a ; set_spi_flash_clk_divider + 62
        0x08002a04:    2001        .       MOVS     r0,#1
        0x08002a06:    0300        ..      LSLS     r0,r0,#12
        0x08002a08:    4303        .C      ORRS     r3,r3,r0
        0x08002a0a:    600b        .`      STR      r3,[r1,#0]
        0x08002a0c:    bd10        ..      POP      {r4,pc}
        0x08002a0e:    46c0        .F      MOV      r8,r8
    $d.11
    __arm_cp.7_0
        0x08002a10:    4010500c    .P.@    DCD    1074810892
    $t.12
    sys_clk_set_adc_clk
        0x08002a14:    4770        pG      BX       lr
        0x08002a16:    46c0        .F      MOV      r8,r8
    xtal_freq_get
        0x08002a18:    4800        .H      LDR      r0,[pc,#0] ; [0x8002a1c] = 0x2625a00
        0x08002a1a:    4770        pG      BX       lr
    $d.13
    __arm_cp.9_0
        0x08002a1c:    02625a00    .Zb.    DCD    40000000
    $t.14
    clk_mcu_set
        0x08002a20:    b570        p.      PUSH     {r4-r6,lr}
        0x08002a22:    2802        .(      CMP      r0,#2
        0x08002a24:    d029        ).      BEQ      0x8002a7a ; clk_mcu_set + 90
        0x08002a26:    2801        .(      CMP      r0,#1
        0x08002a28:    d010        ..      BEQ      0x8002a4c ; clk_mcu_set + 44
        0x08002a2a:    2800        .(      CMP      r0,#0
        0x08002a2c:    d17e        ~.      BNE      0x8002b2c ; clk_mcu_set + 268
        0x08002a2e:    2001        .       MOVS     r0,#1
        0x08002a30:    0701        ..      LSLS     r1,r0,#28
        0x08002a32:    4a3f        ?J      LDR      r2,[pc,#252] ; [0x8002b30] = 0x40105008
        0x08002a34:    6813        .h      LDR      r3,[r2,#0]
        0x08002a36:    438b        .C      BICS     r3,r3,r1
        0x08002a38:    6013        .`      STR      r3,[r2,#0]
        0x08002a3a:    0740        @.      LSLS     r0,r0,#29
        0x08002a3c:    6811        .h      LDR      r1,[r2,#0]
        0x08002a3e:    4381        .C      BICS     r1,r1,r0
        0x08002a40:    6011        .`      STR      r1,[r2,#0]
        0x08002a42:    207d        }       MOVS     r0,#0x7d
        0x08002a44:    0200        ..      LSLS     r0,r0,#8
        0x08002a46:    493e        >I      LDR      r1,[pc,#248] ; [0x8002b40] = 0x2000122c
        0x08002a48:    6008        .`      STR      r0,[r1,#0]
        0x08002a4a:    bd70        p.      POP      {r4-r6,pc}
        0x08002a4c:    4d38        8M      LDR      r5,[pc,#224] ; [0x8002b30] = 0x40105008
        0x08002a4e:    6828        (h      LDR      r0,[r5,#0]
        0x08002a50:    2204        ."      MOVS     r2,#4
        0x08002a52:    4302        .C      ORRS     r2,r2,r0
        0x08002a54:    602a        *`      STR      r2,[r5,#0]
        0x08002a56:    4c3b        ;L      LDR      r4,[pc,#236] ; [0x8002b44] = 0x1312d00
        0x08002a58:    4620         F      MOV      r0,r4
        0x08002a5a:    f001f828    ..(.    BL       __aeabi_uidiv ; 0x8003aae
        0x08002a5e:    4936        6I      LDR      r1,[pc,#216] ; [0x8002b38] = 0xffff
        0x08002a60:    0402        ..      LSLS     r2,r0,#16
        0x08002a62:    460a        .F      MOV      r2,r1
        0x08002a64:    d000        ..      BEQ      0x8002a68 ; clk_mcu_set + 72
        0x08002a66:    1842        B.      ADDS     r2,r0,r1
        0x08002a68:    b293        ..      UXTH     r3,r2
        0x08002a6a:    6828        (h      LDR      r0,[r5,#0]
        0x08002a6c:    428b        .B      CMP      r3,r1
        0x08002a6e:    d11c        ..      BNE      0x8002aaa ; clk_mcu_set + 138
        0x08002a70:    2101        .!      MOVS     r1,#1
        0x08002a72:    4308        .C      ORRS     r0,r0,r1
        0x08002a74:    6028        (`      STR      r0,[r5,#0]
        0x08002a76:    4835        5H      LDR      r0,[pc,#212] ; [0x8002b4c] = 0x2625a00
        0x08002a78:    e030        0.      B        0x8002adc ; clk_mcu_set + 188
        0x08002a7a:    2601        .&      MOVS     r6,#1
        0x08002a7c:    04b0        ..      LSLS     r0,r6,#18
        0x08002a7e:    4d2c        ,M      LDR      r5,[pc,#176] ; [0x8002b30] = 0x40105008
        0x08002a80:    682a        *h      LDR      r2,[r5,#0]
        0x08002a82:    4302        .C      ORRS     r2,r2,r0
        0x08002a84:    602a        *`      STR      r2,[r5,#0]
        0x08002a86:    4c2b        +L      LDR      r4,[pc,#172] ; [0x8002b34] = 0x9896800
        0x08002a88:    4620         F      MOV      r0,r4
        0x08002a8a:    f001f810    ....    BL       __aeabi_uidiv ; 0x8003aae
        0x08002a8e:    492a        *I      LDR      r1,[pc,#168] ; [0x8002b38] = 0xffff
        0x08002a90:    0402        ..      LSLS     r2,r0,#16
        0x08002a92:    460a        .F      MOV      r2,r1
        0x08002a94:    d000        ..      BEQ      0x8002a98 ; clk_mcu_set + 120
        0x08002a96:    1842        B.      ADDS     r2,r0,r1
        0x08002a98:    b293        ..      UXTH     r3,r2
        0x08002a9a:    6828        (h      LDR      r0,[r5,#0]
        0x08002a9c:    428b        .B      CMP      r3,r1
        0x08002a9e:    d128        (.      BNE      0x8002af2 ; clk_mcu_set + 210
        0x08002aa0:    1c49        I.      ADDS     r1,r1,#1
        0x08002aa2:    4308        .C      ORRS     r0,r0,r1
        0x08002aa4:    6028        (`      STR      r0,[r5,#0]
        0x08002aa6:    4825        %H      LDR      r0,[pc,#148] ; [0x8002b3c] = 0x1312d000
        0x08002aa8:    e03a        :.      B        0x8002b20 ; clk_mcu_set + 256
        0x08002aaa:    4b27        'K      LDR      r3,[pc,#156] ; [0x8002b48] = 0xfffeffff
        0x08002aac:    3310        .3      ADDS     r3,r3,#0x10
        0x08002aae:    4018        .@      ANDS     r0,r0,r3
        0x08002ab0:    460b        .F      MOV      r3,r1
        0x08002ab2:    3b0f        .;      SUBS     r3,r3,#0xf
        0x08002ab4:    0116        ..      LSLS     r6,r2,#4
        0x08002ab6:    401e        .@      ANDS     r6,r6,r3
        0x08002ab8:    4306        .C      ORRS     r6,r6,r0
        0x08002aba:    602e        .`      STR      r6,[r5,#0]
        0x08002abc:    6828        (h      LDR      r0,[r5,#0]
        0x08002abe:    2302        .#      MOVS     r3,#2
        0x08002ac0:    4318        .C      ORRS     r0,r0,r3
        0x08002ac2:    6028        (`      STR      r0,[r5,#0]
        0x08002ac4:    6828        (h      LDR      r0,[r5,#0]
        0x08002ac6:    4398        .C      BICS     r0,r0,r3
        0x08002ac8:    6028        (`      STR      r0,[r5,#0]
        0x08002aca:    6828        (h      LDR      r0,[r5,#0]
        0x08002acc:    2301        .#      MOVS     r3,#1
        0x08002ace:    4398        .C      BICS     r0,r0,r3
        0x08002ad0:    6028        (`      STR      r0,[r5,#0]
        0x08002ad2:    400a        .@      ANDS     r2,r2,r1
        0x08002ad4:    1c51        Q.      ADDS     r1,r2,#1
        0x08002ad6:    4620         F      MOV      r0,r4
        0x08002ad8:    f000ffe9    ....    BL       __aeabi_uidiv ; 0x8003aae
        0x08002adc:    4918        .I      LDR      r1,[pc,#96] ; [0x8002b40] = 0x2000122c
        0x08002ade:    6008        .`      STR      r0,[r1,#0]
        0x08002ae0:    2001        .       MOVS     r0,#1
        0x08002ae2:    0701        ..      LSLS     r1,r0,#28
        0x08002ae4:    682a        *h      LDR      r2,[r5,#0]
        0x08002ae6:    430a        .C      ORRS     r2,r2,r1
        0x08002ae8:    602a        *`      STR      r2,[r5,#0]
        0x08002aea:    0740        @.      LSLS     r0,r0,#29
        0x08002aec:    6829        )h      LDR      r1,[r5,#0]
        0x08002aee:    4381        .C      BICS     r1,r1,r0
        0x08002af0:    e01b        ..      B        0x8002b2a ; clk_mcu_set + 266
        0x08002af2:    23ff        .#      MOVS     r3,#0xff
        0x08002af4:    051b        ..      LSLS     r3,r3,#20
        0x08002af6:    4398        .C      BICS     r0,r0,r3
        0x08002af8:    0613        ..      LSLS     r3,r2,#24
        0x08002afa:    091b        ..      LSRS     r3,r3,#4
        0x08002afc:    1818        ..      ADDS     r0,r3,r0
        0x08002afe:    6028        (`      STR      r0,[r5,#0]
        0x08002b00:    0470        p.      LSLS     r0,r6,#17
        0x08002b02:    682b        +h      LDR      r3,[r5,#0]
        0x08002b04:    4303        .C      ORRS     r3,r3,r0
        0x08002b06:    602b        +`      STR      r3,[r5,#0]
        0x08002b08:    682b        +h      LDR      r3,[r5,#0]
        0x08002b0a:    4383        .C      BICS     r3,r3,r0
        0x08002b0c:    602b        +`      STR      r3,[r5,#0]
        0x08002b0e:    0430        0.      LSLS     r0,r6,#16
        0x08002b10:    682b        +h      LDR      r3,[r5,#0]
        0x08002b12:    4383        .C      BICS     r3,r3,r0
        0x08002b14:    602b        +`      STR      r3,[r5,#0]
        0x08002b16:    4011        .@      ANDS     r1,r1,r2
        0x08002b18:    1c49        I.      ADDS     r1,r1,#1
        0x08002b1a:    4620         F      MOV      r0,r4
        0x08002b1c:    f000ffc7    ....    BL       __aeabi_uidiv ; 0x8003aae
        0x08002b20:    4907        .I      LDR      r1,[pc,#28] ; [0x8002b40] = 0x2000122c
        0x08002b22:    6008        .`      STR      r0,[r1,#0]
        0x08002b24:    0770        p.      LSLS     r0,r6,#29
        0x08002b26:    6829        )h      LDR      r1,[r5,#0]
        0x08002b28:    4301        .C      ORRS     r1,r1,r0
        0x08002b2a:    6029        )`      STR      r1,[r5,#0]
        0x08002b2c:    bd70        p.      POP      {r4-r6,pc}
        0x08002b2e:    46c0        .F      MOV      r8,r8
    $d.15
    __arm_cp.10_0
        0x08002b30:    40105008    .P.@    DCD    1074810888
    __arm_cp.10_1
        0x08002b34:    09896800    .h..    DCD    160000000
    __arm_cp.10_2
        0x08002b38:    0000ffff    ....    DCD    65535
    __arm_cp.10_3
        0x08002b3c:    1312d000    ....    DCD    320000000
    __arm_cp.10_4
        0x08002b40:    2000122c    ,..     DCD    536875564
    __arm_cp.10_5
        0x08002b44:    01312d00    .-1.    DCD    20000000
    __arm_cp.10_6
        0x08002b48:    fffeffff    ....    DCD    4294901759
    __arm_cp.10_7
        0x08002b4c:    02625a00    .Zb.    DCD    40000000
    $t.16
    clk_mcu_get
        0x08002b50:    4801        .H      LDR      r0,[pc,#4] ; [0x8002b58] = 0x2000122c
        0x08002b52:    6800        .h      LDR      r0,[r0,#0]
        0x08002b54:    4770        pG      BX       lr
        0x08002b56:    46c0        .F      MOV      r8,r8
    $d.17
    __arm_cp.11_0
        0x08002b58:    2000122c    ,..     DCD    536875564
    $t.18
    sys_clk_adc_sdm_inv_set
        0x08002b5c:    b510        ..      PUSH     {r4,lr}
        0x08002b5e:    4a06        .J      LDR      r2,[pc,#24] ; [0x8002b78] = 0x40105004
        0x08002b60:    6813        .h      LDR      r3,[r2,#0]
        0x08002b62:    240c        .$      MOVS     r4,#0xc
        0x08002b64:    43a3        .C      BICS     r3,r3,r4
        0x08002b66:    07c0        ..      LSLS     r0,r0,#31
        0x08002b68:    0f40        @.      LSRS     r0,r0,#29
        0x08002b6a:    07c9        ..      LSLS     r1,r1,#31
        0x08002b6c:    0f09        ..      LSRS     r1,r1,#28
        0x08002b6e:    1808        ..      ADDS     r0,r1,r0
        0x08002b70:    1818        ..      ADDS     r0,r3,r0
        0x08002b72:    6010        .`      STR      r0,[r2,#0]
        0x08002b74:    bd10        ..      POP      {r4,pc}
        0x08002b76:    46c0        .F      MOV      r8,r8
    $d.19
    __arm_cp.12_0
        0x08002b78:    40105004    .P.@    DCD    1074810884
    $t.20
    sys_clk_enable_radar
        0x08002b7c:    2001        .       MOVS     r0,#1
        0x08002b7e:    0200        ..      LSLS     r0,r0,#8
        0x08002b80:    4903        .I      LDR      r1,[pc,#12] ; [0x8002b90] = 0x40105018
        0x08002b82:    680a        .h      LDR      r2,[r1,#0]
        0x08002b84:    4302        .C      ORRS     r2,r2,r0
        0x08002b86:    600a        .`      STR      r2,[r1,#0]
        0x08002b88:    688a        .h      LDR      r2,[r1,#8]
        0x08002b8a:    4302        .C      ORRS     r2,r2,r0
        0x08002b8c:    608a        .`      STR      r2,[r1,#8]
        0x08002b8e:    4770        pG      BX       lr
    $d.21
    __arm_cp.13_0
        0x08002b90:    40105018    .P.@    DCD    1074810904
    $t.22
    sys_clk_disable_radar
        0x08002b94:    4804        .H      LDR      r0,[pc,#16] ; [0x8002ba8] = 0x40105018
        0x08002b96:    6801        .h      LDR      r1,[r0,#0]
        0x08002b98:    4a04        .J      LDR      r2,[pc,#16] ; [0x8002bac] = 0xfffffeff
        0x08002b9a:    4011        .@      ANDS     r1,r1,r2
        0x08002b9c:    6001        .`      STR      r1,[r0,#0]
        0x08002b9e:    6881        .h      LDR      r1,[r0,#8]
        0x08002ba0:    4011        .@      ANDS     r1,r1,r2
        0x08002ba2:    6081        .`      STR      r1,[r0,#8]
        0x08002ba4:    4770        pG      BX       lr
        0x08002ba6:    46c0        .F      MOV      r8,r8
    $d.23
    __arm_cp.14_0
        0x08002ba8:    40105018    .P.@    DCD    1074810904
    __arm_cp.14_1
        0x08002bac:    fffffeff    ....    DCD    4294967039
    $t.24
    sys_clk_enable_dualtimer
        0x08002bb0:    4804        .H      LDR      r0,[pc,#16] ; [0x8002bc4] = 0x4010501c
        0x08002bb2:    6801        .h      LDR      r1,[r0,#0]
        0x08002bb4:    2220         "      MOVS     r2,#0x20
        0x08002bb6:    4311        .C      ORRS     r1,r1,r2
        0x08002bb8:    6001        .`      STR      r1,[r0,#0]
        0x08002bba:    6881        .h      LDR      r1,[r0,#8]
        0x08002bbc:    4311        .C      ORRS     r1,r1,r2
        0x08002bbe:    6081        .`      STR      r1,[r0,#8]
        0x08002bc0:    4770        pG      BX       lr
        0x08002bc2:    46c0        .F      MOV      r8,r8
    $d.25
    __arm_cp.15_0
        0x08002bc4:    4010501c    .P.@    DCD    1074810908
    $t.26
    sys_clk_disable_dualtimer
        0x08002bc8:    2020                MOVS     r0,#0x20
        0x08002bca:    43c0        .C      MVNS     r0,r0
        0x08002bcc:    4903        .I      LDR      r1,[pc,#12] ; [0x8002bdc] = 0x4010501c
        0x08002bce:    680a        .h      LDR      r2,[r1,#0]
        0x08002bd0:    4002        .@      ANDS     r2,r2,r0
        0x08002bd2:    600a        .`      STR      r2,[r1,#0]
        0x08002bd4:    688a        .h      LDR      r2,[r1,#8]
        0x08002bd6:    4002        .@      ANDS     r2,r2,r0
        0x08002bd8:    608a        .`      STR      r2,[r1,#8]
        0x08002bda:    4770        pG      BX       lr
    $d.27
    __arm_cp.16_0
        0x08002bdc:    4010501c    .P.@    DCD    1074810908
    $t.28
    sys_clk_enable_gpio
        0x08002be0:    2001        .       MOVS     r0,#1
        0x08002be2:    0340        @.      LSLS     r0,r0,#13
        0x08002be4:    4903        .I      LDR      r1,[pc,#12] ; [0x8002bf4] = 0x40105018
        0x08002be6:    680a        .h      LDR      r2,[r1,#0]
        0x08002be8:    4302        .C      ORRS     r2,r2,r0
        0x08002bea:    600a        .`      STR      r2,[r1,#0]
        0x08002bec:    688a        .h      LDR      r2,[r1,#8]
        0x08002bee:    4302        .C      ORRS     r2,r2,r0
        0x08002bf0:    608a        .`      STR      r2,[r1,#8]
        0x08002bf2:    4770        pG      BX       lr
    $d.29
    __arm_cp.17_0
        0x08002bf4:    40105018    .P.@    DCD    1074810904
    $t.30
    sys_clk_disable_gpio
        0x08002bf8:    4804        .H      LDR      r0,[pc,#16] ; [0x8002c0c] = 0x40105018
        0x08002bfa:    6801        .h      LDR      r1,[r0,#0]
        0x08002bfc:    4a04        .J      LDR      r2,[pc,#16] ; [0x8002c10] = 0xffffdfff
        0x08002bfe:    4011        .@      ANDS     r1,r1,r2
        0x08002c00:    6001        .`      STR      r1,[r0,#0]
        0x08002c02:    6881        .h      LDR      r1,[r0,#8]
        0x08002c04:    4011        .@      ANDS     r1,r1,r2
        0x08002c06:    6081        .`      STR      r1,[r0,#8]
        0x08002c08:    4770        pG      BX       lr
        0x08002c0a:    46c0        .F      MOV      r8,r8
    $d.31
    __arm_cp.18_0
        0x08002c0c:    40105018    .P.@    DCD    1074810904
    __arm_cp.18_1
        0x08002c10:    ffffdfff    ....    DCD    4294959103
    $t.32
    sys_clk_enable_spi0
        0x08002c14:    2001        .       MOVS     r0,#1
        0x08002c16:    0240        @.      LSLS     r0,r0,#9
        0x08002c18:    4903        .I      LDR      r1,[pc,#12] ; [0x8002c28] = 0x40105018
        0x08002c1a:    680a        .h      LDR      r2,[r1,#0]
        0x08002c1c:    4302        .C      ORRS     r2,r2,r0
        0x08002c1e:    600a        .`      STR      r2,[r1,#0]
        0x08002c20:    688a        .h      LDR      r2,[r1,#8]
        0x08002c22:    4302        .C      ORRS     r2,r2,r0
        0x08002c24:    608a        .`      STR      r2,[r1,#8]
        0x08002c26:    4770        pG      BX       lr
    $d.33
    __arm_cp.19_0
        0x08002c28:    40105018    .P.@    DCD    1074810904
    $t.34
    sys_clk_enable_spi1
        0x08002c2c:    2001        .       MOVS     r0,#1
        0x08002c2e:    0280        ..      LSLS     r0,r0,#10
        0x08002c30:    4903        .I      LDR      r1,[pc,#12] ; [0x8002c40] = 0x40105018
        0x08002c32:    680a        .h      LDR      r2,[r1,#0]
        0x08002c34:    4302        .C      ORRS     r2,r2,r0
        0x08002c36:    600a        .`      STR      r2,[r1,#0]
        0x08002c38:    688a        .h      LDR      r2,[r1,#8]
        0x08002c3a:    4302        .C      ORRS     r2,r2,r0
        0x08002c3c:    608a        .`      STR      r2,[r1,#8]
        0x08002c3e:    4770        pG      BX       lr
    $d.35
    __arm_cp.20_0
        0x08002c40:    40105018    .P.@    DCD    1074810904
    $t.36
    sys_clk_disable_spi0
        0x08002c44:    4804        .H      LDR      r0,[pc,#16] ; [0x8002c58] = 0x40105018
        0x08002c46:    6801        .h      LDR      r1,[r0,#0]
        0x08002c48:    4a04        .J      LDR      r2,[pc,#16] ; [0x8002c5c] = 0xfffffdff
        0x08002c4a:    4011        .@      ANDS     r1,r1,r2
        0x08002c4c:    6001        .`      STR      r1,[r0,#0]
        0x08002c4e:    6881        .h      LDR      r1,[r0,#8]
        0x08002c50:    4011        .@      ANDS     r1,r1,r2
        0x08002c52:    6081        .`      STR      r1,[r0,#8]
        0x08002c54:    4770        pG      BX       lr
        0x08002c56:    46c0        .F      MOV      r8,r8
    $d.37
    __arm_cp.21_0
        0x08002c58:    40105018    .P.@    DCD    1074810904
    __arm_cp.21_1
        0x08002c5c:    fffffdff    ....    DCD    4294966783
    $t.38
    sys_clk_disable_spi1
        0x08002c60:    4804        .H      LDR      r0,[pc,#16] ; [0x8002c74] = 0x40105018
        0x08002c62:    6801        .h      LDR      r1,[r0,#0]
        0x08002c64:    4a04        .J      LDR      r2,[pc,#16] ; [0x8002c78] = 0xfffffbff
        0x08002c66:    4011        .@      ANDS     r1,r1,r2
        0x08002c68:    6001        .`      STR      r1,[r0,#0]
        0x08002c6a:    6881        .h      LDR      r1,[r0,#8]
        0x08002c6c:    4011        .@      ANDS     r1,r1,r2
        0x08002c6e:    6081        .`      STR      r1,[r0,#8]
        0x08002c70:    4770        pG      BX       lr
        0x08002c72:    46c0        .F      MOV      r8,r8
    $d.39
    __arm_cp.22_0
        0x08002c74:    40105018    .P.@    DCD    1074810904
    __arm_cp.22_1
        0x08002c78:    fffffbff    ....    DCD    4294966271
    $t.40
    sys_clk_enable_dma
        0x08002c7c:    4804        .H      LDR      r0,[pc,#16] ; [0x8002c90] = 0x40105018
        0x08002c7e:    6801        .h      LDR      r1,[r0,#0]
        0x08002c80:    2201        ."      MOVS     r2,#1
        0x08002c82:    4311        .C      ORRS     r1,r1,r2
        0x08002c84:    6001        .`      STR      r1,[r0,#0]
        0x08002c86:    6881        .h      LDR      r1,[r0,#8]
        0x08002c88:    4311        .C      ORRS     r1,r1,r2
        0x08002c8a:    6081        .`      STR      r1,[r0,#8]
        0x08002c8c:    4770        pG      BX       lr
        0x08002c8e:    46c0        .F      MOV      r8,r8
    $d.41
    __arm_cp.23_0
        0x08002c90:    40105018    .P.@    DCD    1074810904
    $t.42
    sys_clk_disable_dma
        0x08002c94:    2001        .       MOVS     r0,#1
        0x08002c96:    43c0        .C      MVNS     r0,r0
        0x08002c98:    4903        .I      LDR      r1,[pc,#12] ; [0x8002ca8] = 0x40105018
        0x08002c9a:    680a        .h      LDR      r2,[r1,#0]
        0x08002c9c:    4002        .@      ANDS     r2,r2,r0
        0x08002c9e:    600a        .`      STR      r2,[r1,#0]
        0x08002ca0:    688a        .h      LDR      r2,[r1,#8]
        0x08002ca2:    4002        .@      ANDS     r2,r2,r0
        0x08002ca4:    608a        .`      STR      r2,[r1,#8]
        0x08002ca6:    4770        pG      BX       lr
    $d.43
    __arm_cp.24_0
        0x08002ca8:    40105018    .P.@    DCD    1074810904
    $t.44
    sys_clk_enable_pwm
        0x08002cac:    2001        .       MOVS     r0,#1
        0x08002cae:    0280        ..      LSLS     r0,r0,#10
        0x08002cb0:    4903        .I      LDR      r1,[pc,#12] ; [0x8002cc0] = 0x4010501c
        0x08002cb2:    680a        .h      LDR      r2,[r1,#0]
        0x08002cb4:    4302        .C      ORRS     r2,r2,r0
        0x08002cb6:    600a        .`      STR      r2,[r1,#0]
        0x08002cb8:    688a        .h      LDR      r2,[r1,#8]
        0x08002cba:    4302        .C      ORRS     r2,r2,r0
        0x08002cbc:    608a        .`      STR      r2,[r1,#8]
        0x08002cbe:    4770        pG      BX       lr
    $d.45
    __arm_cp.25_0
        0x08002cc0:    4010501c    .P.@    DCD    1074810908
    $t.46
    sys_clk_disable_pwm
        0x08002cc4:    4804        .H      LDR      r0,[pc,#16] ; [0x8002cd8] = 0x4010501c
        0x08002cc6:    6801        .h      LDR      r1,[r0,#0]
        0x08002cc8:    4a04        .J      LDR      r2,[pc,#16] ; [0x8002cdc] = 0xfffffbff
        0x08002cca:    4011        .@      ANDS     r1,r1,r2
        0x08002ccc:    6001        .`      STR      r1,[r0,#0]
        0x08002cce:    6881        .h      LDR      r1,[r0,#8]
        0x08002cd0:    4011        .@      ANDS     r1,r1,r2
        0x08002cd2:    6081        .`      STR      r1,[r0,#8]
        0x08002cd4:    4770        pG      BX       lr
        0x08002cd6:    46c0        .F      MOV      r8,r8
    $d.47
    __arm_cp.26_0
        0x08002cd8:    4010501c    .P.@    DCD    1074810908
    __arm_cp.26_1
        0x08002cdc:    fffffbff    ....    DCD    4294966271
    $t.48
    sys_clk_enable_i2c
        0x08002ce0:    2001        .       MOVS     r0,#1
        0x08002ce2:    0240        @.      LSLS     r0,r0,#9
        0x08002ce4:    4903        .I      LDR      r1,[pc,#12] ; [0x8002cf4] = 0x4010501c
        0x08002ce6:    680a        .h      LDR      r2,[r1,#0]
        0x08002ce8:    4302        .C      ORRS     r2,r2,r0
        0x08002cea:    600a        .`      STR      r2,[r1,#0]
        0x08002cec:    688a        .h      LDR      r2,[r1,#8]
        0x08002cee:    4302        .C      ORRS     r2,r2,r0
        0x08002cf0:    608a        .`      STR      r2,[r1,#8]
        0x08002cf2:    4770        pG      BX       lr
    $d.49
    __arm_cp.27_0
        0x08002cf4:    4010501c    .P.@    DCD    1074810908
    $t.50
    sys_clk_disable_i2c
        0x08002cf8:    4804        .H      LDR      r0,[pc,#16] ; [0x8002d0c] = 0x4010501c
        0x08002cfa:    6801        .h      LDR      r1,[r0,#0]
        0x08002cfc:    4a04        .J      LDR      r2,[pc,#16] ; [0x8002d10] = 0xfffffdff
        0x08002cfe:    4011        .@      ANDS     r1,r1,r2
        0x08002d00:    6001        .`      STR      r1,[r0,#0]
        0x08002d02:    6881        .h      LDR      r1,[r0,#8]
        0x08002d04:    4011        .@      ANDS     r1,r1,r2
        0x08002d06:    6081        .`      STR      r1,[r0,#8]
        0x08002d08:    4770        pG      BX       lr
        0x08002d0a:    46c0        .F      MOV      r8,r8
    $d.51
    __arm_cp.28_0
        0x08002d0c:    4010501c    .P.@    DCD    1074810908
    __arm_cp.28_1
        0x08002d10:    fffffdff    ....    DCD    4294966783
    $t.52
    sys_clk_enable_uart0
        0x08002d14:    4804        .H      LDR      r0,[pc,#16] ; [0x8002d28] = 0x4010501c
        0x08002d16:    6801        .h      LDR      r1,[r0,#0]
        0x08002d18:    2240        @"      MOVS     r2,#0x40
        0x08002d1a:    4311        .C      ORRS     r1,r1,r2
        0x08002d1c:    6001        .`      STR      r1,[r0,#0]
        0x08002d1e:    6881        .h      LDR      r1,[r0,#8]
        0x08002d20:    4311        .C      ORRS     r1,r1,r2
        0x08002d22:    6081        .`      STR      r1,[r0,#8]
        0x08002d24:    4770        pG      BX       lr
        0x08002d26:    46c0        .F      MOV      r8,r8
    $d.53
    __arm_cp.29_0
        0x08002d28:    4010501c    .P.@    DCD    1074810908
    $t.54
    sys_clk_disable_uart0
        0x08002d2c:    2040        @       MOVS     r0,#0x40
        0x08002d2e:    43c0        .C      MVNS     r0,r0
        0x08002d30:    4903        .I      LDR      r1,[pc,#12] ; [0x8002d40] = 0x4010501c
        0x08002d32:    680a        .h      LDR      r2,[r1,#0]
        0x08002d34:    4002        .@      ANDS     r2,r2,r0
        0x08002d36:    600a        .`      STR      r2,[r1,#0]
        0x08002d38:    688a        .h      LDR      r2,[r1,#8]
        0x08002d3a:    4002        .@      ANDS     r2,r2,r0
        0x08002d3c:    608a        .`      STR      r2,[r1,#8]
        0x08002d3e:    4770        pG      BX       lr
    $d.55
    __arm_cp.30_0
        0x08002d40:    4010501c    .P.@    DCD    1074810908
    $t.56
    sys_clk_enable_uart1
        0x08002d44:    4804        .H      LDR      r0,[pc,#16] ; [0x8002d58] = 0x4010501c
        0x08002d46:    6801        .h      LDR      r1,[r0,#0]
        0x08002d48:    2280        ."      MOVS     r2,#0x80
        0x08002d4a:    4311        .C      ORRS     r1,r1,r2
        0x08002d4c:    6001        .`      STR      r1,[r0,#0]
        0x08002d4e:    6881        .h      LDR      r1,[r0,#8]
        0x08002d50:    4311        .C      ORRS     r1,r1,r2
        0x08002d52:    6081        .`      STR      r1,[r0,#8]
        0x08002d54:    4770        pG      BX       lr
        0x08002d56:    46c0        .F      MOV      r8,r8
    $d.57
    __arm_cp.31_0
        0x08002d58:    4010501c    .P.@    DCD    1074810908
    $t.58
    sys_clk_disable_uart1
        0x08002d5c:    2080        .       MOVS     r0,#0x80
        0x08002d5e:    43c0        .C      MVNS     r0,r0
        0x08002d60:    4903        .I      LDR      r1,[pc,#12] ; [0x8002d70] = 0x4010501c
        0x08002d62:    680a        .h      LDR      r2,[r1,#0]
        0x08002d64:    4002        .@      ANDS     r2,r2,r0
        0x08002d66:    600a        .`      STR      r2,[r1,#0]
        0x08002d68:    688a        .h      LDR      r2,[r1,#8]
        0x08002d6a:    4002        .@      ANDS     r2,r2,r0
        0x08002d6c:    608a        .`      STR      r2,[r1,#8]
        0x08002d6e:    4770        pG      BX       lr
    $d.59
    __arm_cp.32_0
        0x08002d70:    4010501c    .P.@    DCD    1074810908
    $t.60
    sys_clk_enable_uart2
        0x08002d74:    2001        .       MOVS     r0,#1
        0x08002d76:    0200        ..      LSLS     r0,r0,#8
        0x08002d78:    4903        .I      LDR      r1,[pc,#12] ; [0x8002d88] = 0x4010501c
        0x08002d7a:    680a        .h      LDR      r2,[r1,#0]
        0x08002d7c:    4302        .C      ORRS     r2,r2,r0
        0x08002d7e:    600a        .`      STR      r2,[r1,#0]
        0x08002d80:    688a        .h      LDR      r2,[r1,#8]
        0x08002d82:    4302        .C      ORRS     r2,r2,r0
        0x08002d84:    608a        .`      STR      r2,[r1,#8]
        0x08002d86:    4770        pG      BX       lr
    $d.61
    __arm_cp.33_0
        0x08002d88:    4010501c    .P.@    DCD    1074810908
    $t.62
    sys_clk_disable_uart2
        0x08002d8c:    4804        .H      LDR      r0,[pc,#16] ; [0x8002da0] = 0x4010501c
        0x08002d8e:    6801        .h      LDR      r1,[r0,#0]
        0x08002d90:    4a04        .J      LDR      r2,[pc,#16] ; [0x8002da4] = 0xfffffeff
        0x08002d92:    4011        .@      ANDS     r1,r1,r2
        0x08002d94:    6001        .`      STR      r1,[r0,#0]
        0x08002d96:    6881        .h      LDR      r1,[r0,#8]
        0x08002d98:    4011        .@      ANDS     r1,r1,r2
        0x08002d9a:    6081        .`      STR      r1,[r0,#8]
        0x08002d9c:    4770        pG      BX       lr
        0x08002d9e:    46c0        .F      MOV      r8,r8
    $d.63
    __arm_cp.34_0
        0x08002da0:    4010501c    .P.@    DCD    1074810908
    __arm_cp.34_1
        0x08002da4:    fffffeff    ....    DCD    4294967039
    $t.64
    sys_clk_enable_timer0
        0x08002da8:    4804        .H      LDR      r0,[pc,#16] ; [0x8002dbc] = 0x4010501c
        0x08002daa:    6801        .h      LDR      r1,[r0,#0]
        0x08002dac:    2202        ."      MOVS     r2,#2
        0x08002dae:    4311        .C      ORRS     r1,r1,r2
        0x08002db0:    6001        .`      STR      r1,[r0,#0]
        0x08002db2:    6881        .h      LDR      r1,[r0,#8]
        0x08002db4:    4311        .C      ORRS     r1,r1,r2
        0x08002db6:    6081        .`      STR      r1,[r0,#8]
        0x08002db8:    4770        pG      BX       lr
        0x08002dba:    46c0        .F      MOV      r8,r8
    $d.65
    __arm_cp.35_0
        0x08002dbc:    4010501c    .P.@    DCD    1074810908
    $t.66
    sys_clk_enable_timer1
        0x08002dc0:    4804        .H      LDR      r0,[pc,#16] ; [0x8002dd4] = 0x4010501c
        0x08002dc2:    6801        .h      LDR      r1,[r0,#0]
        0x08002dc4:    2204        ."      MOVS     r2,#4
        0x08002dc6:    4311        .C      ORRS     r1,r1,r2
        0x08002dc8:    6001        .`      STR      r1,[r0,#0]
        0x08002dca:    6881        .h      LDR      r1,[r0,#8]
        0x08002dcc:    4311        .C      ORRS     r1,r1,r2
        0x08002dce:    6081        .`      STR      r1,[r0,#8]
        0x08002dd0:    4770        pG      BX       lr
        0x08002dd2:    46c0        .F      MOV      r8,r8
    $d.67
    __arm_cp.36_0
        0x08002dd4:    4010501c    .P.@    DCD    1074810908
    $t.68
    sys_clk_enable_timer2
        0x08002dd8:    4804        .H      LDR      r0,[pc,#16] ; [0x8002dec] = 0x4010501c
        0x08002dda:    6801        .h      LDR      r1,[r0,#0]
        0x08002ddc:    2208        ."      MOVS     r2,#8
        0x08002dde:    4311        .C      ORRS     r1,r1,r2
        0x08002de0:    6001        .`      STR      r1,[r0,#0]
        0x08002de2:    6881        .h      LDR      r1,[r0,#8]
        0x08002de4:    4311        .C      ORRS     r1,r1,r2
        0x08002de6:    6081        .`      STR      r1,[r0,#8]
        0x08002de8:    4770        pG      BX       lr
        0x08002dea:    46c0        .F      MOV      r8,r8
    $d.69
    __arm_cp.37_0
        0x08002dec:    4010501c    .P.@    DCD    1074810908
    $t.70
    sys_clk_enable_timer3
        0x08002df0:    4804        .H      LDR      r0,[pc,#16] ; [0x8002e04] = 0x4010501c
        0x08002df2:    6801        .h      LDR      r1,[r0,#0]
        0x08002df4:    2210        ."      MOVS     r2,#0x10
        0x08002df6:    4311        .C      ORRS     r1,r1,r2
        0x08002df8:    6001        .`      STR      r1,[r0,#0]
        0x08002dfa:    6881        .h      LDR      r1,[r0,#8]
        0x08002dfc:    4311        .C      ORRS     r1,r1,r2
        0x08002dfe:    6081        .`      STR      r1,[r0,#8]
        0x08002e00:    4770        pG      BX       lr
        0x08002e02:    46c0        .F      MOV      r8,r8
    $d.71
    __arm_cp.38_0
        0x08002e04:    4010501c    .P.@    DCD    1074810908
    $t.72
    sys_clk_disable_timer0
        0x08002e08:    2002        .       MOVS     r0,#2
        0x08002e0a:    43c0        .C      MVNS     r0,r0
        0x08002e0c:    4903        .I      LDR      r1,[pc,#12] ; [0x8002e1c] = 0x4010501c
        0x08002e0e:    680a        .h      LDR      r2,[r1,#0]
        0x08002e10:    4002        .@      ANDS     r2,r2,r0
        0x08002e12:    600a        .`      STR      r2,[r1,#0]
        0x08002e14:    688a        .h      LDR      r2,[r1,#8]
        0x08002e16:    4002        .@      ANDS     r2,r2,r0
        0x08002e18:    608a        .`      STR      r2,[r1,#8]
        0x08002e1a:    4770        pG      BX       lr
    $d.73
    __arm_cp.39_0
        0x08002e1c:    4010501c    .P.@    DCD    1074810908
    $t.74
    sys_clk_disable_timer1
        0x08002e20:    2004        .       MOVS     r0,#4
        0x08002e22:    43c0        .C      MVNS     r0,r0
        0x08002e24:    4903        .I      LDR      r1,[pc,#12] ; [0x8002e34] = 0x4010501c
        0x08002e26:    680a        .h      LDR      r2,[r1,#0]
        0x08002e28:    4002        .@      ANDS     r2,r2,r0
        0x08002e2a:    600a        .`      STR      r2,[r1,#0]
        0x08002e2c:    688a        .h      LDR      r2,[r1,#8]
        0x08002e2e:    4002        .@      ANDS     r2,r2,r0
        0x08002e30:    608a        .`      STR      r2,[r1,#8]
        0x08002e32:    4770        pG      BX       lr
    $d.75
    __arm_cp.40_0
        0x08002e34:    4010501c    .P.@    DCD    1074810908
    $t.76
    sys_clk_disable_timer2
        0x08002e38:    2008        .       MOVS     r0,#8
        0x08002e3a:    43c0        .C      MVNS     r0,r0
        0x08002e3c:    4903        .I      LDR      r1,[pc,#12] ; [0x8002e4c] = 0x4010501c
        0x08002e3e:    680a        .h      LDR      r2,[r1,#0]
        0x08002e40:    4002        .@      ANDS     r2,r2,r0
        0x08002e42:    600a        .`      STR      r2,[r1,#0]
        0x08002e44:    688a        .h      LDR      r2,[r1,#8]
        0x08002e46:    4002        .@      ANDS     r2,r2,r0
        0x08002e48:    608a        .`      STR      r2,[r1,#8]
        0x08002e4a:    4770        pG      BX       lr
    $d.77
    __arm_cp.41_0
        0x08002e4c:    4010501c    .P.@    DCD    1074810908
    $t.78
    sys_clk_disable_timer3
        0x08002e50:    2010        .       MOVS     r0,#0x10
        0x08002e52:    43c0        .C      MVNS     r0,r0
        0x08002e54:    4903        .I      LDR      r1,[pc,#12] ; [0x8002e64] = 0x4010501c
        0x08002e56:    680a        .h      LDR      r2,[r1,#0]
        0x08002e58:    4002        .@      ANDS     r2,r2,r0
        0x08002e5a:    600a        .`      STR      r2,[r1,#0]
        0x08002e5c:    688a        .h      LDR      r2,[r1,#8]
        0x08002e5e:    4002        .@      ANDS     r2,r2,r0
        0x08002e60:    608a        .`      STR      r2,[r1,#8]
        0x08002e62:    4770        pG      BX       lr
    $d.79
    __arm_cp.42_0
        0x08002e64:    4010501c    .P.@    DCD    1074810908
    $t.0
    NMI_Handler
        0x08002e68:    4770        pG      BX       lr
    HardFault_Handler
        0x08002e6a:    4770        pG      BX       lr
    SVC_Handler
        0x08002e6c:    4770        pG      BX       lr
    PendSV_Handler
        0x08002e6e:    4770        pG      BX       lr
    SysTick_Handler
        0x08002e70:    4770        pG      BX       lr
    TIMER0_Handler
        0x08002e72:    b580        ..      PUSH     {r7,lr}
        0x08002e74:    2000        .       MOVS     r0,#0
        0x08002e76:    f000fb0b    ....    BL       timer_isr ; 0x8003490
        0x08002e7a:    bd80        ..      POP      {r7,pc}
    TIMER1_Handler
        0x08002e7c:    b580        ..      PUSH     {r7,lr}
        0x08002e7e:    2001        .       MOVS     r0,#1
        0x08002e80:    f000fb06    ....    BL       timer_isr ; 0x8003490
        0x08002e84:    bd80        ..      POP      {r7,pc}
    TIMER2_Handler
        0x08002e86:    b580        ..      PUSH     {r7,lr}
        0x08002e88:    2002        .       MOVS     r0,#2
        0x08002e8a:    f000fb01    ....    BL       timer_isr ; 0x8003490
        0x08002e8e:    bd80        ..      POP      {r7,pc}
    TIMER3_Handler
        0x08002e90:    b580        ..      PUSH     {r7,lr}
        0x08002e92:    2003        .       MOVS     r0,#3
        0x08002e94:    f000fafc    ....    BL       timer_isr ; 0x8003490
        0x08002e98:    bd80        ..      POP      {r7,pc}
    DUALTIMER_Handler
        0x08002e9a:    b580        ..      PUSH     {r7,lr}
        0x08002e9c:    f000fb8a    ....    BL       dualtimer_hdl_proc ; 0x80035b4
        0x08002ea0:    bd80        ..      POP      {r7,pc}
    UART0_Handler
        0x08002ea2:    4770        pG      BX       lr
    UART1_Handler
        0x08002ea4:    4770        pG      BX       lr
    UART2_Handler
        0x08002ea6:    4770        pG      BX       lr
    SPI0_Handler
        0x08002ea8:    4770        pG      BX       lr
    SPI1_Handler
        0x08002eaa:    4770        pG      BX       lr
    I2C_Handler
        0x08002eac:    4770        pG      BX       lr
    GPIO_Handler
        0x08002eae:    4770        pG      BX       lr
    DMA_Handler
        0x08002eb0:    4770        pG      BX       lr
    RADAR_Handler
        0x08002eb2:    b580        ..      PUSH     {r7,lr}
        0x08002eb4:    f003fd9e    ....    BL       radar_isr ; 0x80069f4
        0x08002eb8:    bd80        ..      POP      {r7,pc}
    KEY_Handler
        0x08002eba:    4770        pG      BX       lr
    GPIO0_Handler
        0x08002ebc:    4770        pG      BX       lr
    GPIO1_Handler
        0x08002ebe:    4770        pG      BX       lr
    GPIO2_Handler
        0x08002ec0:    4770        pG      BX       lr
    GPIO3_Handler
        0x08002ec2:    4770        pG      BX       lr
    GPIO4_Handler
        0x08002ec4:    4770        pG      BX       lr
    GPIO5_Handler
        0x08002ec6:    4770        pG      BX       lr
    GPIO6_Handler
        0x08002ec8:    4770        pG      BX       lr
    AON_WDT_Handler
        0x08002eca:    4770        pG      BX       lr
    gpio_get_direction
        0x08002ecc:    2809        .(      CMP      r0,#9
        0x08002ece:    d809        ..      BHI      0x8002ee4 ; gpio_get_direction + 24
        0x08002ed0:    21fc        .!      MOVS     r1,#0xfc
        0x08002ed2:    4001        .@      ANDS     r1,r1,r0
        0x08002ed4:    4a09        .J      LDR      r2,[pc,#36] ; [0x8002efc] = 0x40105038
        0x08002ed6:    5889        .X      LDR      r1,[r1,r2]
        0x08002ed8:    0780        ..      LSLS     r0,r0,#30
        0x08002eda:    0ec0        ..      LSRS     r0,r0,#27
        0x08002edc:    40c1        .@      LSRS     r1,r1,r0
        0x08002ede:    200f        .       MOVS     r0,#0xf
        0x08002ee0:    4008        .@      ANDS     r0,r0,r1
        0x08002ee2:    e005        ..      B        0x8002ef0 ; gpio_get_direction + 36
        0x08002ee4:    2810        .(      CMP      r0,#0x10
        0x08002ee6:    d802        ..      BHI      0x8002eee ; gpio_get_direction + 34
        0x08002ee8:    4903        .I      LDR      r1,[pc,#12] ; [0x8002ef8] = 0x40103844
        0x08002eea:    5c40        @\      LDRB     r0,[r0,r1]
        0x08002eec:    e000        ..      B        0x8002ef0 ; gpio_get_direction + 36
        0x08002eee:    2000        .       MOVS     r0,#0
        0x08002ef0:    0841        A.      LSRS     r1,r0,#1
        0x08002ef2:    2001        .       MOVS     r0,#1
        0x08002ef4:    4388        .C      BICS     r0,r0,r1
        0x08002ef6:    4770        pG      BX       lr
    $d.1
    __arm_cp.0_0
        0x08002ef8:    40103844    D8.@    DCD    1074804804
    __arm_cp.0_1
        0x08002efc:    40105038    8P.@    DCD    1074810936
    $t.2
    gpio_set_direction
        0x08002f00:    b570        p.      PUSH     {r4-r6,lr}
        0x08002f02:    2809        .(      CMP      r0,#9
        0x08002f04:    d80f        ..      BHI      0x8002f26 ; gpio_set_direction + 38
        0x08002f06:    22fc        ."      MOVS     r2,#0xfc
        0x08002f08:    4002        .@      ANDS     r2,r2,r0
        0x08002f0a:    4b0e        .K      LDR      r3,[pc,#56] ; [0x8002f44] = 0x40105038
        0x08002f0c:    58d4        .X      LDR      r4,[r2,r3]
        0x08002f0e:    0780        ..      LSLS     r0,r0,#30
        0x08002f10:    0ec0        ..      LSRS     r0,r0,#27
        0x08002f12:    2502        .%      MOVS     r5,#2
        0x08002f14:    462e        .F      MOV      r6,r5
        0x08002f16:    4086        .@      LSLS     r6,r6,r0
        0x08002f18:    43b4        .C      BICS     r4,r4,r6
        0x08002f1a:    0049        I.      LSLS     r1,r1,#1
        0x08002f1c:    438d        .C      BICS     r5,r5,r1
        0x08002f1e:    4085        .@      LSLS     r5,r5,r0
        0x08002f20:    4325        %C      ORRS     r5,r5,r4
        0x08002f22:    50d5        .P      STR      r5,[r2,r3]
        0x08002f24:    bd70        p.      POP      {r4-r6,pc}
        0x08002f26:    2810        .(      CMP      r0,#0x10
        0x08002f28:    d809        ..      BHI      0x8002f3e ; gpio_set_direction + 62
        0x08002f2a:    4a05        .J      LDR      r2,[pc,#20] ; [0x8002f40] = 0x40103844
        0x08002f2c:    5c83        .\      LDRB     r3,[r0,r2]
        0x08002f2e:    24fd        .$      MOVS     r4,#0xfd
        0x08002f30:    401c        .@      ANDS     r4,r4,r3
        0x08002f32:    07c9        ..      LSLS     r1,r1,#31
        0x08002f34:    0f89        ..      LSRS     r1,r1,#30
        0x08002f36:    1861        a.      ADDS     r1,r4,r1
        0x08002f38:    2302        .#      MOVS     r3,#2
        0x08002f3a:    404b        K@      EORS     r3,r3,r1
        0x08002f3c:    5483        .T      STRB     r3,[r0,r2]
        0x08002f3e:    bd70        p.      POP      {r4-r6,pc}
    $d.3
    __arm_cp.1_0
        0x08002f40:    40103844    D8.@    DCD    1074804804
    __arm_cp.1_1
        0x08002f44:    40105038    8P.@    DCD    1074810936
    $t.4
    gpio_get_value
        0x08002f48:    280c        .(      CMP      r0,#0xc
        0x08002f4a:    d102        ..      BNE      0x8002f52 ; gpio_get_value + 10
        0x08002f4c:    4808        .H      LDR      r0,[pc,#32] ; [0x8002f70] = 0x40103850
        0x08002f4e:    7801        .x      LDRB     r1,[r0,#0]
        0x08002f50:    e007        ..      B        0x8002f62 ; gpio_get_value + 26
        0x08002f52:    280b        .(      CMP      r0,#0xb
        0x08002f54:    d902        ..      BLS      0x8002f5c ; gpio_get_value + 20
        0x08002f56:    2810        .(      CMP      r0,#0x10
        0x08002f58:    d806        ..      BHI      0x8002f68 ; gpio_get_value + 32
        0x08002f5a:    1e40        @.      SUBS     r0,r0,#1
        0x08002f5c:    4903        .I      LDR      r1,[pc,#12] ; [0x8002f6c] = 0x40104000
        0x08002f5e:    6809        .h      LDR      r1,[r1,#0]
        0x08002f60:    40c1        .@      LSRS     r1,r1,r0
        0x08002f62:    2001        .       MOVS     r0,#1
        0x08002f64:    4008        .@      ANDS     r0,r0,r1
        0x08002f66:    4770        pG      BX       lr
        0x08002f68:    2000        .       MOVS     r0,#0
        0x08002f6a:    4770        pG      BX       lr
    $d.5
    __arm_cp.2_0
        0x08002f6c:    40104000    .@.@    DCD    1074806784
    __arm_cp.2_1
        0x08002f70:    40103850    P8.@    DCD    1074804816
    $t.6
    gpio_set_value
        0x08002f74:    b5b0        ..      PUSH     {r4,r5,r7,lr}
        0x08002f76:    2809        .(      CMP      r0,#9
        0x08002f78:    d80d        ..      BHI      0x8002f96 ; gpio_set_value + 34
        0x08002f7a:    22fc        ."      MOVS     r2,#0xfc
        0x08002f7c:    4002        .@      ANDS     r2,r2,r0
        0x08002f7e:    4b0c        .K      LDR      r3,[pc,#48] ; [0x8002fb0] = 0x40105038
        0x08002f80:    58d4        .X      LDR      r4,[r2,r3]
        0x08002f82:    0780        ..      LSLS     r0,r0,#30
        0x08002f84:    0ec0        ..      LSRS     r0,r0,#27
        0x08002f86:    2501        .%      MOVS     r5,#1
        0x08002f88:    4029        )@      ANDS     r1,r1,r5
        0x08002f8a:    4085        .@      LSLS     r5,r5,r0
        0x08002f8c:    43ac        .C      BICS     r4,r4,r5
        0x08002f8e:    4081        .@      LSLS     r1,r1,r0
        0x08002f90:    4321        !C      ORRS     r1,r1,r4
        0x08002f92:    50d1        .P      STR      r1,[r2,r3]
        0x08002f94:    bdb0        ..      POP      {r4,r5,r7,pc}
        0x08002f96:    2810        .(      CMP      r0,#0x10
        0x08002f98:    d807        ..      BHI      0x8002faa ; gpio_set_value + 54
        0x08002f9a:    2201        ."      MOVS     r2,#1
        0x08002f9c:    4011        .@      ANDS     r1,r1,r2
        0x08002f9e:    4a03        .J      LDR      r2,[pc,#12] ; [0x8002fac] = 0x40103844
        0x08002fa0:    5c83        .\      LDRB     r3,[r0,r2]
        0x08002fa2:    24fe        .$      MOVS     r4,#0xfe
        0x08002fa4:    401c        .@      ANDS     r4,r4,r3
        0x08002fa6:    1861        a.      ADDS     r1,r4,r1
        0x08002fa8:    5481        .T      STRB     r1,[r0,r2]
        0x08002faa:    bdb0        ..      POP      {r4,r5,r7,pc}
    $d.7
    __arm_cp.3_0
        0x08002fac:    40103844    D8.@    DCD    1074804804
    __arm_cp.3_1
        0x08002fb0:    40105038    8P.@    DCD    1074810936
    $t.8
    gpio_direction_input
        0x08002fb4:    b510        ..      PUSH     {r4,lr}
        0x08002fb6:    2400        .$      MOVS     r4,#0
        0x08002fb8:    4621        !F      MOV      r1,r4
        0x08002fba:    f7ffffa1    ....    BL       gpio_set_direction ; 0x8002f00
        0x08002fbe:    4620         F      MOV      r0,r4
        0x08002fc0:    bd10        ..      POP      {r4,pc}
    gpio_direction_output
        0x08002fc2:    b510        ..      PUSH     {r4,lr}
        0x08002fc4:    4604        .F      MOV      r4,r0
        0x08002fc6:    b2c9        ..      UXTB     r1,r1
        0x08002fc8:    f7ffffd4    ....    BL       gpio_set_value ; 0x8002f74
        0x08002fcc:    2101        .!      MOVS     r1,#1
        0x08002fce:    4620         F      MOV      r0,r4
        0x08002fd0:    f7ffff96    ....    BL       gpio_set_direction ; 0x8002f00
        0x08002fd4:    2000        .       MOVS     r0,#0
        0x08002fd6:    bd10        ..      POP      {r4,pc}
    gpio_set_pinmux
        0x08002fd8:    2809        .(      CMP      r0,#9
        0x08002fda:    d809        ..      BHI      0x8002ff0 ; gpio_set_pinmux + 24
        0x08002fdc:    b2c2        ..      UXTB     r2,r0
        0x08002fde:    2001        .       MOVS     r0,#1
        0x08002fe0:    4090        .@      LSLS     r0,r0,r2
        0x08002fe2:    4a0e        .J      LDR      r2,[pc,#56] ; [0x800301c] = 0x40105030
        0x08002fe4:    2901        .)      CMP      r1,#1
        0x08002fe6:    d10f        ..      BNE      0x8003008 ; gpio_set_pinmux + 48
        0x08002fe8:    6811        .h      LDR      r1,[r2,#0]
        0x08002fea:    4301        .C      ORRS     r1,r1,r0
        0x08002fec:    6011        .`      STR      r1,[r2,#0]
        0x08002fee:    4770        pG      BX       lr
        0x08002ff0:    2810        .(      CMP      r0,#0x10
        0x08002ff2:    d80f        ..      BHI      0x8003014 ; gpio_set_pinmux + 60
        0x08002ff4:    30f6        .0      ADDS     r0,r0,#0xf6
        0x08002ff6:    b2c2        ..      UXTB     r2,r0
        0x08002ff8:    2001        .       MOVS     r0,#1
        0x08002ffa:    4090        .@      LSLS     r0,r0,r2
        0x08002ffc:    4a06        .J      LDR      r2,[pc,#24] ; [0x8003018] = 0x4010384a
        0x08002ffe:    7813        .x      LDRB     r3,[r2,#0]
        0x08003000:    2901        .)      CMP      r1,#1
        0x08003002:    d105        ..      BNE      0x8003010 ; gpio_set_pinmux + 56
        0x08003004:    4303        .C      ORRS     r3,r3,r0
        0x08003006:    e004        ..      B        0x8003012 ; gpio_set_pinmux + 58
        0x08003008:    6811        .h      LDR      r1,[r2,#0]
        0x0800300a:    4381        .C      BICS     r1,r1,r0
        0x0800300c:    6011        .`      STR      r1,[r2,#0]
        0x0800300e:    4770        pG      BX       lr
        0x08003010:    4383        .C      BICS     r3,r3,r0
        0x08003012:    7013        .p      STRB     r3,[r2,#0]
        0x08003014:    4770        pG      BX       lr
        0x08003016:    46c0        .F      MOV      r8,r8
    $d.9
    __arm_cp.6_0
        0x08003018:    4010384a    J8.@    DCD    1074804810
    __arm_cp.6_1
        0x0800301c:    40105030    0P.@    DCD    1074810928
    $t.10
    gpio_set_alternate_function
        0x08003020:    2810        .(      CMP      r0,#0x10
        0x08003022:    d80e        ..      BHI      0x8003042 ; gpio_set_alternate_function + 34
        0x08003024:    280c        .(      CMP      r0,#0xc
        0x08003026:    d00c        ..      BEQ      0x8003042 ; gpio_set_alternate_function + 34
        0x08003028:    280c        .(      CMP      r0,#0xc
        0x0800302a:    d900        ..      BLS      0x800302e ; gpio_set_alternate_function + 14
        0x0800302c:    1e40        @.      SUBS     r0,r0,#1
        0x0800302e:    0640        @.      LSLS     r0,r0,#25
        0x08003030:    0e00        ..      LSRS     r0,r0,#24
        0x08003032:    4081        .@      LSLS     r1,r1,r0
        0x08003034:    2203        ."      MOVS     r2,#3
        0x08003036:    4082        .@      LSLS     r2,r2,r0
        0x08003038:    4802        .H      LDR      r0,[pc,#8] ; [0x8003044] = 0x4010502c
        0x0800303a:    6803        .h      LDR      r3,[r0,#0]
        0x0800303c:    4393        .C      BICS     r3,r3,r2
        0x0800303e:    430b        .C      ORRS     r3,r3,r1
        0x08003040:    6003        .`      STR      r3,[r0,#0]
        0x08003042:    4770        pG      BX       lr
    $d.11
    __arm_cp.7_0
        0x08003044:    4010502c    ,P.@    DCD    1074810924
    $t.12
    gpio_set_analog_en
        0x08003048:    b5b0        ..      PUSH     {r4,r5,r7,lr}
        0x0800304a:    2809        .(      CMP      r0,#9
        0x0800304c:    d80e        ..      BHI      0x800306c ; gpio_set_analog_en + 36
        0x0800304e:    22fc        ."      MOVS     r2,#0xfc
        0x08003050:    4002        .@      ANDS     r2,r2,r0
        0x08003052:    4b0d        .K      LDR      r3,[pc,#52] ; [0x8003088] = 0x40105038
        0x08003054:    58d4        .X      LDR      r4,[r2,r3]
        0x08003056:    0780        ..      LSLS     r0,r0,#30
        0x08003058:    0ec0        ..      LSRS     r0,r0,#27
        0x0800305a:    2540        @%      MOVS     r5,#0x40
        0x0800305c:    4085        .@      LSLS     r5,r5,r0
        0x0800305e:    43ac        .C      BICS     r4,r4,r5
        0x08003060:    07c9        ..      LSLS     r1,r1,#31
        0x08003062:    0e49        I.      LSRS     r1,r1,#25
        0x08003064:    4081        .@      LSLS     r1,r1,r0
        0x08003066:    4321        !C      ORRS     r1,r1,r4
        0x08003068:    50d1        .P      STR      r1,[r2,r3]
        0x0800306a:    bdb0        ..      POP      {r4,r5,r7,pc}
        0x0800306c:    2810        .(      CMP      r0,#0x10
        0x0800306e:    d807        ..      BHI      0x8003080 ; gpio_set_analog_en + 56
        0x08003070:    4a04        .J      LDR      r2,[pc,#16] ; [0x8003084] = 0x40103844
        0x08003072:    5c83        .\      LDRB     r3,[r0,r2]
        0x08003074:    24bf        .$      MOVS     r4,#0xbf
        0x08003076:    401c        .@      ANDS     r4,r4,r3
        0x08003078:    07c9        ..      LSLS     r1,r1,#31
        0x0800307a:    0e49        I.      LSRS     r1,r1,#25
        0x0800307c:    1861        a.      ADDS     r1,r4,r1
        0x0800307e:    5481        .T      STRB     r1,[r0,r2]
        0x08003080:    bdb0        ..      POP      {r4,r5,r7,pc}
        0x08003082:    46c0        .F      MOV      r8,r8
    $d.13
    __arm_cp.8_0
        0x08003084:    40103844    D8.@    DCD    1074804804
    __arm_cp.8_1
        0x08003088:    40105038    8P.@    DCD    1074810936
    $t.14
    gpio_set_rd_en
        0x0800308c:    2301        .#      MOVS     r3,#1
        0x0800308e:    4083        .@      LSLS     r3,r3,r0
        0x08003090:    4804        .H      LDR      r0,[pc,#16] ; [0x80030a4] = 0x40104008
        0x08003092:    6802        .h      LDR      r2,[r0,#0]
        0x08003094:    2900        .)      CMP      r1,#0
        0x08003096:    d001        ..      BEQ      0x800309c ; gpio_set_rd_en + 16
        0x08003098:    431a        .C      ORRS     r2,r2,r3
        0x0800309a:    e000        ..      B        0x800309e ; gpio_set_rd_en + 18
        0x0800309c:    439a        .C      BICS     r2,r2,r3
        0x0800309e:    6002        .`      STR      r2,[r0,#0]
        0x080030a0:    4770        pG      BX       lr
        0x080030a2:    46c0        .F      MOV      r8,r8
    $d.15
    __arm_cp.9_0
        0x080030a4:    40104008    .@.@    DCD    1074806792
    $t.16
    gpio_set_pull_up
        0x080030a8:    b5b0        ..      PUSH     {r4,r5,r7,lr}
        0x080030aa:    2809        .(      CMP      r0,#9
        0x080030ac:    d80e        ..      BHI      0x80030cc ; gpio_set_pull_up + 36
        0x080030ae:    22fc        ."      MOVS     r2,#0xfc
        0x080030b0:    4002        .@      ANDS     r2,r2,r0
        0x080030b2:    4b0d        .K      LDR      r3,[pc,#52] ; [0x80030e8] = 0x40105038
        0x080030b4:    58d4        .X      LDR      r4,[r2,r3]
        0x080030b6:    0780        ..      LSLS     r0,r0,#30
        0x080030b8:    0ec0        ..      LSRS     r0,r0,#27
        0x080030ba:    2504        .%      MOVS     r5,#4
        0x080030bc:    4085        .@      LSLS     r5,r5,r0
        0x080030be:    43ac        .C      BICS     r4,r4,r5
        0x080030c0:    07c9        ..      LSLS     r1,r1,#31
        0x080030c2:    0f49        I.      LSRS     r1,r1,#29
        0x080030c4:    4081        .@      LSLS     r1,r1,r0
        0x080030c6:    4321        !C      ORRS     r1,r1,r4
        0x080030c8:    50d1        .P      STR      r1,[r2,r3]
        0x080030ca:    bdb0        ..      POP      {r4,r5,r7,pc}
        0x080030cc:    2810        .(      CMP      r0,#0x10
        0x080030ce:    d807        ..      BHI      0x80030e0 ; gpio_set_pull_up + 56
        0x080030d0:    4a04        .J      LDR      r2,[pc,#16] ; [0x80030e4] = 0x40103844
        0x080030d2:    5c83        .\      LDRB     r3,[r0,r2]
        0x080030d4:    24fb        .$      MOVS     r4,#0xfb
        0x080030d6:    401c        .@      ANDS     r4,r4,r3
        0x080030d8:    07c9        ..      LSLS     r1,r1,#31
        0x080030da:    0f49        I.      LSRS     r1,r1,#29
        0x080030dc:    1861        a.      ADDS     r1,r4,r1
        0x080030de:    5481        .T      STRB     r1,[r0,r2]
        0x080030e0:    bdb0        ..      POP      {r4,r5,r7,pc}
        0x080030e2:    46c0        .F      MOV      r8,r8
    $d.17
    __arm_cp.10_0
        0x080030e4:    40103844    D8.@    DCD    1074804804
    __arm_cp.10_1
        0x080030e8:    40105038    8P.@    DCD    1074810936
    $t.18
    gpio_set_pull_down
        0x080030ec:    b5b0        ..      PUSH     {r4,r5,r7,lr}
        0x080030ee:    2809        .(      CMP      r0,#9
        0x080030f0:    d80e        ..      BHI      0x8003110 ; gpio_set_pull_down + 36
        0x080030f2:    22fc        ."      MOVS     r2,#0xfc
        0x080030f4:    4002        .@      ANDS     r2,r2,r0
        0x080030f6:    4b0d        .K      LDR      r3,[pc,#52] ; [0x800312c] = 0x40105038
        0x080030f8:    58d4        .X      LDR      r4,[r2,r3]
        0x080030fa:    0780        ..      LSLS     r0,r0,#30
        0x080030fc:    0ec0        ..      LSRS     r0,r0,#27
        0x080030fe:    2508        .%      MOVS     r5,#8
        0x08003100:    4085        .@      LSLS     r5,r5,r0
        0x08003102:    43ac        .C      BICS     r4,r4,r5
        0x08003104:    07c9        ..      LSLS     r1,r1,#31
        0x08003106:    0f09        ..      LSRS     r1,r1,#28
        0x08003108:    4081        .@      LSLS     r1,r1,r0
        0x0800310a:    4321        !C      ORRS     r1,r1,r4
        0x0800310c:    50d1        .P      STR      r1,[r2,r3]
        0x0800310e:    bdb0        ..      POP      {r4,r5,r7,pc}
        0x08003110:    2810        .(      CMP      r0,#0x10
        0x08003112:    d807        ..      BHI      0x8003124 ; gpio_set_pull_down + 56
        0x08003114:    4a04        .J      LDR      r2,[pc,#16] ; [0x8003128] = 0x40103844
        0x08003116:    5c83        .\      LDRB     r3,[r0,r2]
        0x08003118:    24f7        .$      MOVS     r4,#0xf7
        0x0800311a:    401c        .@      ANDS     r4,r4,r3
        0x0800311c:    07c9        ..      LSLS     r1,r1,#31
        0x0800311e:    0f09        ..      LSRS     r1,r1,#28
        0x08003120:    1861        a.      ADDS     r1,r4,r1
        0x08003122:    5481        .T      STRB     r1,[r0,r2]
        0x08003124:    bdb0        ..      POP      {r4,r5,r7,pc}
        0x08003126:    46c0        .F      MOV      r8,r8
    $d.19
    __arm_cp.11_0
        0x08003128:    40103844    D8.@    DCD    1074804804
    __arm_cp.11_1
        0x0800312c:    40105038    8P.@    DCD    1074810936
    $t.20
    gpio_init
        0x08003130:    b5f0        ..      PUSH     {r4-r7,lr}
        0x08003132:    780b        .x      LDRB     r3,[r1,#0]
        0x08003134:    1e5a        Z.      SUBS     r2,r3,#1
        0x08003136:    1e54        T.      SUBS     r4,r2,#1
        0x08003138:    41a2        .A      SBCS     r2,r2,r4
        0x0800313a:    0052        R.      LSLS     r2,r2,#1
        0x0800313c:    1edc        ..      SUBS     r4,r3,#3
        0x0800313e:    4265        eB      RSBS     r5,r4,#0
        0x08003140:    4165        eA      ADCS     r5,r5,r4
        0x08003142:    01ac        ..      LSLS     r4,r5,#6
        0x08003144:    18a2        ..      ADDS     r2,r4,r2
        0x08003146:    784c        Lx      LDRB     r4,[r1,#1]
        0x08003148:    1e65        e.      SUBS     r5,r4,#1
        0x0800314a:    426e        nB      RSBS     r6,r5,#0
        0x0800314c:    416e        nA      ADCS     r6,r6,r5
        0x0800314e:    00b5        ..      LSLS     r5,r6,#2
        0x08003150:    1952        R.      ADDS     r2,r2,r5
        0x08003152:    1ea4        ..      SUBS     r4,r4,#2
        0x08003154:    4265        eB      RSBS     r5,r4,#0
        0x08003156:    4165        eA      ADCS     r5,r5,r4
        0x08003158:    00ec        ..      LSLS     r4,r5,#3
        0x0800315a:    1912        ..      ADDS     r2,r2,r4
        0x0800315c:    3230        02      ADDS     r2,r2,#0x30
        0x0800315e:    2809        .(      CMP      r0,#9
        0x08003160:    d807        ..      BHI      0x8003172 ; gpio_init + 66
        0x08003162:    2501        .%      MOVS     r5,#1
        0x08003164:    4085        .@      LSLS     r5,r5,r0
        0x08003166:    4c20         L      LDR      r4,[pc,#128] ; [0x80031e8] = 0x4010502c
        0x08003168:    2b02        .+      CMP      r3,#2
        0x0800316a:    d00f        ..      BEQ      0x800318c ; gpio_init + 92
        0x0800316c:    6866        fh      LDR      r6,[r4,#4]
        0x0800316e:    432e        .C      ORRS     r6,r6,r5
        0x08003170:    e00e        ..      B        0x8003190 ; gpio_init + 96
        0x08003172:    2810        .(      CMP      r0,#0x10
        0x08003174:    d81a        ..      BHI      0x80031ac ; gpio_init + 124
        0x08003176:    4604        .F      MOV      r4,r0
        0x08003178:    3c0a        .<      SUBS     r4,r4,#0xa
        0x0800317a:    b2e4        ..      UXTB     r4,r4
        0x0800317c:    2601        .&      MOVS     r6,#1
        0x0800317e:    40a6        .@      LSLS     r6,r6,r4
        0x08003180:    4c18        .L      LDR      r4,[pc,#96] ; [0x80031e4] = 0x40103844
        0x08003182:    79a5        .y      LDRB     r5,[r4,#6]
        0x08003184:    2b02        .+      CMP      r3,#2
        0x08003186:    d113        ..      BNE      0x80031b0 ; gpio_init + 128
        0x08003188:    43b5        .C      BICS     r5,r5,r6
        0x0800318a:    e012        ..      B        0x80031b2 ; gpio_init + 130
        0x0800318c:    6866        fh      LDR      r6,[r4,#4]
        0x0800318e:    43ae        .C      BICS     r6,r6,r5
        0x08003190:    6066        f`      STR      r6,[r4,#4]
        0x08003192:    0785        ..      LSLS     r5,r0,#30
        0x08003194:    0eed        ..      LSRS     r5,r5,#27
        0x08003196:    26ff        .&      MOVS     r6,#0xff
        0x08003198:    40ae        .@      LSLS     r6,r6,r5
        0x0800319a:    27fc        .'      MOVS     r7,#0xfc
        0x0800319c:    4007        .@      ANDS     r7,r7,r0
        0x0800319e:    193c        <.      ADDS     r4,r7,r4
        0x080031a0:    68e7        .h      LDR      r7,[r4,#0xc]
        0x080031a2:    43b7        .C      BICS     r7,r7,r6
        0x080031a4:    40aa        .@      LSLS     r2,r2,r5
        0x080031a6:    433a        :C      ORRS     r2,r2,r7
        0x080031a8:    60e2        .`      STR      r2,[r4,#0xc]
        0x080031aa:    e006        ..      B        0x80031ba ; gpio_init + 138
        0x080031ac:    2201        ."      MOVS     r2,#1
        0x080031ae:    e017        ..      B        0x80031e0 ; gpio_init + 176
        0x080031b0:    4335        5C      ORRS     r5,r5,r6
        0x080031b2:    71a5        .q      STRB     r5,[r4,#6]
        0x080031b4:    5d03        .]      LDRB     r3,[r0,r4]
        0x080031b6:    5502        .U      STRB     r2,[r0,r4]
        0x080031b8:    780b        .x      LDRB     r3,[r1,#0]
        0x080031ba:    2200        ."      MOVS     r2,#0
        0x080031bc:    280c        .(      CMP      r0,#0xc
        0x080031be:    d00f        ..      BEQ      0x80031e0 ; gpio_init + 176
        0x080031c0:    2b02        .+      CMP      r3,#2
        0x080031c2:    d10d        ..      BNE      0x80031e0 ; gpio_init + 176
        0x080031c4:    280c        .(      CMP      r0,#0xc
        0x080031c6:    d900        ..      BLS      0x80031ca ; gpio_init + 154
        0x080031c8:    1e40        @.      SUBS     r0,r0,#1
        0x080031ca:    0640        @.      LSLS     r0,r0,#25
        0x080031cc:    0e00        ..      LSRS     r0,r0,#24
        0x080031ce:    7889        .x      LDRB     r1,[r1,#2]
        0x080031d0:    4081        .@      LSLS     r1,r1,r0
        0x080031d2:    2303        .#      MOVS     r3,#3
        0x080031d4:    4083        .@      LSLS     r3,r3,r0
        0x080031d6:    4804        .H      LDR      r0,[pc,#16] ; [0x80031e8] = 0x4010502c
        0x080031d8:    6804        .h      LDR      r4,[r0,#0]
        0x080031da:    439c        .C      BICS     r4,r4,r3
        0x080031dc:    430c        .C      ORRS     r4,r4,r1
        0x080031de:    6004        .`      STR      r4,[r0,#0]
        0x080031e0:    4610        .F      MOV      r0,r2
        0x080031e2:    bdf0        ..      POP      {r4-r7,pc}
    $d.21
    __arm_cp.12_0
        0x080031e4:    40103844    D8.@    DCD    1074804804
    __arm_cp.12_1
        0x080031e8:    4010502c    ,P.@    DCD    1074810924
    $t.22
    gpio_set_irq_type
        0x080031ec:    280b        .(      CMP      r0,#0xb
        0x080031ee:    d900        ..      BLS      0x80031f2 ; gpio_set_irq_type + 6
        0x080031f0:    1e40        @.      SUBS     r0,r0,#1
        0x080031f2:    1e49        I.      SUBS     r1,r1,#1
        0x080031f4:    2904        .)      CMP      r1,#4
        0x080031f6:    d824        $.      BHI      0x8003242 ; gpio_set_irq_type + 86
        0x080031f8:    4479        yD      ADD      r1,r1,pc
        0x080031fa:    7909        .y      LDRB     r1,[r1,#4]
        0x080031fc:    0049        I.      LSLS     r1,r1,#1
        0x080031fe:    448f        .D      ADD      pc,pc,r1
    $d.23
        0x08003200:    130c0702    ....    DCD    319555330
        0x08003204:    0019        ..      DCW    25
    $t.24
        0x08003206:    2101        .!      MOVS     r1,#1
        0x08003208:    4081        .@      LSLS     r1,r1,r0
        0x0800320a:    480e        .H      LDR      r0,[pc,#56] ; [0x8003244] = 0x40104028
        0x0800320c:    6001        .`      STR      r1,[r0,#0]
        0x0800320e:    e00f        ..      B        0x8003230 ; gpio_set_irq_type + 68
        0x08003210:    2101        .!      MOVS     r1,#1
        0x08003212:    4081        .@      LSLS     r1,r1,r0
        0x08003214:    480b        .H      LDR      r0,[pc,#44] ; [0x8003244] = 0x40104028
        0x08003216:    6001        .`      STR      r1,[r0,#0]
        0x08003218:    e010        ..      B        0x800323c ; gpio_set_irq_type + 80
        0x0800321a:    2101        .!      MOVS     r1,#1
        0x0800321c:    4081        .@      LSLS     r1,r1,r0
        0x0800321e:    4809        .H      LDR      r0,[pc,#36] ; [0x8003244] = 0x40104028
        0x08003220:    6001        .`      STR      r1,[r0,#0]
        0x08003222:    0409        ..      LSLS     r1,r1,#16
        0x08003224:    6081        .`      STR      r1,[r0,#8]
        0x08003226:    4770        pG      BX       lr
        0x08003228:    2101        .!      MOVS     r1,#1
        0x0800322a:    4081        .@      LSLS     r1,r1,r0
        0x0800322c:    4805        .H      LDR      r0,[pc,#20] ; [0x8003244] = 0x40104028
        0x0800322e:    6041        A`      STR      r1,[r0,#4]
        0x08003230:    6081        .`      STR      r1,[r0,#8]
        0x08003232:    e004        ..      B        0x800323e ; gpio_set_irq_type + 82
        0x08003234:    2101        .!      MOVS     r1,#1
        0x08003236:    4081        .@      LSLS     r1,r1,r0
        0x08003238:    4802        .H      LDR      r0,[pc,#8] ; [0x8003244] = 0x40104028
        0x0800323a:    6041        A`      STR      r1,[r0,#4]
        0x0800323c:    60c1        .`      STR      r1,[r0,#0xc]
        0x0800323e:    0409        ..      LSLS     r1,r1,#16
        0x08003240:    60c1        .`      STR      r1,[r0,#0xc]
        0x08003242:    4770        pG      BX       lr
    $d.25
    __arm_cp.13_0
        0x08003244:    40104028    (@.@    DCD    1074806824
    $t.26
    gpio_irq_hdl
        0x08003248:    b580        ..      PUSH     {r7,lr}
        0x0800324a:    0080        ..      LSLS     r0,r0,#2
        0x0800324c:    4902        .I      LDR      r1,[pc,#8] ; [0x8003258] = 0x20001230
        0x0800324e:    5808        .X      LDR      r0,[r1,r0]
        0x08003250:    2800        .(      CMP      r0,#0
        0x08003252:    d000        ..      BEQ      0x8003256 ; gpio_irq_hdl + 14
        0x08003254:    4780        .G      BLX      r0
        0x08003256:    bd80        ..      POP      {r7,pc}
    $d.27
    __arm_cp.14_0
        0x08003258:    20001230    0..     DCD    536875568
    $t.28
    gpio_isr
        0x0800325c:    b570        p.      PUSH     {r4-r6,lr}
        0x0800325e:    4808        .H      LDR      r0,[pc,#32] ; [0x8003280] = 0x40104038
        0x08003260:    6805        .h      LDR      r5,[r0,#0]
        0x08003262:    2400        .$      MOVS     r4,#0
        0x08003264:    4e07        .N      LDR      r6,[pc,#28] ; [0x8003284] = 0x20001230
        0x08003266:    07e8        ..      LSLS     r0,r5,#31
        0x08003268:    d003        ..      BEQ      0x8003272 ; gpio_isr + 22
        0x0800326a:    5930        0Y      LDR      r0,[r6,r4]
        0x0800326c:    2800        .(      CMP      r0,#0
        0x0800326e:    d000        ..      BEQ      0x8003272 ; gpio_isr + 22
        0x08003270:    4780        .G      BLX      r0
        0x08003272:    1d24        $.      ADDS     r4,r4,#4
        0x08003274:    0428        (.      LSLS     r0,r5,#16
        0x08003276:    0c45        E.      LSRS     r5,r0,#17
        0x08003278:    2c40        @,      CMP      r4,#0x40
        0x0800327a:    d1f4        ..      BNE      0x8003266 ; gpio_isr + 10
        0x0800327c:    bd70        p.      POP      {r4-r6,pc}
        0x0800327e:    46c0        .F      MOV      r8,r8
    $d.29
    __arm_cp.15_0
        0x08003280:    40104038    8@.@    DCD    1074806840
    __arm_cp.15_1
        0x08003284:    20001230    0..     DCD    536875568
    $t.30
    gpio_irq_set_hdl
        0x08003288:    280b        .(      CMP      r0,#0xb
        0x0800328a:    d900        ..      BLS      0x800328e ; gpio_irq_set_hdl + 6
        0x0800328c:    1e40        @.      SUBS     r0,r0,#1
        0x0800328e:    0080        ..      LSLS     r0,r0,#2
        0x08003290:    4a01        .J      LDR      r2,[pc,#4] ; [0x8003298] = 0x20001230
        0x08003292:    5011        .P      STR      r1,[r2,r0]
        0x08003294:    4770        pG      BX       lr
        0x08003296:    46c0        .F      MOV      r8,r8
    $d.31
    __arm_cp.16_0
        0x08003298:    20001230    0..     DCD    536875568
    $t.32
    gpio_irq_enable
        0x0800329c:    280b        .(      CMP      r0,#0xb
        0x0800329e:    d900        ..      BLS      0x80032a2 ; gpio_irq_enable + 6
        0x080032a0:    1e40        @.      SUBS     r0,r0,#1
        0x080032a2:    2101        .!      MOVS     r1,#1
        0x080032a4:    4081        .@      LSLS     r1,r1,r0
        0x080032a6:    4801        .H      LDR      r0,[pc,#4] ; [0x80032ac] = 0x40104020
        0x080032a8:    6001        .`      STR      r1,[r0,#0]
        0x080032aa:    4770        pG      BX       lr
    $d.33
    __arm_cp.17_0
        0x080032ac:    40104020     @.@    DCD    1074806816
    $t.34
    gpio_irq_disable
        0x080032b0:    280b        .(      CMP      r0,#0xb
        0x080032b2:    d900        ..      BLS      0x80032b6 ; gpio_irq_disable + 6
        0x080032b4:    1e40        @.      SUBS     r0,r0,#1
        0x080032b6:    2101        .!      MOVS     r1,#1
        0x080032b8:    4081        .@      LSLS     r1,r1,r0
        0x080032ba:    4801        .H      LDR      r0,[pc,#4] ; [0x80032c0] = 0x40104024
        0x080032bc:    6001        .`      STR      r1,[r0,#0]
        0x080032be:    4770        pG      BX       lr
    $d.35
    __arm_cp.18_0
        0x080032c0:    40104024    $@.@    DCD    1074806820
    $t.36
    gpio_irq_clr_flag
        0x080032c4:    280b        .(      CMP      r0,#0xb
        0x080032c6:    d900        ..      BLS      0x80032ca ; gpio_irq_clr_flag + 6
        0x080032c8:    1e40        @.      SUBS     r0,r0,#1
        0x080032ca:    2101        .!      MOVS     r1,#1
        0x080032cc:    4081        .@      LSLS     r1,r1,r0
        0x080032ce:    4801        .H      LDR      r0,[pc,#4] ; [0x80032d4] = 0x40104038
        0x080032d0:    6001        .`      STR      r1,[r0,#0]
        0x080032d2:    4770        pG      BX       lr
    $d.37
    __arm_cp.19_0
        0x080032d4:    40104038    8@.@    DCD    1074806840
    $t.38
    gpio_irq_get_status
        0x080032d8:    280b        .(      CMP      r0,#0xb
        0x080032da:    d900        ..      BLS      0x80032de ; gpio_irq_get_status + 6
        0x080032dc:    1e40        @.      SUBS     r0,r0,#1
        0x080032de:    4903        .I      LDR      r1,[pc,#12] ; [0x80032ec] = 0x40104038
        0x080032e0:    6809        .h      LDR      r1,[r1,#0]
        0x080032e2:    40c1        .@      LSRS     r1,r1,r0
        0x080032e4:    2001        .       MOVS     r0,#1
        0x080032e6:    4008        .@      ANDS     r0,r0,r1
        0x080032e8:    4770        pG      BX       lr
        0x080032ea:    46c0        .F      MOV      r8,r8
    $d.39
    __arm_cp.20_0
        0x080032ec:    40104038    8@.@    DCD    1074806840
    $t.40
    gpio_irq_rise_get_status
        0x080032f0:    280b        .(      CMP      r0,#0xb
        0x080032f2:    d900        ..      BLS      0x80032f6 ; gpio_irq_rise_get_status + 6
        0x080032f4:    1e40        @.      SUBS     r0,r0,#1
        0x080032f6:    4903        .I      LDR      r1,[pc,#12] ; [0x8003304] = 0x40104038
        0x080032f8:    6809        .h      LDR      r1,[r1,#0]
        0x080032fa:    40c1        .@      LSRS     r1,r1,r0
        0x080032fc:    03c8        ..      LSLS     r0,r1,#15
        0x080032fe:    0fc0        ..      LSRS     r0,r0,#31
        0x08003300:    4770        pG      BX       lr
        0x08003302:    46c0        .F      MOV      r8,r8
    $d.41
    __arm_cp.21_0
        0x08003304:    40104038    8@.@    DCD    1074806840
    $t.42
    gpio_toggle_init
        0x08003308:    b580        ..      PUSH     {r7,lr}
        0x0800330a:    2810        .(      CMP      r0,#0x10
        0x0800330c:    d815        ..      BHI      0x800333a ; gpio_toggle_init + 50
        0x0800330e:    2809        .(      CMP      r0,#9
        0x08003310:    d807        ..      BHI      0x8003322 ; gpio_toggle_init + 26
        0x08003312:    b2c1        ..      UXTB     r1,r0
        0x08003314:    2201        ."      MOVS     r2,#1
        0x08003316:    408a        .@      LSLS     r2,r2,r1
        0x08003318:    4909        .I      LDR      r1,[pc,#36] ; [0x8003340] = 0x40105030
        0x0800331a:    680b        .h      LDR      r3,[r1,#0]
        0x0800331c:    4313        .C      ORRS     r3,r3,r2
        0x0800331e:    600b        .`      STR      r3,[r1,#0]
        0x08003320:    e008        ..      B        0x8003334 ; gpio_toggle_init + 44
        0x08003322:    4601        .F      MOV      r1,r0
        0x08003324:    31f6        .1      ADDS     r1,r1,#0xf6
        0x08003326:    b2c9        ..      UXTB     r1,r1
        0x08003328:    2201        ."      MOVS     r2,#1
        0x0800332a:    408a        .@      LSLS     r2,r2,r1
        0x0800332c:    4903        .I      LDR      r1,[pc,#12] ; [0x800333c] = 0x4010384a
        0x0800332e:    780b        .x      LDRB     r3,[r1,#0]
        0x08003330:    4313        .C      ORRS     r3,r3,r2
        0x08003332:    700b        .p      STRB     r3,[r1,#0]
        0x08003334:    2101        .!      MOVS     r1,#1
        0x08003336:    f7fffde3    ....    BL       gpio_set_direction ; 0x8002f00
        0x0800333a:    bd80        ..      POP      {r7,pc}
    $d.43
    __arm_cp.22_0
        0x0800333c:    4010384a    J8.@    DCD    1074804810
    __arm_cp.22_1
        0x08003340:    40105030    0P.@    DCD    1074810928
    $t.44
    gpio_toggle
        0x08003344:    b510        ..      PUSH     {r4,lr}
        0x08003346:    2810        .(      CMP      r0,#0x10
        0x08003348:    d807        ..      BHI      0x800335a ; gpio_toggle + 22
        0x0800334a:    4604        .F      MOV      r4,r0
        0x0800334c:    f7fffdfc    ....    BL       gpio_get_value ; 0x8002f48
        0x08003350:    2101        .!      MOVS     r1,#1
        0x08003352:    4041        A@      EORS     r1,r1,r0
        0x08003354:    4620         F      MOV      r0,r4
        0x08003356:    f7fffe0d    ....    BL       gpio_set_value ; 0x8002f74
        0x0800335a:    bd10        ..      POP      {r4,pc}
    timer_init
        0x0800335c:    00c0        ..      LSLS     r0,r0,#3
        0x0800335e:    4a09        .J      LDR      r2,[pc,#36] ; [0x8003384] = 0x20001064
        0x08003360:    1810        ..      ADDS     r0,r2,r0
        0x08003362:    6840        @h      LDR      r0,[r0,#4]
        0x08003364:    6802        .h      LDR      r2,[r0,#0]
        0x08003366:    2904        .)      CMP      r1,#4
        0x08003368:    d102        ..      BNE      0x8003370 ; timer_init + 20
        0x0800336a:    2106        .!      MOVS     r1,#6
        0x0800336c:    438a        .C      BICS     r2,r2,r1
        0x0800336e:    e007        ..      B        0x8003380 ; timer_init + 36
        0x08003370:    2330        0#      MOVS     r3,#0x30
        0x08003372:    439a        .C      BICS     r2,r2,r3
        0x08003374:    6002        .`      STR      r2,[r0,#0]
        0x08003376:    0109        ..      LSLS     r1,r1,#4
        0x08003378:    6803        .h      LDR      r3,[r0,#0]
        0x0800337a:    430b        .C      ORRS     r3,r3,r1
        0x0800337c:    2206        ."      MOVS     r2,#6
        0x0800337e:    431a        .C      ORRS     r2,r2,r3
        0x08003380:    6002        .`      STR      r2,[r0,#0]
        0x08003382:    4770        pG      BX       lr
    $d.1
    __arm_cp.0_0
        0x08003384:    20001064    d..     DCD    536875108
    $t.2
    timer_irq_enable
        0x08003388:    00c1        ..      LSLS     r1,r0,#3
        0x0800338a:    4a09        .J      LDR      r2,[pc,#36] ; [0x80033b0] = 0x20001064
        0x0800338c:    1851        Q.      ADDS     r1,r2,r1
        0x0800338e:    6849        Ih      LDR      r1,[r1,#4]
        0x08003390:    680a        .h      LDR      r2,[r1,#0]
        0x08003392:    2308        .#      MOVS     r3,#8
        0x08003394:    4313        .C      ORRS     r3,r3,r2
        0x08003396:    600b        .`      STR      r3,[r1,#0]
        0x08003398:    b241        A.      SXTB     r1,r0
        0x0800339a:    2900        .)      CMP      r1,#0
        0x0800339c:    db07        ..      BLT      0x80033ae ; timer_irq_enable + 38
        0x0800339e:    211f        .!      MOVS     r1,#0x1f
        0x080033a0:    4008        .@      ANDS     r0,r0,r1
        0x080033a2:    2101        .!      MOVS     r1,#1
        0x080033a4:    4081        .@      LSLS     r1,r1,r0
        0x080033a6:    4803        .H      LDR      r0,[pc,#12] ; [0x80033b4] = 0xe000e280
        0x080033a8:    6001        .`      STR      r1,[r0,#0]
        0x080033aa:    4803        .H      LDR      r0,[pc,#12] ; [0x80033b8] = 0xe000e100
        0x080033ac:    6001        .`      STR      r1,[r0,#0]
        0x080033ae:    4770        pG      BX       lr
    $d.3
    __arm_cp.1_0
        0x080033b0:    20001064    d..     DCD    536875108
    __arm_cp.1_1
        0x080033b4:    e000e280    ....    DCD    3758154368
    __arm_cp.1_2
        0x080033b8:    e000e100    ....    DCD    3758153984
    $t.4
    timer_irq_disable
        0x080033bc:    00c1        ..      LSLS     r1,r0,#3
        0x080033be:    4a0a        .J      LDR      r2,[pc,#40] ; [0x80033e8] = 0x20001064
        0x080033c0:    1851        Q.      ADDS     r1,r2,r1
        0x080033c2:    6849        Ih      LDR      r1,[r1,#4]
        0x080033c4:    680a        .h      LDR      r2,[r1,#0]
        0x080033c6:    2308        .#      MOVS     r3,#8
        0x080033c8:    439a        .C      BICS     r2,r2,r3
        0x080033ca:    600a        .`      STR      r2,[r1,#0]
        0x080033cc:    b241        A.      SXTB     r1,r0
        0x080033ce:    2900        .)      CMP      r1,#0
        0x080033d0:    db09        ..      BLT      0x80033e6 ; timer_irq_disable + 42
        0x080033d2:    211f        .!      MOVS     r1,#0x1f
        0x080033d4:    4008        .@      ANDS     r0,r0,r1
        0x080033d6:    2101        .!      MOVS     r1,#1
        0x080033d8:    4081        .@      LSLS     r1,r1,r0
        0x080033da:    4804        .H      LDR      r0,[pc,#16] ; [0x80033ec] = 0xe000e180
        0x080033dc:    6001        .`      STR      r1,[r0,#0]
        0x080033de:    f3bf8f4f    ..O.    DSB      
        0x080033e2:    f3bf8f6f    ..o.    ISB      
        0x080033e6:    4770        pG      BX       lr
    $d.5
    __arm_cp.2_0
        0x080033e8:    20001064    d..     DCD    536875108
    __arm_cp.2_1
        0x080033ec:    e000e180    ....    DCD    3758154112
    $t.6
    timer_start
        0x080033f0:    00c0        ..      LSLS     r0,r0,#3
        0x080033f2:    4904        .I      LDR      r1,[pc,#16] ; [0x8003404] = 0x20001064
        0x080033f4:    1808        ..      ADDS     r0,r1,r0
        0x080033f6:    6840        @h      LDR      r0,[r0,#4]
        0x080033f8:    6801        .h      LDR      r1,[r0,#0]
        0x080033fa:    2201        ."      MOVS     r2,#1
        0x080033fc:    430a        .C      ORRS     r2,r2,r1
        0x080033fe:    6002        .`      STR      r2,[r0,#0]
        0x08003400:    4770        pG      BX       lr
        0x08003402:    46c0        .F      MOV      r8,r8
    $d.7
    __arm_cp.3_0
        0x08003404:    20001064    d..     DCD    536875108
    $t.8
    timer_stop
        0x08003408:    00c0        ..      LSLS     r0,r0,#3
        0x0800340a:    4904        .I      LDR      r1,[pc,#16] ; [0x800341c] = 0x20001064
        0x0800340c:    1808        ..      ADDS     r0,r1,r0
        0x0800340e:    6840        @h      LDR      r0,[r0,#4]
        0x08003410:    6801        .h      LDR      r1,[r0,#0]
        0x08003412:    2201        ."      MOVS     r2,#1
        0x08003414:    4391        .C      BICS     r1,r1,r2
        0x08003416:    6001        .`      STR      r1,[r0,#0]
        0x08003418:    4770        pG      BX       lr
        0x0800341a:    46c0        .F      MOV      r8,r8
    $d.9
    __arm_cp.4_0
        0x0800341c:    20001064    d..     DCD    536875108
    $t.10
    timer_value_get
        0x08003420:    00c0        ..      LSLS     r0,r0,#3
        0x08003422:    4902        .I      LDR      r1,[pc,#8] ; [0x800342c] = 0x20001064
        0x08003424:    1808        ..      ADDS     r0,r1,r0
        0x08003426:    6840        @h      LDR      r0,[r0,#4]
        0x08003428:    6840        @h      LDR      r0,[r0,#4]
        0x0800342a:    4770        pG      BX       lr
    $d.11
    __arm_cp.5_0
        0x0800342c:    20001064    d..     DCD    536875108
    $t.12
    timer_value_set
        0x08003430:    00c0        ..      LSLS     r0,r0,#3
        0x08003432:    4a02        .J      LDR      r2,[pc,#8] ; [0x800343c] = 0x20001064
        0x08003434:    1810        ..      ADDS     r0,r2,r0
        0x08003436:    6840        @h      LDR      r0,[r0,#4]
        0x08003438:    6041        A`      STR      r1,[r0,#4]
        0x0800343a:    4770        pG      BX       lr
    $d.13
    __arm_cp.6_0
        0x0800343c:    20001064    d..     DCD    536875108
    $t.14
    timer_reload_get
        0x08003440:    00c0        ..      LSLS     r0,r0,#3
        0x08003442:    4902        .I      LDR      r1,[pc,#8] ; [0x800344c] = 0x20001064
        0x08003444:    1808        ..      ADDS     r0,r1,r0
        0x08003446:    6840        @h      LDR      r0,[r0,#4]
        0x08003448:    6880        .h      LDR      r0,[r0,#8]
        0x0800344a:    4770        pG      BX       lr
    $d.15
    __arm_cp.7_0
        0x0800344c:    20001064    d..     DCD    536875108
    $t.16
    timer_reload_set
        0x08003450:    00c0        ..      LSLS     r0,r0,#3
        0x08003452:    4a02        .J      LDR      r2,[pc,#8] ; [0x800345c] = 0x20001064
        0x08003454:    1810        ..      ADDS     r0,r2,r0
        0x08003456:    6840        @h      LDR      r0,[r0,#4]
        0x08003458:    6081        .`      STR      r1,[r0,#8]
        0x0800345a:    4770        pG      BX       lr
    $d.17
    __arm_cp.8_0
        0x0800345c:    20001064    d..     DCD    536875108
    $t.18
    timer_irq_clear
        0x08003460:    00c0        ..      LSLS     r0,r0,#3
        0x08003462:    4903        .I      LDR      r1,[pc,#12] ; [0x8003470] = 0x20001064
        0x08003464:    1808        ..      ADDS     r0,r1,r0
        0x08003466:    6840        @h      LDR      r0,[r0,#4]
        0x08003468:    2101        .!      MOVS     r1,#1
        0x0800346a:    60c1        .`      STR      r1,[r0,#0xc]
        0x0800346c:    4770        pG      BX       lr
        0x0800346e:    46c0        .F      MOV      r8,r8
    $d.19
    __arm_cp.9_0
        0x08003470:    20001064    d..     DCD    536875108
    $t.20
    timer_irq_status
        0x08003474:    00c0        ..      LSLS     r0,r0,#3
        0x08003476:    4902        .I      LDR      r1,[pc,#8] ; [0x8003480] = 0x20001064
        0x08003478:    1808        ..      ADDS     r0,r1,r0
        0x0800347a:    6840        @h      LDR      r0,[r0,#4]
        0x0800347c:    68c0        .h      LDR      r0,[r0,#0xc]
        0x0800347e:    4770        pG      BX       lr
    $d.21
    __arm_cp.10_0
        0x08003480:    20001064    d..     DCD    536875108
    $t.22
    timer_cb_set
        0x08003484:    00c0        ..      LSLS     r0,r0,#3
        0x08003486:    4a01        .J      LDR      r2,[pc,#4] ; [0x800348c] = 0x20001064
        0x08003488:    5011        .P      STR      r1,[r2,r0]
        0x0800348a:    4770        pG      BX       lr
    $d.23
    __arm_cp.11_0
        0x0800348c:    20001064    d..     DCD    536875108
    $t.24
    timer_isr
        0x08003490:    b5b0        ..      PUSH     {r4,r5,r7,lr}
        0x08003492:    00c4        ..      LSLS     r4,r0,#3
        0x08003494:    4d05        .M      LDR      r5,[pc,#20] ; [0x80034ac] = 0x20001064
        0x08003496:    5929        )Y      LDR      r1,[r5,r4]
        0x08003498:    2900        .)      CMP      r1,#0
        0x0800349a:    d001        ..      BEQ      0x80034a0 ; timer_isr + 16
        0x0800349c:    2000        .       MOVS     r0,#0
        0x0800349e:    4788        .G      BLX      r1
        0x080034a0:    1928        (.      ADDS     r0,r5,r4
        0x080034a2:    6840        @h      LDR      r0,[r0,#4]
        0x080034a4:    2101        .!      MOVS     r1,#1
        0x080034a6:    60c1        .`      STR      r1,[r0,#0xc]
        0x080034a8:    bdb0        ..      POP      {r4,r5,r7,pc}
        0x080034aa:    46c0        .F      MOV      r8,r8
    $d.25
    __arm_cp.12_0
        0x080034ac:    20001064    d..     DCD    536875108
    $t.0
    dualtimer_init
        0x080034b0:    b580        ..      PUSH     {r7,lr}
        0x080034b2:    f7fffb7d    ..}.    BL       sys_clk_enable_dualtimer ; 0x8002bb0
        0x080034b6:    bd80        ..      POP      {r7,pc}
    dualtimer_deinit
        0x080034b8:    b580        ..      PUSH     {r7,lr}
        0x080034ba:    2080        .       MOVS     r0,#0x80
        0x080034bc:    43c0        .C      MVNS     r0,r0
        0x080034be:    4906        .I      LDR      r1,[pc,#24] ; [0x80034d8] = 0x20001050
        0x080034c0:    684a        Jh      LDR      r2,[r1,#4]
        0x080034c2:    6893        .h      LDR      r3,[r2,#8]
        0x080034c4:    4003        .@      ANDS     r3,r3,r0
        0x080034c6:    6093        .`      STR      r3,[r2,#8]
        0x080034c8:    68c9        .h      LDR      r1,[r1,#0xc]
        0x080034ca:    688a        .h      LDR      r2,[r1,#8]
        0x080034cc:    4002        .@      ANDS     r2,r2,r0
        0x080034ce:    608a        .`      STR      r2,[r1,#8]
        0x080034d0:    f7fffb7a    ..z.    BL       sys_clk_disable_dualtimer ; 0x8002bc8
        0x080034d4:    bd80        ..      POP      {r7,pc}
        0x080034d6:    46c0        .F      MOV      r8,r8
    $d.1
    __arm_cp.1_0
        0x080034d8:    20001050    P..     DCD    536875088
    $t.2
    dualtimer_get_default_config
        0x080034dc:    2100        .!      MOVS     r1,#0
        0x080034de:    4a02        .J      LDR      r2,[pc,#8] ; [0x80034e8] = 0x1000102
        0x080034e0:    6002        .`      STR      r2,[r0,#0]
        0x080034e2:    6041        A`      STR      r1,[r0,#4]
        0x080034e4:    4770        pG      BX       lr
        0x080034e6:    46c0        .F      MOV      r8,r8
    $d.3
    __arm_cp.2_0
        0x080034e8:    01000102    ....    DCD    16777474
    $t.4
    dualtimer_set_config
        0x080034ec:    b570        p.      PUSH     {r4-r6,lr}
        0x080034ee:    00c9        ..      LSLS     r1,r1,#3
        0x080034f0:    4a0c        .J      LDR      r2,[pc,#48] ; [0x8003524] = 0x20001050
        0x080034f2:    1851        Q.      ADDS     r1,r2,r1
        0x080034f4:    6849        Ih      LDR      r1,[r1,#4]
        0x080034f6:    7842        Bx      LDRB     r2,[r0,#1]
        0x080034f8:    78c3        .x      LDRB     r3,[r0,#3]
        0x080034fa:    7884        .x      LDRB     r4,[r0,#2]
        0x080034fc:    7805        .x      LDRB     r5,[r0,#0]
        0x080034fe:    6840        @h      LDR      r0,[r0,#4]
        0x08003500:    6008        .`      STR      r0,[r1,#0]
        0x08003502:    1eae        ..      SUBS     r6,r5,#2
        0x08003504:    4270        pB      RSBS     r0,r6,#0
        0x08003506:    4170        pA      ADCS     r0,r0,r6
        0x08003508:    2d00        .-      CMP      r5,#0
        0x0800350a:    d001        ..      BEQ      0x8003510 ; dualtimer_set_config + 36
        0x0800350c:    0180        ..      LSLS     r0,r0,#6
        0x0800350e:    e000        ..      B        0x8003512 ; dualtimer_set_config + 38
        0x08003510:    2041        A       MOVS     r0,#0x41
        0x08003512:    00a4        ..      LSLS     r4,r4,#2
        0x08003514:    4304        .C      ORRS     r4,r4,r0
        0x08003516:    0758        X.      LSLS     r0,r3,#29
        0x08003518:    0e00        ..      LSRS     r0,r0,#24
        0x0800351a:    4320         C      ORRS     r0,r0,r4
        0x0800351c:    0052        R.      LSLS     r2,r2,#1
        0x0800351e:    4302        .C      ORRS     r2,r2,r0
        0x08003520:    608a        .`      STR      r2,[r1,#8]
        0x08003522:    bd70        p.      POP      {r4-r6,pc}
    $d.5
    __arm_cp.3_0
        0x08003524:    20001050    P..     DCD    536875088
    $t.6
    dualtimer_set_load
        0x08003528:    00c0        ..      LSLS     r0,r0,#3
        0x0800352a:    4b04        .K      LDR      r3,[pc,#16] ; [0x800353c] = 0x20001050
        0x0800352c:    1818        ..      ADDS     r0,r3,r0
        0x0800352e:    6840        @h      LDR      r0,[r0,#4]
        0x08003530:    2900        .)      CMP      r1,#0
        0x08003532:    d000        ..      BEQ      0x8003536 ; dualtimer_set_load + 14
        0x08003534:    3018        .0      ADDS     r0,r0,#0x18
        0x08003536:    6002        .`      STR      r2,[r0,#0]
        0x08003538:    4770        pG      BX       lr
        0x0800353a:    46c0        .F      MOV      r8,r8
    $d.7
    __arm_cp.4_0
        0x0800353c:    20001050    P..     DCD    536875088
    $t.8
    dualtimer_start
        0x08003540:    00c0        ..      LSLS     r0,r0,#3
        0x08003542:    4904        .I      LDR      r1,[pc,#16] ; [0x8003554] = 0x20001050
        0x08003544:    1808        ..      ADDS     r0,r1,r0
        0x08003546:    6840        @h      LDR      r0,[r0,#4]
        0x08003548:    6881        .h      LDR      r1,[r0,#8]
        0x0800354a:    2280        ."      MOVS     r2,#0x80
        0x0800354c:    430a        .C      ORRS     r2,r2,r1
        0x0800354e:    6082        .`      STR      r2,[r0,#8]
        0x08003550:    4770        pG      BX       lr
        0x08003552:    46c0        .F      MOV      r8,r8
    $d.9
    __arm_cp.5_0
        0x08003554:    20001050    P..     DCD    536875088
    $t.10
    dualtimer_stop
        0x08003558:    00c0        ..      LSLS     r0,r0,#3
        0x0800355a:    4904        .I      LDR      r1,[pc,#16] ; [0x800356c] = 0x20001050
        0x0800355c:    1808        ..      ADDS     r0,r1,r0
        0x0800355e:    6840        @h      LDR      r0,[r0,#4]
        0x08003560:    6881        .h      LDR      r1,[r0,#8]
        0x08003562:    2280        ."      MOVS     r2,#0x80
        0x08003564:    4391        .C      BICS     r1,r1,r2
        0x08003566:    6081        .`      STR      r1,[r0,#8]
        0x08003568:    4770        pG      BX       lr
        0x0800356a:    46c0        .F      MOV      r8,r8
    $d.11
    __arm_cp.6_0
        0x0800356c:    20001050    P..     DCD    536875088
    $t.12
    dualtimer_irq_clear
        0x08003570:    00c0        ..      LSLS     r0,r0,#3
        0x08003572:    4903        .I      LDR      r1,[pc,#12] ; [0x8003580] = 0x20001050
        0x08003574:    1808        ..      ADDS     r0,r1,r0
        0x08003576:    6840        @h      LDR      r0,[r0,#4]
        0x08003578:    2101        .!      MOVS     r1,#1
        0x0800357a:    60c1        .`      STR      r1,[r0,#0xc]
        0x0800357c:    4770        pG      BX       lr
        0x0800357e:    46c0        .F      MOV      r8,r8
    $d.13
    __arm_cp.7_0
        0x08003580:    20001050    P..     DCD    536875088
    $t.14
    dualtimer_get_value
        0x08003584:    00c0        ..      LSLS     r0,r0,#3
        0x08003586:    4902        .I      LDR      r1,[pc,#8] ; [0x8003590] = 0x20001050
        0x08003588:    1808        ..      ADDS     r0,r1,r0
        0x0800358a:    6840        @h      LDR      r0,[r0,#4]
        0x0800358c:    6840        @h      LDR      r0,[r0,#4]
        0x0800358e:    4770        pG      BX       lr
    $d.15
    __arm_cp.8_0
        0x08003590:    20001050    P..     DCD    536875088
    $t.16
    dualtimer_set_cb
        0x08003594:    00c0        ..      LSLS     r0,r0,#3
        0x08003596:    4a01        .J      LDR      r2,[pc,#4] ; [0x800359c] = 0x20001050
        0x08003598:    5011        .P      STR      r1,[r2,r0]
        0x0800359a:    4770        pG      BX       lr
    $d.17
    __arm_cp.9_0
        0x0800359c:    20001050    P..     DCD    536875088
    $t.18
    dualtimer_is_enabled
        0x080035a0:    00c0        ..      LSLS     r0,r0,#3
        0x080035a2:    4903        .I      LDR      r1,[pc,#12] ; [0x80035b0] = 0x20001050
        0x080035a4:    1808        ..      ADDS     r0,r1,r0
        0x080035a6:    6840        @h      LDR      r0,[r0,#4]
        0x080035a8:    6880        .h      LDR      r0,[r0,#8]
        0x080035aa:    b2c0        ..      UXTB     r0,r0
        0x080035ac:    09c0        ..      LSRS     r0,r0,#7
        0x080035ae:    4770        pG      BX       lr
    $d.19
    __arm_cp.10_0
        0x080035b0:    20001050    P..     DCD    536875088
    $t.20
    dualtimer_hdl_proc
        0x080035b4:    b510        ..      PUSH     {r4,lr}
        0x080035b6:    4c0b        .L      LDR      r4,[pc,#44] ; [0x80035e4] = 0x20001050
        0x080035b8:    6860        `h      LDR      r0,[r4,#4]
        0x080035ba:    6941        Ai      LDR      r1,[r0,#0x14]
        0x080035bc:    2900        .)      CMP      r1,#0
        0x080035be:    d005        ..      BEQ      0x80035cc ; dualtimer_hdl_proc + 24
        0x080035c0:    2101        .!      MOVS     r1,#1
        0x080035c2:    60c1        .`      STR      r1,[r0,#0xc]
        0x080035c4:    6820         h      LDR      r0,[r4,#0]
        0x080035c6:    2800        .(      CMP      r0,#0
        0x080035c8:    d000        ..      BEQ      0x80035cc ; dualtimer_hdl_proc + 24
        0x080035ca:    4780        .G      BLX      r0
        0x080035cc:    68e0        .h      LDR      r0,[r4,#0xc]
        0x080035ce:    6941        Ai      LDR      r1,[r0,#0x14]
        0x080035d0:    2900        .)      CMP      r1,#0
        0x080035d2:    d005        ..      BEQ      0x80035e0 ; dualtimer_hdl_proc + 44
        0x080035d4:    2101        .!      MOVS     r1,#1
        0x080035d6:    60c1        .`      STR      r1,[r0,#0xc]
        0x080035d8:    68a0        .h      LDR      r0,[r4,#8]
        0x080035da:    2800        .(      CMP      r0,#0
        0x080035dc:    d000        ..      BEQ      0x80035e0 ; dualtimer_hdl_proc + 44
        0x080035de:    4780        .G      BLX      r0
        0x080035e0:    bd10        ..      POP      {r4,pc}
        0x080035e2:    46c0        .F      MOV      r8,r8
    $d.21
    __arm_cp.11_0
        0x080035e4:    20001050    P..     DCD    536875088
    $t.0
    output_dma_config
        0x080035e8:    b570        p.      PUSH     {r4-r6,lr}
        0x080035ea:    4e18        .N      LDR      r6,[pc,#96] ; [0x800364c] = 0x200012d8
        0x080035ec:    4818        .H      LDR      r0,[pc,#96] ; [0x8003650] = 0x1000203
        0x080035ee:    2500        .%      MOVS     r5,#0
        0x080035f0:    7035        5p      STRB     r5,[r6,#0]
        0x080035f2:    21e1        .!      MOVS     r1,#0xe1
        0x080035f4:    0309        ..      LSLS     r1,r1,#12
        0x080035f6:    6071        q`      STR      r1,[r6,#4]
        0x080035f8:    60b0        .`      STR      r0,[r6,#8]
        0x080035fa:    7bf0        .{      LDRB     r0,[r6,#0xf]
        0x080035fc:    2107        .!      MOVS     r1,#7
        0x080035fe:    4301        .C      ORRS     r1,r1,r0
        0x08003600:    73f1        .s      STRB     r1,[r6,#0xf]
        0x08003602:    1d31        1.      ADDS     r1,r6,#4
        0x08003604:    4628        (F      MOV      r0,r5
        0x08003606:    f7fdf975    ..u.    BL       hal_uart_init ; 0x80008f4
        0x0800360a:    4c12        .L      LDR      r4,[pc,#72] ; [0x8003654] = 0x200011c0
        0x0800360c:    6134        4a      STR      r4,[r6,#0x10]
        0x0800360e:    6466        fd      STR      r6,[r4,#0x44]
        0x08003610:    1d20         .      ADDS     r0,r4,#4
        0x08003612:    f7fefc6f    ..o.    BL       hal_dma_init_struct_init ; 0x8001ef4
        0x08003616:    2001        .       MOVS     r0,#1
        0x08003618:    60a0        .`      STR      r0,[r4,#8]
        0x0800361a:    6065        e`      STR      r5,[r4,#4]
        0x0800361c:    480e        .H      LDR      r0,[pc,#56] ; [0x8003658] = 0x40100000
        0x0800361e:    6020         `      STR      r0,[r4,#0]
        0x08003620:    6960        `i      LDR      r0,[r4,#0x14]
        0x08003622:    2117        .!      MOVS     r1,#0x17
        0x08003624:    4388        .C      BICS     r0,r0,r1
        0x08003626:    6160        `a      STR      r0,[r4,#0x14]
        0x08003628:    8b60        `.      LDRH     r0,[r4,#0x1a]
        0x0800362a:    0400        ..      LSLS     r0,r0,#16
        0x0800362c:    61a0        .a      STR      r0,[r4,#0x18]
        0x0800362e:    68e0        .h      LDR      r0,[r4,#0xc]
        0x08003630:    490a        .I      LDR      r1,[pc,#40] ; [0x800365c] = 0xff8e0000
        0x08003632:    4001        .@      ANDS     r1,r1,r0
        0x08003634:    480a        .H      LDR      r0,[pc,#40] ; [0x8003660] = 0x100100
        0x08003636:    1808        ..      ADDS     r0,r1,r0
        0x08003638:    60e0        .`      STR      r0,[r4,#0xc]
        0x0800363a:    f7fffb2b    ..+.    BL       sys_clk_disable_dma ; 0x8002c94
        0x0800363e:    f7fffb1d    ....    BL       sys_clk_enable_dma ; 0x8002c7c
        0x08003642:    4620         F      MOV      r0,r4
        0x08003644:    f7fef88a    ....    BL       hal_dma_init ; 0x800175c
        0x08003648:    bd70        p.      POP      {r4-r6,pc}
        0x0800364a:    46c0        .F      MOV      r8,r8
    $d.1
    __arm_cp.0_0
        0x0800364c:    200012d8    ...     DCD    536875736
    __arm_cp.0_1
        0x08003650:    01000203    ....    DCD    16777731
    __arm_cp.0_2
        0x08003654:    200011c0    ...     DCD    536875456
    __arm_cp.0_3
        0x08003658:    40100000    ...@    DCD    1074790400
    __arm_cp.0_4
        0x0800365c:    ff8e0000    ....    DCD    4287496192
    __arm_cp.0_5
        0x08003660:    00100100    ....    DCD    1048832
    $t.2
    output_port_send_data
        0x08003664:    b5f0        ..      PUSH     {r4-r7,lr}
        0x08003666:    b081        ..      SUB      sp,sp,#4
        0x08003668:    460e        .F      MOV      r6,r1
        0x0800366a:    4604        .F      MOV      r4,r0
        0x0800366c:    0b08        ..      LSRS     r0,r1,#12
        0x0800366e:    d016        ..      BEQ      0x800369e ; output_port_send_data + 58
        0x08003670:    4915        .I      LDR      r1,[pc,#84] ; [0x80036c8] = 0x7ff
        0x08003672:    4630        0F      MOV      r0,r6
        0x08003674:    4008        .@      ANDS     r0,r0,r1
        0x08003676:    9000        ..      STR      r0,[sp,#0]
        0x08003678:    0af0        ..      LSRS     r0,r6,#11
        0x0800367a:    d016        ..      BEQ      0x80036aa ; output_port_send_data + 70
        0x0800367c:    4245        EB      RSBS     r5,r0,#0
        0x0800367e:    2700        .'      MOVS     r7,#0
        0x08003680:    460e        .F      MOV      r6,r1
        0x08003682:    f000f823    ..#.    BL       wait_output_dma_done ; 0x80036cc
        0x08003686:    19e1        ..      ADDS     r1,r4,r7
        0x08003688:    2001        .       MOVS     r0,#1
        0x0800368a:    02c2        ..      LSLS     r2,r0,#11
        0x0800368c:    480d        .H      LDR      r0,[pc,#52] ; [0x80036c4] = 0x200012d8
        0x0800368e:    f7fdfa39    ..9.    BL       hal_uart_transmit_dma ; 0x8000b04
        0x08003692:    4631        1F      MOV      r1,r6
        0x08003694:    19b8        ..      ADDS     r0,r7,r6
        0x08003696:    1c47        G.      ADDS     r7,r0,#1
        0x08003698:    1c6d        m.      ADDS     r5,r5,#1
        0x0800369a:    d1f1        ..      BNE      0x8003680 ; output_port_send_data + 28
        0x0800369c:    e006        ..      B        0x80036ac ; output_port_send_data + 72
        0x0800369e:    f000f815    ....    BL       wait_output_dma_done ; 0x80036cc
        0x080036a2:    b2b2        ..      UXTH     r2,r6
        0x080036a4:    4807        .H      LDR      r0,[pc,#28] ; [0x80036c4] = 0x200012d8
        0x080036a6:    4621        !F      MOV      r1,r4
        0x080036a8:    e008        ..      B        0x80036bc ; output_port_send_data + 88
        0x080036aa:    2700        .'      MOVS     r7,#0
        0x080036ac:    9d00        ..      LDR      r5,[sp,#0]
        0x080036ae:    2d00        .-      CMP      r5,#0
        0x080036b0:    d006        ..      BEQ      0x80036c0 ; output_port_send_data + 92
        0x080036b2:    f000f80b    ....    BL       wait_output_dma_done ; 0x80036cc
        0x080036b6:    1939        9.      ADDS     r1,r7,r4
        0x080036b8:    4802        .H      LDR      r0,[pc,#8] ; [0x80036c4] = 0x200012d8
        0x080036ba:    462a        *F      MOV      r2,r5
        0x080036bc:    f7fdfa22    ..".    BL       hal_uart_transmit_dma ; 0x8000b04
        0x080036c0:    b001        ..      ADD      sp,sp,#4
        0x080036c2:    bdf0        ..      POP      {r4-r7,pc}
    $d.3
    __arm_cp.1_0
        0x080036c4:    200012d8    ...     DCD    536875736
    __arm_cp.1_1
        0x080036c8:    000007ff    ....    DCD    2047
    $t.4
    wait_output_dma_done
        0x080036cc:    b510        ..      PUSH     {r4,lr}
        0x080036ce:    4c08        .L      LDR      r4,[pc,#32] ; [0x80036f0] = 0x200012d8
        0x080036d0:    6920         i      LDR      r0,[r4,#0x10]
        0x080036d2:    f7feff59    ..Y.    BL       hal_dma_get_state ; 0x8002588
        0x080036d6:    2802        .(      CMP      r0,#2
        0x080036d8:    d103        ..      BNE      0x80036e2 ; wait_output_dma_done + 22
        0x080036da:    6920         i      LDR      r0,[r4,#0x10]
        0x080036dc:    2164        d!      MOVS     r1,#0x64
        0x080036de:    f7fefd0d    ....    BL       hal_dma_poll_transfer ; 0x80020fc
        0x080036e2:    6920         i      LDR      r0,[r4,#0x10]
        0x080036e4:    f7feff50    ..P.    BL       hal_dma_get_state ; 0x8002588
        0x080036e8:    2801        .(      CMP      r0,#1
        0x080036ea:    d1fa        ..      BNE      0x80036e2 ; wait_output_dma_done + 22
        0x080036ec:    bd10        ..      POP      {r4,pc}
        0x080036ee:    46c0        .F      MOV      r8,r8
    $d.5
    __arm_cp.2_0
        0x080036f0:    200012d8    ...     DCD    536875736
    $t.0
    write_data_frame_header
        0x080036f4:    b5f0        ..      PUSH     {r4-r7,lr}
        0x080036f6:    b081        ..      SUB      sp,sp,#4
        0x080036f8:    4604        .F      MOV      r4,r0
        0x080036fa:    2501        .%      MOVS     r5,#1
        0x080036fc:    73c5        .s      STRB     r5,[r0,#0xf]
        0x080036fe:    7385        .s      STRB     r5,[r0,#0xe]
        0x08003700:    7345        Es      STRB     r5,[r0,#0xd]
        0x08003702:    7305        .s      STRB     r5,[r0,#0xc]
        0x08003704:    2019        .       MOVS     r0,#0x19
        0x08003706:    74a0        .t      STRB     r0,[r4,#0x12]
        0x08003708:    2600        .&      MOVS     r6,#0
        0x0800370a:    7466        ft      STRB     r6,[r4,#0x11]
        0x0800370c:    20ff        .       MOVS     r0,#0xff
        0x0800370e:    7420         t      STRB     r0,[r4,#0x10]
        0x08003710:    4811        .H      LDR      r0,[pc,#68] ; [0x8003758] = 0x846003c
        0x08003712:    4912        .I      LDR      r1,[pc,#72] ; [0x800375c] = 0x62027fff
        0x08003714:    6021        !`      STR      r1,[r4,#0]
        0x08003716:    6060        ``      STR      r0,[r4,#4]
        0x08003718:    60a6        .`      STR      r6,[r4,#8]
        0x0800371a:    4620         F      MOV      r0,r4
        0x0800371c:    3013        .0      ADDS     r0,r0,#0x13
        0x0800371e:    2121        !!      MOVS     r1,#0x21
        0x08003720:    f000f9c1    ....    BL       __aeabi_memclr ; 0x8003aa6
        0x08003724:    2037        7       MOVS     r0,#0x37
        0x08003726:    213c        <!      MOVS     r1,#0x3c
        0x08003728:    5421        !T      STRB     r1,[r4,r0]
        0x0800372a:    2036        6       MOVS     r0,#0x36
        0x0800372c:    22c4        ."      MOVS     r2,#0xc4
        0x0800372e:    5422        "T      STRB     r2,[r4,r0]
        0x08003730:    2035        5       MOVS     r0,#0x35
        0x08003732:    5421        !T      STRB     r1,[r4,r0]
        0x08003734:    2034        4       MOVS     r0,#0x34
        0x08003736:    5422        "T      STRB     r2,[r4,r0]
        0x08003738:    4809        .H      LDR      r0,[pc,#36] ; [0x8003760] = 0x400001
        0x0800373a:    7565        eu      STRB     r5,[r4,#0x15]
        0x0800373c:    2164        d!      MOVS     r1,#0x64
        0x0800373e:    4a09        .J      LDR      r2,[pc,#36] ; [0x8003764] = 0x3e803e8
        0x08003740:    4b09        .K      LDR      r3,[pc,#36] ; [0x8003768] = 0xbb80002
        0x08003742:    4d0a        .M      LDR      r5,[pc,#40] ; [0x800376c] = 0x27109e34
        0x08003744:    4f0a        .O      LDR      r7,[pc,#40] ; [0x8003770] = 0x989680
        0x08003746:    63a0        .c      STR      r0,[r4,#0x38]
        0x08003748:    63e6        .c      STR      r6,[r4,#0x3c]
        0x0800374a:    6427        'd      STR      r7,[r4,#0x40]
        0x0800374c:    6465        ed      STR      r5,[r4,#0x44]
        0x0800374e:    64a3        .d      STR      r3,[r4,#0x48]
        0x08003750:    64e2        .d      STR      r2,[r4,#0x4c]
        0x08003752:    6521        !e      STR      r1,[r4,#0x50]
        0x08003754:    b001        ..      ADD      sp,sp,#4
        0x08003756:    bdf0        ..      POP      {r4-r7,pc}
    $d.1
    __arm_cp.0_0
        0x08003758:    0846003c    <.F.    DCD    138805308
    __arm_cp.0_1
        0x0800375c:    62027fff    ...b    DCD    1644331007
    __arm_cp.0_2
        0x08003760:    00400001    ..@.    DCD    4194305
    __arm_cp.0_3
        0x08003764:    03e803e8    ....    DCD    65537000
    __arm_cp.0_4
        0x08003768:    0bb80002    ....    DCD    196608002
    __arm_cp.0_5
        0x0800376c:    27109e34    4..'    DCD    655400500
    __arm_cp.0_6
        0x08003770:    00989680    ....    DCD    10000000
    $t
    .text
    __use_no_semihosting
        0x08003774:    4770        pG      BX       lr
    .text
    __aeabi_uldivmod
    _ll_udiv
        0x08003776:    b5fe        ..      PUSH     {r1-r7,lr}
        0x08003778:    4605        .F      MOV      r5,r0
        0x0800377a:    4610        .F      MOV      r0,r2
        0x0800377c:    460c        .F      MOV      r4,r1
        0x0800377e:    4318        .C      ORRS     r0,r0,r3
        0x08003780:    d073        s.      BEQ      0x800386a ; __aeabi_uldivmod + 244
        0x08003782:    46ae        .F      MOV      lr,r5
        0x08003784:    468c        .F      MOV      r12,r1
        0x08003786:    2000        .       MOVS     r0,#0
        0x08003788:    1aad        ..      SUBS     r5,r5,r2
        0x0800378a:    4601        .F      MOV      r1,r0
        0x0800378c:    419c        .A      SBCS     r4,r4,r3
        0x0800378e:    d367        g.      BCC      0x8003860 ; __aeabi_uldivmod + 234
        0x08003790:    4666        fF      MOV      r6,r12
        0x08003792:    2700        .'      MOVS     r7,#0
        0x08003794:    2401        .$      MOVS     r4,#1
        0x08003796:    463d        =F      MOV      r5,r7
        0x08003798:    1ab6        ..      SUBS     r6,r6,r2
        0x0800379a:    419d        .A      SBCS     r5,r5,r3
        0x0800379c:    d302        ..      BCC      0x80037a4 ; __aeabi_uldivmod + 46
        0x0800379e:    4613        .F      MOV      r3,r2
        0x080037a0:    463a        :F      MOV      r2,r7
        0x080037a2:    2421        !$      MOVS     r4,#0x21
        0x080037a4:    4665        eF      MOV      r5,r12
        0x080037a6:    4676        vF      MOV      r6,lr
        0x080037a8:    042f        /.      LSLS     r7,r5,#16
        0x080037aa:    0c36        6.      LSRS     r6,r6,#16
        0x080037ac:    433e        >C      ORRS     r6,r6,r7
        0x080037ae:    0c2d        -.      LSRS     r5,r5,#16
        0x080037b0:    1ab6        ..      SUBS     r6,r6,r2
        0x080037b2:    419d        .A      SBCS     r5,r5,r3
        0x080037b4:    d304        ..      BCC      0x80037c0 ; __aeabi_uldivmod + 74
        0x080037b6:    0c15        ..      LSRS     r5,r2,#16
        0x080037b8:    041b        ..      LSLS     r3,r3,#16
        0x080037ba:    432b        +C      ORRS     r3,r3,r5
        0x080037bc:    0412        ..      LSLS     r2,r2,#16
        0x080037be:    3410        .4      ADDS     r4,r4,#0x10
        0x080037c0:    4665        eF      MOV      r5,r12
        0x080037c2:    4676        vF      MOV      r6,lr
        0x080037c4:    062f        /.      LSLS     r7,r5,#24
        0x080037c6:    0a36        6.      LSRS     r6,r6,#8
        0x080037c8:    433e        >C      ORRS     r6,r6,r7
        0x080037ca:    0a2d        -.      LSRS     r5,r5,#8
        0x080037cc:    1ab6        ..      SUBS     r6,r6,r2
        0x080037ce:    419d        .A      SBCS     r5,r5,r3
        0x080037d0:    d304        ..      BCC      0x80037dc ; __aeabi_uldivmod + 102
        0x080037d2:    0e15        ..      LSRS     r5,r2,#24
        0x080037d4:    021b        ..      LSLS     r3,r3,#8
        0x080037d6:    432b        +C      ORRS     r3,r3,r5
        0x080037d8:    0212        ..      LSLS     r2,r2,#8
        0x080037da:    3408        .4      ADDS     r4,r4,#8
        0x080037dc:    4665        eF      MOV      r5,r12
        0x080037de:    4676        vF      MOV      r6,lr
        0x080037e0:    072f        /.      LSLS     r7,r5,#28
        0x080037e2:    0936        6.      LSRS     r6,r6,#4
        0x080037e4:    433e        >C      ORRS     r6,r6,r7
        0x080037e6:    092d        -.      LSRS     r5,r5,#4
        0x080037e8:    1ab6        ..      SUBS     r6,r6,r2
        0x080037ea:    419d        .A      SBCS     r5,r5,r3
        0x080037ec:    d304        ..      BCC      0x80037f8 ; __aeabi_uldivmod + 130
        0x080037ee:    0f15        ..      LSRS     r5,r2,#28
        0x080037f0:    011b        ..      LSLS     r3,r3,#4
        0x080037f2:    432b        +C      ORRS     r3,r3,r5
        0x080037f4:    0112        ..      LSLS     r2,r2,#4
        0x080037f6:    1d24        $.      ADDS     r4,r4,#4
        0x080037f8:    4665        eF      MOV      r5,r12
        0x080037fa:    4676        vF      MOV      r6,lr
        0x080037fc:    07af        ..      LSLS     r7,r5,#30
        0x080037fe:    08b6        ..      LSRS     r6,r6,#2
        0x08003800:    433e        >C      ORRS     r6,r6,r7
        0x08003802:    08ad        ..      LSRS     r5,r5,#2
        0x08003804:    1ab6        ..      SUBS     r6,r6,r2
        0x08003806:    419d        .A      SBCS     r5,r5,r3
        0x08003808:    d304        ..      BCC      0x8003814 ; __aeabi_uldivmod + 158
        0x0800380a:    0f95        ..      LSRS     r5,r2,#30
        0x0800380c:    009b        ..      LSLS     r3,r3,#2
        0x0800380e:    432b        +C      ORRS     r3,r3,r5
        0x08003810:    0092        ..      LSLS     r2,r2,#2
        0x08003812:    1ca4        ..      ADDS     r4,r4,#2
        0x08003814:    4665        eF      MOV      r5,r12
        0x08003816:    4676        vF      MOV      r6,lr
        0x08003818:    07ef        ..      LSLS     r7,r5,#31
        0x0800381a:    0876        v.      LSRS     r6,r6,#1
        0x0800381c:    433e        >C      ORRS     r6,r6,r7
        0x0800381e:    086d        m.      LSRS     r5,r5,#1
        0x08003820:    1ab6        ..      SUBS     r6,r6,r2
        0x08003822:    419d        .A      SBCS     r5,r5,r3
        0x08003824:    d31a        ..      BCC      0x800385c ; __aeabi_uldivmod + 230
        0x08003826:    1892        ..      ADDS     r2,r2,r2
        0x08003828:    415b        [A      ADCS     r3,r3,r3
        0x0800382a:    1c64        d.      ADDS     r4,r4,#1
        0x0800382c:    e016        ..      B        0x800385c ; __aeabi_uldivmod + 230
        0x0800382e:    1800        ..      ADDS     r0,r0,r0
        0x08003830:    4676        vF      MOV      r6,lr
        0x08003832:    4665        eF      MOV      r5,r12
        0x08003834:    4149        IA      ADCS     r1,r1,r1
        0x08003836:    1ab7        ..      SUBS     r7,r6,r2
        0x08003838:    419d        .A      SBCS     r5,r5,r3
        0x0800383a:    9101        ..      STR      r1,[sp,#4]
        0x0800383c:    9000        ..      STR      r0,[sp,#0]
        0x0800383e:    d309        ..      BCC      0x8003854 ; __aeabi_uldivmod + 222
        0x08003840:    4660        `F      MOV      r0,r12
        0x08003842:    1ab1        ..      SUBS     r1,r6,r2
        0x08003844:    4198        .A      SBCS     r0,r0,r3
        0x08003846:    468e        .F      MOV      lr,r1
        0x08003848:    4684        .F      MOV      r12,r0
        0x0800384a:    9800        ..      LDR      r0,[sp,#0]
        0x0800384c:    9901        ..      LDR      r1,[sp,#4]
        0x0800384e:    2500        .%      MOVS     r5,#0
        0x08003850:    1c40        @.      ADDS     r0,r0,#1
        0x08003852:    4169        iA      ADCS     r1,r1,r5
        0x08003854:    07dd        ..      LSLS     r5,r3,#31
        0x08003856:    0852        R.      LSRS     r2,r2,#1
        0x08003858:    432a        *C      ORRS     r2,r2,r5
        0x0800385a:    085b        [.      LSRS     r3,r3,#1
        0x0800385c:    1e64        d.      SUBS     r4,r4,#1
        0x0800385e:    d5e6        ..      BPL      0x800382e ; __aeabi_uldivmod + 184
        0x08003860:    4672        rF      MOV      r2,lr
        0x08003862:    4663        cF      MOV      r3,r12
        0x08003864:    b003        ..      ADD      sp,sp,#0xc
        0x08003866:    bdf0        ..      POP      {r4-r7,pc}
        0x08003868:    e7ff        ..      B        0x800386a ; __aeabi_uldivmod + 244
        0x0800386a:    2000        .       MOVS     r0,#0
        0x0800386c:    4601        .F      MOV      r1,r0
        0x0800386e:    46c0        .F      MOV      r8,r8
        0x08003870:    46c0        .F      MOV      r8,r8
        0x08003872:    462a        *F      MOV      r2,r5
        0x08003874:    4623        #F      MOV      r3,r4
        0x08003876:    e7f5        ..      B        0x8003864 ; __aeabi_uldivmod + 238
    .text
    __2printf
        0x08003878:    b40f        ..      PUSH     {r0-r3}
        0x0800387a:    4905        .I      LDR      r1,[pc,#20] ; [0x8003890] = 0x200010e8
        0x0800387c:    b510        ..      PUSH     {r4,lr}
        0x0800387e:    aa03        ..      ADD      r2,sp,#0xc
        0x08003880:    9802        ..      LDR      r0,[sp,#8]
        0x08003882:    f001f875    ..u.    BL       _printf_char_file ; 0x8004970
        0x08003886:    bc10        ..      POP      {r4}
        0x08003888:    bc08        ..      POP      {r3}
        0x0800388a:    b004        ..      ADD      sp,sp,#0x10
        0x0800388c:    4718        .G      BX       r3
    $d
        0x0800388e:    0000        ..      DCW    0
        0x08003890:    200010e8    ...     DCD    536875240
    $t
    .text
    __printf
        0x08003894:    b5f8        ..      PUSH     {r3-r7,lr}
        0x08003896:    460e        .F      MOV      r6,r1
        0x08003898:    4604        .F      MOV      r4,r0
        0x0800389a:    2000        .       MOVS     r0,#0
        0x0800389c:    6220         b      STR      r0,[r4,#0x20]
        0x0800389e:    4620         F      MOV      r0,r4
        0x080038a0:    68e1        .h      LDR      r1,[r4,#0xc]
        0x080038a2:    4788        .G      BLX      r1
        0x080038a4:    2800        .(      CMP      r0,#0
        0x080038a6:    d029        ).      BEQ      0x80038fc ; __printf + 104
        0x080038a8:    2825        %(      CMP      r0,#0x25
        0x080038aa:    d002        ..      BEQ      0x80038b2 ; __printf + 30
        0x080038ac:    6862        bh      LDR      r2,[r4,#4]
        0x080038ae:    68a1        .h      LDR      r1,[r4,#8]
        0x080038b0:    e020         .      B        0x80038f4 ; __printf + 96
        0x080038b2:    68e1        .h      LDR      r1,[r4,#0xc]
        0x080038b4:    4620         F      MOV      r0,r4
        0x080038b6:    2700        .'      MOVS     r7,#0
        0x080038b8:    4788        .G      BLX      r1
        0x080038ba:    0005        ..      MOVS     r5,r0
        0x080038bc:    d01e        ..      BEQ      0x80038fc ; __printf + 104
        0x080038be:    4628        (F      MOV      r0,r5
        0x080038c0:    3841        A8      SUBS     r0,r0,#0x41
        0x080038c2:    2819        .(      CMP      r0,#0x19
        0x080038c4:    d802        ..      BHI      0x80038cc ; __printf + 56
        0x080038c6:    2701        .'      MOVS     r7,#1
        0x080038c8:    02ff        ..      LSLS     r7,r7,#11
        0x080038ca:    3520         5      ADDS     r5,r5,#0x20
        0x080038cc:    4632        2F      MOV      r2,r6
        0x080038ce:    4620         F      MOV      r0,r4
        0x080038d0:    6027        '`      STR      r7,[r4,#0]
        0x080038d2:    4629        )F      MOV      r1,r5
        0x080038d4:    f7fcfcb2    ....    BL       _printf_percent ; 0x800023c
        0x080038d8:    2800        .(      CMP      r0,#0
        0x080038da:    d008        ..      BEQ      0x80038ee ; __printf + 90
        0x080038dc:    2801        .(      CMP      r0,#1
        0x080038de:    d004        ..      BEQ      0x80038ea ; __printf + 86
        0x080038e0:    1df6        ..      ADDS     r6,r6,#7
        0x080038e2:    08f6        ..      LSRS     r6,r6,#3
        0x080038e4:    00f6        ..      LSLS     r6,r6,#3
        0x080038e6:    3608        .6      ADDS     r6,r6,#8
        0x080038e8:    e7d9        ..      B        0x800389e ; __printf + 10
        0x080038ea:    1d36        6.      ADDS     r6,r6,#4
        0x080038ec:    e7d7        ..      B        0x800389e ; __printf + 10
        0x080038ee:    6862        bh      LDR      r2,[r4,#4]
        0x080038f0:    4628        (F      MOV      r0,r5
        0x080038f2:    68a1        .h      LDR      r1,[r4,#8]
        0x080038f4:    4790        .G      BLX      r2
        0x080038f6:    6a20         j      LDR      r0,[r4,#0x20]
        0x080038f8:    1c40        @.      ADDS     r0,r0,#1
        0x080038fa:    e7cf        ..      B        0x800389c ; __printf + 8
        0x080038fc:    6a20         j      LDR      r0,[r4,#0x20]
        0x080038fe:    bdf8        ..      POP      {r3-r7,pc}
    .text
    _printf_str
        0x08003900:    b570        p.      PUSH     {r4-r6,lr}
        0x08003902:    460c        .F      MOV      r4,r1
        0x08003904:    4605        .F      MOV      r5,r0
        0x08003906:    2a01        .*      CMP      r2,#1
        0x08003908:    d005        ..      BEQ      0x8003916 ; _printf_str + 22
        0x0800390a:    7828        (x      LDRB     r0,[r5,#0]
        0x0800390c:    0680        ..      LSLS     r0,r0,#26
        0x0800390e:    d500        ..      BPL      0x8003912 ; _printf_str + 18
        0x08003910:    69ea        .i      LDR      r2,[r5,#0x1c]
        0x08003912:    2300        .#      MOVS     r3,#0
        0x08003914:    e002        ..      B        0x800391c ; _printf_str + 28
        0x08003916:    2301        .#      MOVS     r3,#1
        0x08003918:    e005        ..      B        0x8003926 ; _printf_str + 38
        0x0800391a:    1c5b        [.      ADDS     r3,r3,#1
        0x0800391c:    4293        .B      CMP      r3,r2
        0x0800391e:    d202        ..      BCS      0x8003926 ; _printf_str + 38
        0x08003920:    5ce0        .\      LDRB     r0,[r4,r3]
        0x08003922:    2800        .(      CMP      r0,#0
        0x08003924:    d1f9        ..      BNE      0x800391a ; _printf_str + 26
        0x08003926:    69a8        .i      LDR      r0,[r5,#0x18]
        0x08003928:    18e6        ..      ADDS     r6,r4,r3
        0x0800392a:    1ac0        ..      SUBS     r0,r0,r3
        0x0800392c:    61a8        .a      STR      r0,[r5,#0x18]
        0x0800392e:    6a28        (j      LDR      r0,[r5,#0x20]
        0x08003930:    18c0        ..      ADDS     r0,r0,r3
        0x08003932:    6228        (b      STR      r0,[r5,#0x20]
        0x08003934:    4628        (F      MOV      r0,r5
        0x08003936:    46c0        .F      MOV      r8,r8
        0x08003938:    46c0        .F      MOV      r8,r8
        0x0800393a:    e004        ..      B        0x8003946 ; _printf_str + 70
        0x0800393c:    686a        jh      LDR      r2,[r5,#4]
        0x0800393e:    7820         x      LDRB     r0,[r4,#0]
        0x08003940:    68a9        .h      LDR      r1,[r5,#8]
        0x08003942:    1c64        d.      ADDS     r4,r4,#1
        0x08003944:    4790        .G      BLX      r2
        0x08003946:    42b4        .B      CMP      r4,r6
        0x08003948:    d3f8        ..      BCC      0x800393c ; _printf_str + 60
        0x0800394a:    4628        (F      MOV      r0,r5
        0x0800394c:    46c0        .F      MOV      r8,r8
        0x0800394e:    46c0        .F      MOV      r8,r8
        0x08003950:    bd70        p.      POP      {r4-r6,pc}
        0x08003952:    0000        ..      MOVS     r0,r0
    .text
    _printf_int_dec
        0x08003954:    b5f7        ..      PUSH     {r0-r2,r4-r7,lr}
        0x08003956:    2500        .%      MOVS     r5,#0
        0x08003958:    2975        u)      CMP      r1,#0x75
        0x0800395a:    6810        .h      LDR      r0,[r2,#0]
        0x0800395c:    9900        ..      LDR      r1,[sp,#0]
        0x0800395e:    a614        ..      ADR      r6,{pc}+0x52 ; 0x80039b0
        0x08003960:    d011        ..      BEQ      0x8003986 ; _printf_int_dec + 50
        0x08003962:    46c0        .F      MOV      r8,r8
        0x08003964:    46c0        .F      MOV      r8,r8
        0x08003966:    2800        .(      CMP      r0,#0
        0x08003968:    da02        ..      BGE      0x8003970 ; _printf_int_dec + 28
        0x0800396a:    4240        @B      RSBS     r0,r0,#0
        0x0800396c:    a611        ..      ADR      r6,{pc}+0x48 ; 0x80039b4
        0x0800396e:    e008        ..      B        0x8003982 ; _printf_int_dec + 46
        0x08003970:    9900        ..      LDR      r1,[sp,#0]
        0x08003972:    6809        .h      LDR      r1,[r1,#0]
        0x08003974:    078a        ..      LSLS     r2,r1,#30
        0x08003976:    d501        ..      BPL      0x800397c ; _printf_int_dec + 40
        0x08003978:    a60f        ..      ADR      r6,{pc}+0x40 ; 0x80039b8
        0x0800397a:    e002        ..      B        0x8003982 ; _printf_int_dec + 46
        0x0800397c:    0749        I.      LSLS     r1,r1,#29
        0x0800397e:    d504        ..      BPL      0x800398a ; _printf_int_dec + 54
        0x08003980:    a60e        ..      ADR      r6,{pc}+0x3c ; 0x80039bc
        0x08003982:    2501        .%      MOVS     r5,#1
        0x08003984:    e001        ..      B        0x800398a ; _printf_int_dec + 54
        0x08003986:    46c0        .F      MOV      r8,r8
        0x08003988:    46c0        .F      MOV      r8,r8
        0x0800398a:    9f00        ..      LDR      r7,[sp,#0]
        0x0800398c:    2400        .$      MOVS     r4,#0
        0x0800398e:    3724        $7      ADDS     r7,r7,#0x24
        0x08003990:    e004        ..      B        0x800399c ; _printf_int_dec + 72
        0x08003992:    f001f801    ....    BL       __rt_udiv10 ; 0x8004998
        0x08003996:    3130        01      ADDS     r1,r1,#0x30
        0x08003998:    5539        9U      STRB     r1,[r7,r4]
        0x0800399a:    1c64        d.      ADDS     r4,r4,#1
        0x0800399c:    2800        .(      CMP      r0,#0
        0x0800399e:    d1f8        ..      BNE      0x8003992 ; _printf_int_dec + 62
        0x080039a0:    462b        +F      MOV      r3,r5
        0x080039a2:    4632        2F      MOV      r2,r6
        0x080039a4:    4621        !F      MOV      r1,r4
        0x080039a6:    9800        ..      LDR      r0,[sp,#0]
        0x080039a8:    f000fd67    ..g.    BL       _printf_int_common ; 0x800447a
        0x080039ac:    bdfe        ..      POP      {r1-r7,pc}
    $d
        0x080039ae:    0000        ..      DCW    0
        0x080039b0:    00000000    ....    DCD    0
        0x080039b4:    0000002d    -...    DCD    45
        0x080039b8:    0000002b    +...    DCD    43
        0x080039bc:    00000020     ...    DCD    32
    $t
    .text
    puts
        0x080039c0:    b510        ..      PUSH     {r4,lr}
        0x080039c2:    4604        .F      MOV      r4,r0
        0x080039c4:    e003        ..      B        0x80039ce ; puts + 14
        0x080039c6:    f7fcfc9b    ....    BL       fputc ; 0x8000300
        0x080039ca:    1c40        @.      ADDS     r0,r0,#1
        0x080039cc:    d008        ..      BEQ      0x80039e0 ; puts + 32
        0x080039ce:    7820         x      LDRB     r0,[r4,#0]
        0x080039d0:    4905        .I      LDR      r1,[pc,#20] ; [0x80039e8] = 0x200010e8
        0x080039d2:    1c64        d.      ADDS     r4,r4,#1
        0x080039d4:    2800        .(      CMP      r0,#0
        0x080039d6:    d1f6        ..      BNE      0x80039c6 ; puts + 6
        0x080039d8:    200a        .       MOVS     r0,#0xa
        0x080039da:    f7fcfc91    ....    BL       fputc ; 0x8000300
        0x080039de:    bd10        ..      POP      {r4,pc}
        0x080039e0:    2000        .       MOVS     r0,#0
        0x080039e2:    43c0        .C      MVNS     r0,r0
        0x080039e4:    bd10        ..      POP      {r4,pc}
    $d
        0x080039e6:    0000        ..      DCW    0
        0x080039e8:    200010e8    ...     DCD    536875240
    $t
    .text
    __aeabi_memcpy
    __rt_memcpy
        0x080039ec:    b5f8        ..      PUSH     {r3-r7,lr}
        0x080039ee:    2a04        .*      CMP      r2,#4
        0x080039f0:    d32c        ,.      BCC      0x8003a4c ; __aeabi_memcpy + 96
        0x080039f2:    0783        ..      LSLS     r3,r0,#30
        0x080039f4:    d012        ..      BEQ      0x8003a1c ; __aeabi_memcpy + 48
        0x080039f6:    780b        .x      LDRB     r3,[r1,#0]
        0x080039f8:    1c49        I.      ADDS     r1,r1,#1
        0x080039fa:    7003        .p      STRB     r3,[r0,#0]
        0x080039fc:    1c40        @.      ADDS     r0,r0,#1
        0x080039fe:    1e52        R.      SUBS     r2,r2,#1
        0x08003a00:    0783        ..      LSLS     r3,r0,#30
        0x08003a02:    d00b        ..      BEQ      0x8003a1c ; __aeabi_memcpy + 48
        0x08003a04:    780b        .x      LDRB     r3,[r1,#0]
        0x08003a06:    1c49        I.      ADDS     r1,r1,#1
        0x08003a08:    7003        .p      STRB     r3,[r0,#0]
        0x08003a0a:    1c40        @.      ADDS     r0,r0,#1
        0x08003a0c:    1e52        R.      SUBS     r2,r2,#1
        0x08003a0e:    0783        ..      LSLS     r3,r0,#30
        0x08003a10:    d004        ..      BEQ      0x8003a1c ; __aeabi_memcpy + 48
        0x08003a12:    780b        .x      LDRB     r3,[r1,#0]
        0x08003a14:    1c49        I.      ADDS     r1,r1,#1
        0x08003a16:    7003        .p      STRB     r3,[r0,#0]
        0x08003a18:    1c40        @.      ADDS     r0,r0,#1
        0x08003a1a:    1e52        R.      SUBS     r2,r2,#1
        0x08003a1c:    078b        ..      LSLS     r3,r1,#30
        0x08003a1e:    0f9b        ..      LSRS     r3,r3,#30
        0x08003a20:    d005        ..      BEQ      0x8003a2e ; __aeabi_memcpy + 66
        0x08003a22:    1ac9        ..      SUBS     r1,r1,r3
        0x08003a24:    00df        ..      LSLS     r7,r3,#3
        0x08003a26:    2320         #      MOVS     r3,#0x20
        0x08003a28:    1bde        ..      SUBS     r6,r3,r7
        0x08003a2a:    c908        ..      LDM      r1!,{r3}
        0x08003a2c:    e00a        ..      B        0x8003a44 ; __aeabi_memcpy + 88
        0x08003a2e:    f7fcfc33    ..3.    BL       __aeabi_memcpy4 ; 0x8000298
        0x08003a32:    bdf8        ..      POP      {r3-r7,pc}
        0x08003a34:    461d        .F      MOV      r5,r3
        0x08003a36:    c908        ..      LDM      r1!,{r3}
        0x08003a38:    40fd        .@      LSRS     r5,r5,r7
        0x08003a3a:    461c        .F      MOV      r4,r3
        0x08003a3c:    40b4        .@      LSLS     r4,r4,r6
        0x08003a3e:    432c        ,C      ORRS     r4,r4,r5
        0x08003a40:    c010        ..      STM      r0!,{r4}
        0x08003a42:    1f12        ..      SUBS     r2,r2,#4
        0x08003a44:    2a04        .*      CMP      r2,#4
        0x08003a46:    d2f5        ..      BCS      0x8003a34 ; __aeabi_memcpy + 72
        0x08003a48:    08f3        ..      LSRS     r3,r6,#3
        0x08003a4a:    1ac9        ..      SUBS     r1,r1,r3
        0x08003a4c:    1e52        R.      SUBS     r2,r2,#1
        0x08003a4e:    d4f0        ..      BMI      0x8003a32 ; __aeabi_memcpy + 70
        0x08003a50:    780b        .x      LDRB     r3,[r1,#0]
        0x08003a52:    1c49        I.      ADDS     r1,r1,#1
        0x08003a54:    7003        .p      STRB     r3,[r0,#0]
        0x08003a56:    1c40        @.      ADDS     r0,r0,#1
        0x08003a58:    1e52        R.      SUBS     r2,r2,#1
        0x08003a5a:    d4ea        ..      BMI      0x8003a32 ; __aeabi_memcpy + 70
        0x08003a5c:    780b        .x      LDRB     r3,[r1,#0]
        0x08003a5e:    1c49        I.      ADDS     r1,r1,#1
        0x08003a60:    7003        .p      STRB     r3,[r0,#0]
        0x08003a62:    1c40        @.      ADDS     r0,r0,#1
        0x08003a64:    2a01        .*      CMP      r2,#1
        0x08003a66:    d4e4        ..      BMI      0x8003a32 ; __aeabi_memcpy + 70
        0x08003a68:    7809        .x      LDRB     r1,[r1,#0]
        0x08003a6a:    7001        .p      STRB     r1,[r0,#0]
        0x08003a6c:    bdf8        ..      POP      {r3-r7,pc}
    .text
    _memset_w
        0x08003a6e:    e001        ..      B        0x8003a74 ; _memset_w + 6
        0x08003a70:    c004        ..      STM      r0!,{r2}
        0x08003a72:    1f09        ..      SUBS     r1,r1,#4
        0x08003a74:    2904        .)      CMP      r1,#4
        0x08003a76:    d2fb        ..      BCS      0x8003a70 ; _memset_w + 2
        0x08003a78:    078b        ..      LSLS     r3,r1,#30
        0x08003a7a:    d501        ..      BPL      0x8003a80 ; _memset_w + 18
        0x08003a7c:    8002        ..      STRH     r2,[r0,#0]
        0x08003a7e:    1c80        ..      ADDS     r0,r0,#2
        0x08003a80:    07c9        ..      LSLS     r1,r1,#31
        0x08003a82:    d000        ..      BEQ      0x8003a86 ; _memset_w + 24
        0x08003a84:    7002        .p      STRB     r2,[r0,#0]
        0x08003a86:    4770        pG      BX       lr
    _memset
        0x08003a88:    2900        .)      CMP      r1,#0
        0x08003a8a:    d00b        ..      BEQ      0x8003aa4 ; _memset + 28
        0x08003a8c:    07c3        ..      LSLS     r3,r0,#31
        0x08003a8e:    d002        ..      BEQ      0x8003a96 ; _memset + 14
        0x08003a90:    7002        .p      STRB     r2,[r0,#0]
        0x08003a92:    1c40        @.      ADDS     r0,r0,#1
        0x08003a94:    1e49        I.      SUBS     r1,r1,#1
        0x08003a96:    2902        .)      CMP      r1,#2
        0x08003a98:    d304        ..      BCC      0x8003aa4 ; _memset + 28
        0x08003a9a:    0783        ..      LSLS     r3,r0,#30
        0x08003a9c:    d502        ..      BPL      0x8003aa4 ; _memset + 28
        0x08003a9e:    8002        ..      STRH     r2,[r0,#0]
        0x08003aa0:    1c80        ..      ADDS     r0,r0,#2
        0x08003aa2:    1e89        ..      SUBS     r1,r1,#2
        0x08003aa4:    e7e3        ..      B        _memset_w ; 0x8003a6e
    __aeabi_memclr
    __rt_memclr
        0x08003aa6:    2200        ."      MOVS     r2,#0
        0x08003aa8:    e7ee        ..      B        _memset ; 0x8003a88
    __aeabi_memclr4
    __aeabi_memclr8
    __rt_memclr_w
        0x08003aaa:    2200        ."      MOVS     r2,#0
        0x08003aac:    e7df        ..      B        _memset_w ; 0x8003a6e
    .text
    __aeabi_uidiv
    __aeabi_uidivmod
        0x08003aae:    2200        ."      MOVS     r2,#0
        0x08003ab0:    0903        ..      LSRS     r3,r0,#4
        0x08003ab2:    428b        .B      CMP      r3,r1
        0x08003ab4:    d32c        ,.      BCC      0x8003b10 ; __aeabi_idiv + 78
        0x08003ab6:    0a03        ..      LSRS     r3,r0,#8
        0x08003ab8:    428b        .B      CMP      r3,r1
        0x08003aba:    d311        ..      BCC      0x8003ae0 ; __aeabi_idiv + 30
        0x08003abc:    2300        .#      MOVS     r3,#0
        0x08003abe:    469c        .F      MOV      r12,r3
        0x08003ac0:    e04e        N.      B        0x8003b60 ; __aeabi_idiv + 158
    __aeabi_idiv
    __aeabi_idivmod
        0x08003ac2:    4603        .F      MOV      r3,r0
        0x08003ac4:    430b        .C      ORRS     r3,r3,r1
        0x08003ac6:    d43c        <.      BMI      0x8003b42 ; __aeabi_idiv + 128
        0x08003ac8:    2200        ."      MOVS     r2,#0
        0x08003aca:    0843        C.      LSRS     r3,r0,#1
        0x08003acc:    428b        .B      CMP      r3,r1
        0x08003ace:    d331        1.      BCC      0x8003b34 ; __aeabi_idiv + 114
        0x08003ad0:    0903        ..      LSRS     r3,r0,#4
        0x08003ad2:    428b        .B      CMP      r3,r1
        0x08003ad4:    d31c        ..      BCC      0x8003b10 ; __aeabi_idiv + 78
        0x08003ad6:    0a03        ..      LSRS     r3,r0,#8
        0x08003ad8:    428b        .B      CMP      r3,r1
        0x08003ada:    d301        ..      BCC      0x8003ae0 ; __aeabi_idiv + 30
        0x08003adc:    4694        .F      MOV      r12,r2
        0x08003ade:    e03f        ?.      B        0x8003b60 ; __aeabi_idiv + 158
        0x08003ae0:    09c3        ..      LSRS     r3,r0,#7
        0x08003ae2:    428b        .B      CMP      r3,r1
        0x08003ae4:    d301        ..      BCC      0x8003aea ; __aeabi_idiv + 40
        0x08003ae6:    01cb        ..      LSLS     r3,r1,#7
        0x08003ae8:    1ac0        ..      SUBS     r0,r0,r3
        0x08003aea:    4152        RA      ADCS     r2,r2,r2
        0x08003aec:    0983        ..      LSRS     r3,r0,#6
        0x08003aee:    428b        .B      CMP      r3,r1
        0x08003af0:    d301        ..      BCC      0x8003af6 ; __aeabi_idiv + 52
        0x08003af2:    018b        ..      LSLS     r3,r1,#6
        0x08003af4:    1ac0        ..      SUBS     r0,r0,r3
        0x08003af6:    4152        RA      ADCS     r2,r2,r2
        0x08003af8:    0943        C.      LSRS     r3,r0,#5
        0x08003afa:    428b        .B      CMP      r3,r1
        0x08003afc:    d301        ..      BCC      0x8003b02 ; __aeabi_idiv + 64
        0x08003afe:    014b        K.      LSLS     r3,r1,#5
        0x08003b00:    1ac0        ..      SUBS     r0,r0,r3
        0x08003b02:    4152        RA      ADCS     r2,r2,r2
        0x08003b04:    0903        ..      LSRS     r3,r0,#4
        0x08003b06:    428b        .B      CMP      r3,r1
        0x08003b08:    d301        ..      BCC      0x8003b0e ; __aeabi_idiv + 76
        0x08003b0a:    010b        ..      LSLS     r3,r1,#4
        0x08003b0c:    1ac0        ..      SUBS     r0,r0,r3
        0x08003b0e:    4152        RA      ADCS     r2,r2,r2
        0x08003b10:    08c3        ..      LSRS     r3,r0,#3
        0x08003b12:    428b        .B      CMP      r3,r1
        0x08003b14:    d301        ..      BCC      0x8003b1a ; __aeabi_idiv + 88
        0x08003b16:    00cb        ..      LSLS     r3,r1,#3
        0x08003b18:    1ac0        ..      SUBS     r0,r0,r3
        0x08003b1a:    4152        RA      ADCS     r2,r2,r2
        0x08003b1c:    0883        ..      LSRS     r3,r0,#2
        0x08003b1e:    428b        .B      CMP      r3,r1
        0x08003b20:    d301        ..      BCC      0x8003b26 ; __aeabi_idiv + 100
        0x08003b22:    008b        ..      LSLS     r3,r1,#2
        0x08003b24:    1ac0        ..      SUBS     r0,r0,r3
        0x08003b26:    4152        RA      ADCS     r2,r2,r2
        0x08003b28:    0843        C.      LSRS     r3,r0,#1
        0x08003b2a:    428b        .B      CMP      r3,r1
        0x08003b2c:    d301        ..      BCC      0x8003b32 ; __aeabi_idiv + 112
        0x08003b2e:    004b        K.      LSLS     r3,r1,#1
        0x08003b30:    1ac0        ..      SUBS     r0,r0,r3
        0x08003b32:    4152        RA      ADCS     r2,r2,r2
        0x08003b34:    1a41        A.      SUBS     r1,r0,r1
        0x08003b36:    d200        ..      BCS      0x8003b3a ; __aeabi_idiv + 120
        0x08003b38:    4601        .F      MOV      r1,r0
        0x08003b3a:    4152        RA      ADCS     r2,r2,r2
        0x08003b3c:    4610        .F      MOV      r0,r2
        0x08003b3e:    4770        pG      BX       lr
        0x08003b40:    e05d        ].      B        0x8003bfe ; __aeabi_idiv + 316
        0x08003b42:    0fca        ..      LSRS     r2,r1,#31
        0x08003b44:    d000        ..      BEQ      0x8003b48 ; __aeabi_idiv + 134
        0x08003b46:    4249        IB      RSBS     r1,r1,#0
        0x08003b48:    1003        ..      ASRS     r3,r0,#32
        0x08003b4a:    d300        ..      BCC      0x8003b4e ; __aeabi_idiv + 140
        0x08003b4c:    4240        @B      RSBS     r0,r0,#0
        0x08003b4e:    4053        S@      EORS     r3,r3,r2
        0x08003b50:    469c        .F      MOV      r12,r3
        0x08003b52:    2200        ."      MOVS     r2,#0
        0x08003b54:    0903        ..      LSRS     r3,r0,#4
        0x08003b56:    428b        .B      CMP      r3,r1
        0x08003b58:    d32d        -.      BCC      0x8003bb6 ; __aeabi_idiv + 244
        0x08003b5a:    0a03        ..      LSRS     r3,r0,#8
        0x08003b5c:    428b        .B      CMP      r3,r1
        0x08003b5e:    d312        ..      BCC      0x8003b86 ; __aeabi_idiv + 196
        0x08003b60:    0189        ..      LSLS     r1,r1,#6
        0x08003b62:    22fc        ."      MOVS     r2,#0xfc
        0x08003b64:    ba12        ..      REV      r2,r2
        0x08003b66:    0a03        ..      LSRS     r3,r0,#8
        0x08003b68:    428b        .B      CMP      r3,r1
        0x08003b6a:    d30c        ..      BCC      0x8003b86 ; __aeabi_idiv + 196
        0x08003b6c:    0189        ..      LSLS     r1,r1,#6
        0x08003b6e:    1192        ..      ASRS     r2,r2,#6
        0x08003b70:    428b        .B      CMP      r3,r1
        0x08003b72:    d308        ..      BCC      0x8003b86 ; __aeabi_idiv + 196
        0x08003b74:    0189        ..      LSLS     r1,r1,#6
        0x08003b76:    1192        ..      ASRS     r2,r2,#6
        0x08003b78:    428b        .B      CMP      r3,r1
        0x08003b7a:    d304        ..      BCC      0x8003b86 ; __aeabi_idiv + 196
        0x08003b7c:    0189        ..      LSLS     r1,r1,#6
        0x08003b7e:    d03a        :.      BEQ      0x8003bf6 ; __aeabi_idiv + 308
        0x08003b80:    1192        ..      ASRS     r2,r2,#6
        0x08003b82:    e000        ..      B        0x8003b86 ; __aeabi_idiv + 196
        0x08003b84:    0989        ..      LSRS     r1,r1,#6
        0x08003b86:    09c3        ..      LSRS     r3,r0,#7
        0x08003b88:    428b        .B      CMP      r3,r1
        0x08003b8a:    d301        ..      BCC      0x8003b90 ; __aeabi_idiv + 206
        0x08003b8c:    01cb        ..      LSLS     r3,r1,#7
        0x08003b8e:    1ac0        ..      SUBS     r0,r0,r3
        0x08003b90:    4152        RA      ADCS     r2,r2,r2
        0x08003b92:    0983        ..      LSRS     r3,r0,#6
        0x08003b94:    428b        .B      CMP      r3,r1
        0x08003b96:    d301        ..      BCC      0x8003b9c ; __aeabi_idiv + 218
        0x08003b98:    018b        ..      LSLS     r3,r1,#6
        0x08003b9a:    1ac0        ..      SUBS     r0,r0,r3
        0x08003b9c:    4152        RA      ADCS     r2,r2,r2
        0x08003b9e:    0943        C.      LSRS     r3,r0,#5
        0x08003ba0:    428b        .B      CMP      r3,r1
        0x08003ba2:    d301        ..      BCC      0x8003ba8 ; __aeabi_idiv + 230
        0x08003ba4:    014b        K.      LSLS     r3,r1,#5
        0x08003ba6:    1ac0        ..      SUBS     r0,r0,r3
        0x08003ba8:    4152        RA      ADCS     r2,r2,r2
        0x08003baa:    0903        ..      LSRS     r3,r0,#4
        0x08003bac:    428b        .B      CMP      r3,r1
        0x08003bae:    d301        ..      BCC      0x8003bb4 ; __aeabi_idiv + 242
        0x08003bb0:    010b        ..      LSLS     r3,r1,#4
        0x08003bb2:    1ac0        ..      SUBS     r0,r0,r3
        0x08003bb4:    4152        RA      ADCS     r2,r2,r2
        0x08003bb6:    08c3        ..      LSRS     r3,r0,#3
        0x08003bb8:    428b        .B      CMP      r3,r1
        0x08003bba:    d301        ..      BCC      0x8003bc0 ; __aeabi_idiv + 254
        0x08003bbc:    00cb        ..      LSLS     r3,r1,#3
        0x08003bbe:    1ac0        ..      SUBS     r0,r0,r3
        0x08003bc0:    4152        RA      ADCS     r2,r2,r2
        0x08003bc2:    0883        ..      LSRS     r3,r0,#2
        0x08003bc4:    428b        .B      CMP      r3,r1
        0x08003bc6:    d301        ..      BCC      0x8003bcc ; __aeabi_idiv + 266
        0x08003bc8:    008b        ..      LSLS     r3,r1,#2
        0x08003bca:    1ac0        ..      SUBS     r0,r0,r3
        0x08003bcc:    4152        RA      ADCS     r2,r2,r2
        0x08003bce:    d2d9        ..      BCS      0x8003b84 ; __aeabi_idiv + 194
        0x08003bd0:    0843        C.      LSRS     r3,r0,#1
        0x08003bd2:    428b        .B      CMP      r3,r1
        0x08003bd4:    d301        ..      BCC      0x8003bda ; __aeabi_idiv + 280
        0x08003bd6:    004b        K.      LSLS     r3,r1,#1
        0x08003bd8:    1ac0        ..      SUBS     r0,r0,r3
        0x08003bda:    4152        RA      ADCS     r2,r2,r2
        0x08003bdc:    1a41        A.      SUBS     r1,r0,r1
        0x08003bde:    d200        ..      BCS      0x8003be2 ; __aeabi_idiv + 288
        0x08003be0:    4601        .F      MOV      r1,r0
        0x08003be2:    4152        RA      ADCS     r2,r2,r2
        0x08003be4:    4610        .F      MOV      r0,r2
        0x08003be6:    4663        cF      MOV      r3,r12
        0x08003be8:    105b        [.      ASRS     r3,r3,#1
        0x08003bea:    d301        ..      BCC      0x8003bf0 ; __aeabi_idiv + 302
        0x08003bec:    4240        @B      RSBS     r0,r0,#0
        0x08003bee:    2b00        .+      CMP      r3,#0
        0x08003bf0:    d500        ..      BPL      0x8003bf4 ; __aeabi_idiv + 306
        0x08003bf2:    4249        IB      RSBS     r1,r1,#0
        0x08003bf4:    4770        pG      BX       lr
        0x08003bf6:    4663        cF      MOV      r3,r12
        0x08003bf8:    105b        [.      ASRS     r3,r3,#1
        0x08003bfa:    d300        ..      BCC      0x8003bfe ; __aeabi_idiv + 316
        0x08003bfc:    4240        @B      RSBS     r0,r0,#0
        0x08003bfe:    b501        ..      PUSH     {r0,lr}
        0x08003c00:    2000        .       MOVS     r0,#0
        0x08003c02:    46c0        .F      MOV      r8,r8
        0x08003c04:    46c0        .F      MOV      r8,r8
        0x08003c06:    bd02        ..      POP      {r1,pc}
    .text
    __use_two_region_memory
        0x08003c08:    4770        pG      BX       lr
    __rt_heap_escrow$2region
        0x08003c0a:    4770        pG      BX       lr
    __rt_heap_expand$2region
        0x08003c0c:    4770        pG      BX       lr
        0x08003c0e:    0000        ..      MOVS     r0,r0
    .text
    _dadd1
        0x08003c10:    b5f0        ..      PUSH     {r4-r7,lr}
        0x08003c12:    460c        .F      MOV      r4,r1
        0x08003c14:    1a87        ..      SUBS     r7,r0,r2
        0x08003c16:    419c        .A      SBCS     r4,r4,r3
        0x08003c18:    460d        .F      MOV      r5,r1
        0x08003c1a:    1a86        ..      SUBS     r6,r0,r2
        0x08003c1c:    419d        .A      SBCS     r5,r5,r3
        0x08003c1e:    d203        ..      BCS      0x8003c28 ; _dadd1 + 24
        0x08003c20:    1bc0        ..      SUBS     r0,r0,r7
        0x08003c22:    41a1        .A      SBCS     r1,r1,r4
        0x08003c24:    19d2        ..      ADDS     r2,r2,r7
        0x08003c26:    4163        cA      ADCS     r3,r3,r4
        0x08003c28:    0d0d        ..      LSRS     r5,r1,#20
        0x08003c2a:    0d1f        ..      LSRS     r7,r3,#20
        0x08003c2c:    4ec9        .N      LDR      r6,[pc,#804] ; [0x8003f54] = 0x7ff
        0x08003c2e:    1bec        ..      SUBS     r4,r5,r7
        0x08003c30:    43ae        .C      BICS     r6,r6,r5
        0x08003c32:    d05c        \.      BEQ      0x8003cee ; _dadd1 + 222
        0x08003c34:    057f        ..      LSLS     r7,r7,#21
        0x08003c36:    0d7f        ..      LSRS     r7,r7,#21
        0x08003c38:    2600        .&      MOVS     r6,#0
        0x08003c3a:    2f00        ./      CMP      r7,#0
        0x08003c3c:    d051        Q.      BEQ      0x8003ce2 ; _dadd1 + 210
        0x08003c3e:    052d        -.      LSLS     r5,r5,#20
        0x08003c40:    46ac        .F      MOV      r12,r5
        0x08003c42:    43a9        .C      BICS     r1,r1,r5
        0x08003c44:    02dd        ..      LSLS     r5,r3,#11
        0x08003c46:    2301        .#      MOVS     r3,#1
        0x08003c48:    0aed        ..      LSRS     r5,r5,#11
        0x08003c4a:    051b        ..      LSLS     r3,r3,#20
        0x08003c4c:    431d        .C      ORRS     r5,r5,r3
        0x08003c4e:    2320         #      MOVS     r3,#0x20
        0x08003c50:    1b1b        ..      SUBS     r3,r3,r4
        0x08003c52:    d424        $.      BMI      0x8003c9e ; _dadd1 + 142
        0x08003c54:    4617        .F      MOV      r7,r2
        0x08003c56:    40e7        .@      LSRS     r7,r7,r4
        0x08003c58:    1838        8.      ADDS     r0,r7,r0
        0x08003c5a:    4171        qA      ADCS     r1,r1,r6
        0x08003c5c:    462f        /F      MOV      r7,r5
        0x08003c5e:    40e7        .@      LSRS     r7,r7,r4
        0x08003c60:    19cc        ..      ADDS     r4,r1,r7
        0x08003c62:    409d        .@      LSLS     r5,r5,r3
        0x08003c64:    1828        (.      ADDS     r0,r5,r0
        0x08003c66:    4631        1F      MOV      r1,r6
        0x08003c68:    4161        aA      ADCS     r1,r1,r4
        0x08003c6a:    0d0c        ..      LSRS     r4,r1,#20
        0x08003c6c:    d127        '.      BNE      0x8003cbe ; _dadd1 + 174
        0x08003c6e:    4461        aD      ADD      r1,r1,r12
        0x08003c70:    409a        .@      LSLS     r2,r2,r3
        0x08003c72:    d513        ..      BPL      0x8003c9c ; _dadd1 + 140
        0x08003c74:    2300        .#      MOVS     r3,#0
        0x08003c76:    1c40        @.      ADDS     r0,r0,#1
        0x08003c78:    4159        YA      ADCS     r1,r1,r3
        0x08003c7a:    0052        R.      LSLS     r2,r2,#1
        0x08003c7c:    d10e        ..      BNE      0x8003c9c ; _dadd1 + 140
        0x08003c7e:    0840        @.      LSRS     r0,r0,#1
        0x08003c80:    0040        @.      LSLS     r0,r0,#1
        0x08003c82:    2201        ."      MOVS     r2,#1
        0x08003c84:    004b        K.      LSLS     r3,r1,#1
        0x08003c86:    0552        R.      LSLS     r2,r2,#21
        0x08003c88:    42d3        .B      CMN      r3,r2
        0x08003c8a:    d307        ..      BCC      0x8003c9c ; _dadd1 + 140
        0x08003c8c:    2005        .       MOVS     r0,#5
        0x08003c8e:    0740        @.      LSLS     r0,r0,#29
        0x08003c90:    42c1        .B      CMN      r1,r0
        0x08003c92:    d501        ..      BPL      0x8003c98 ; _dadd1 + 136
        0x08003c94:    49b0        .I      LDR      r1,[pc,#704] ; [0x8003f58] = 0xfff00000
        0x08003c96:    e000        ..      B        0x8003c9a ; _dadd1 + 138
        0x08003c98:    49b0        .I      LDR      r1,[pc,#704] ; [0x8003f5c] = 0x7ff00000
        0x08003c9a:    4630        0F      MOV      r0,r6
        0x08003c9c:    bdf0        ..      POP      {r4-r7,pc}
        0x08003c9e:    006b        k.      LSLS     r3,r5,#1
        0x08003ca0:    2a00        .*      CMP      r2,#0
        0x08003ca2:    d000        ..      BEQ      0x8003ca6 ; _dadd1 + 150
        0x08003ca4:    2201        ."      MOVS     r2,#1
        0x08003ca6:    189a        ..      ADDS     r2,r3,r2
        0x08003ca8:    231f        .#      MOVS     r3,#0x1f
        0x08003caa:    3c20         <      SUBS     r4,r4,#0x20
        0x08003cac:    1b1b        ..      SUBS     r3,r3,r4
        0x08003cae:    d501        ..      BPL      0x8003cb4 ; _dadd1 + 164
        0x08003cb0:    2300        .#      MOVS     r3,#0
        0x08003cb2:    e002        ..      B        0x8003cba ; _dadd1 + 170
        0x08003cb4:    40e5        .@      LSRS     r5,r5,r4
        0x08003cb6:    1828        (.      ADDS     r0,r5,r0
        0x08003cb8:    4171        qA      ADCS     r1,r1,r6
        0x08003cba:    0d0c        ..      LSRS     r4,r1,#20
        0x08003cbc:    d0d7        ..      BEQ      0x8003c6e ; _dadd1 + 94
        0x08003cbe:    2401        .$      MOVS     r4,#1
        0x08003cc0:    0524        $.      LSLS     r4,r4,#20
        0x08003cc2:    1909        ..      ADDS     r1,r1,r4
        0x08003cc4:    07c4        ..      LSLS     r4,r0,#31
        0x08003cc6:    07cd        ..      LSLS     r5,r1,#31
        0x08003cc8:    0840        @.      LSRS     r0,r0,#1
        0x08003cca:    0849        I.      LSRS     r1,r1,#1
        0x08003ccc:    0fe4        ..      LSRS     r4,r4,#31
        0x08003cce:    4328        (C      ORRS     r0,r0,r5
        0x08003cd0:    4461        aD      ADD      r1,r1,r12
        0x08003cd2:    2c00        .,      CMP      r4,#0
        0x08003cd4:    d0d5        ..      BEQ      0x8003c82 ; _dadd1 + 114
        0x08003cd6:    2400        .$      MOVS     r4,#0
        0x08003cd8:    1c40        @.      ADDS     r0,r0,#1
        0x08003cda:    4161        aA      ADCS     r1,r1,r4
        0x08003cdc:    409a        .@      LSLS     r2,r2,r3
        0x08003cde:    d1d0        ..      BNE      0x8003c82 ; _dadd1 + 114
        0x08003ce0:    e7cd        ..      B        0x8003c7e ; _dadd1 + 110
        0x08003ce2:    056a        j.      LSLS     r2,r5,#21
        0x08003ce4:    0d52        R.      LSRS     r2,r2,#21
        0x08003ce6:    d1d9        ..      BNE      0x8003c9c ; _dadd1 + 140
        0x08003ce8:    0fc9        ..      LSRS     r1,r1,#31
        0x08003cea:    07c9        ..      LSLS     r1,r1,#31
        0x08003cec:    e7d5        ..      B        0x8003c9a ; _dadd1 + 138
        0x08003cee:    4d9c        .M      LDR      r5,[pc,#624] ; [0x8003f60] = 0xffe00000
        0x08003cf0:    004e        N.      LSLS     r6,r1,#1
        0x08003cf2:    2800        .(      CMP      r0,#0
        0x08003cf4:    d001        ..      BEQ      0x8003cfa ; _dadd1 + 234
        0x08003cf6:    2401        .$      MOVS     r4,#1
        0x08003cf8:    e000        ..      B        0x8003cfc ; _dadd1 + 236
        0x08003cfa:    2400        .$      MOVS     r4,#0
        0x08003cfc:    1934        4.      ADDS     r4,r6,r4
        0x08003cfe:    005f        _.      LSLS     r7,r3,#1
        0x08003d00:    2a00        .*      CMP      r2,#0
        0x08003d02:    d001        ..      BEQ      0x8003d08 ; _dadd1 + 248
        0x08003d04:    2601        .&      MOVS     r6,#1
        0x08003d06:    e000        ..      B        0x8003d0a ; _dadd1 + 250
        0x08003d08:    2600        .&      MOVS     r6,#0
        0x08003d0a:    19be        ..      ADDS     r6,r7,r6
        0x08003d0c:    4f95        .O      LDR      r7,[pc,#596] ; [0x8003f64] = 0x7ff80000
        0x08003d0e:    42ac        .B      CMP      r4,r5
        0x08003d10:    d80c        ..      BHI      0x8003d2c ; _dadd1 + 284
        0x08003d12:    42ae        .B      CMP      r6,r5
        0x08003d14:    d80a        ..      BHI      0x8003d2c ; _dadd1 + 284
        0x08003d16:    42b4        .B      CMP      r4,r6
        0x08003d18:    d006        ..      BEQ      0x8003d28 ; _dadd1 + 280
        0x08003d1a:    2501        .%      MOVS     r5,#1
        0x08003d1c:    056d        m.      LSLS     r5,r5,#21
        0x08003d1e:    42ec        .B      CMN      r4,r5
        0x08003d20:    d0bc        ..      BEQ      0x8003c9c ; _dadd1 + 140
        0x08003d22:    4610        .F      MOV      r0,r2
        0x08003d24:    4619        .F      MOV      r1,r3
        0x08003d26:    bdf0        ..      POP      {r4-r7,pc}
        0x08003d28:    4299        .B      CMP      r1,r3
        0x08003d2a:    d0fc        ..      BEQ      0x8003d26 ; _dadd1 + 278
        0x08003d2c:    2000        .       MOVS     r0,#0
        0x08003d2e:    4639        9F      MOV      r1,r7
        0x08003d30:    bdf0        ..      POP      {r4-r7,pc}
    _dsub1
        0x08003d32:    b5f0        ..      PUSH     {r4-r7,lr}
        0x08003d34:    b41f        ..      PUSH     {r0-r4}
        0x08003d36:    460c        .F      MOV      r4,r1
        0x08003d38:    460f        .F      MOV      r7,r1
        0x08003d3a:    1a81        ..      SUBS     r1,r0,r2
        0x08003d3c:    419f        .A      SBCS     r7,r7,r3
        0x08003d3e:    4625        %F      MOV      r5,r4
        0x08003d40:    1a86        ..      SUBS     r6,r0,r2
        0x08003d42:    419d        .A      SBCS     r5,r5,r3
        0x08003d44:    d206        ..      BCS      0x8003d54 ; _dsub1 + 34
        0x08003d46:    2501        .%      MOVS     r5,#1
        0x08003d48:    07ed        ..      LSLS     r5,r5,#31
        0x08003d4a:    406f        o@      EORS     r7,r7,r5
        0x08003d4c:    1a40        @.      SUBS     r0,r0,r1
        0x08003d4e:    41bc        .A      SBCS     r4,r4,r7
        0x08003d50:    1852        R.      ADDS     r2,r2,r1
        0x08003d52:    417b        {A      ADCS     r3,r3,r7
        0x08003d54:    0d21        !.      LSRS     r1,r4,#20
        0x08003d56:    0d1e        ..      LSRS     r6,r3,#20
        0x08003d58:    1b8d        ..      SUBS     r5,r1,r6
        0x08003d5a:    46ac        .F      MOV      r12,r5
        0x08003d5c:    4d7d        }M      LDR      r5,[pc,#500] ; [0x8003f54] = 0x7ff
        0x08003d5e:    438d        .C      BICS     r5,r5,r1
        0x08003d60:    d07e        ~.      BEQ      0x8003e60 ; _dsub1 + 302
        0x08003d62:    0575        u.      LSLS     r5,r6,#21
        0x08003d64:    0d6d        m.      LSRS     r5,r5,#21
        0x08003d66:    d07c        |.      BEQ      0x8003e62 ; _dsub1 + 304
        0x08003d68:    050d        ..      LSLS     r5,r1,#20
        0x08003d6a:    46ae        .F      MOV      lr,r5
        0x08003d6c:    43ac        .C      BICS     r4,r4,r5
        0x08003d6e:    031b        ..      LSLS     r3,r3,#12
        0x08003d70:    0b1b        ..      LSRS     r3,r3,#12
        0x08003d72:    4d79        yM      LDR      r5,[pc,#484] ; [0x8003f58] = 0xfff00000
        0x08003d74:    4252        RB      RSBS     r2,r2,#0
        0x08003d76:    419d        .A      SBCS     r5,r5,r3
        0x08003d78:    2320         #      MOVS     r3,#0x20
        0x08003d7a:    4666        fF      MOV      r6,r12
        0x08003d7c:    1b9b        ..      SUBS     r3,r3,r6
        0x08003d7e:    d314        ..      BCC      0x8003daa ; _dsub1 + 120
        0x08003d80:    4617        .F      MOV      r7,r2
        0x08003d82:    40f7        .@      LSRS     r7,r7,r6
        0x08003d84:    1838        8.      ADDS     r0,r7,r0
        0x08003d86:    2600        .&      MOVS     r6,#0
        0x08003d88:    9000        ..      STR      r0,[sp,#0]
        0x08003d8a:    4174        tA      ADCS     r4,r4,r6
        0x08003d8c:    4660        `F      MOV      r0,r12
        0x08003d8e:    462f        /F      MOV      r7,r5
        0x08003d90:    4107        .A      ASRS     r7,r7,r0
        0x08003d92:    19e4        ..      ADDS     r4,r4,r7
        0x08003d94:    9800        ..      LDR      r0,[sp,#0]
        0x08003d96:    409d        .@      LSLS     r5,r5,r3
        0x08003d98:    1828        (.      ADDS     r0,r5,r0
        0x08003d9a:    4166        fA      ADCS     r6,r6,r4
        0x08003d9c:    d416        ..      BMI      0x8003dcc ; _dsub1 + 154
        0x08003d9e:    4671        qF      MOV      r1,lr
        0x08003da0:    1871        q.      ADDS     r1,r6,r1
        0x08003da2:    409a        .@      LSLS     r2,r2,r3
        0x08003da4:    d525        %.      BPL      0x8003df2 ; _dsub1 + 192
        0x08003da6:    2301        .#      MOVS     r3,#1
        0x08003da8:    e020         .      B        0x8003dec ; _dsub1 + 186
        0x08003daa:    1893        ..      ADDS     r3,r2,r2
        0x08003dac:    462a        *F      MOV      r2,r5
        0x08003dae:    416a        jA      ADCS     r2,r2,r5
        0x08003db0:    0052        R.      LSLS     r2,r2,#1
        0x08003db2:    2b00        .+      CMP      r3,#0
        0x08003db4:    d000        ..      BEQ      0x8003db8 ; _dsub1 + 134
        0x08003db6:    1c52        R.      ADDS     r2,r2,#1
        0x08003db8:    231e        .#      MOVS     r3,#0x1e
        0x08003dba:    3e20         >      SUBS     r6,r6,#0x20
        0x08003dbc:    1b9b        ..      SUBS     r3,r3,r6
        0x08003dbe:    2b00        .+      CMP      r3,#0
        0x08003dc0:    dd61        a.      BLE      0x8003e86 ; _dsub1 + 340
        0x08003dc2:    4135        5A      ASRS     r5,r5,r6
        0x08003dc4:    17ee        ..      ASRS     r6,r5,#31
        0x08003dc6:    1828        (.      ADDS     r0,r5,r0
        0x08003dc8:    4166        fA      ADCS     r6,r6,r4
        0x08003dca:    d5e8        ..      BPL      0x8003d9e ; _dsub1 + 108
        0x08003dcc:    1800        ..      ADDS     r0,r0,r0
        0x08003dce:    4176        vA      ADCS     r6,r6,r6
        0x08003dd0:    1c5b        [.      ADDS     r3,r3,#1
        0x08003dd2:    409a        .@      LSLS     r2,r2,r3
        0x08003dd4:    d300        ..      BCC      0x8003dd8 ; _dsub1 + 166
        0x08003dd6:    1c40        @.      ADDS     r0,r0,#1
        0x08003dd8:    054b        K.      LSLS     r3,r1,#21
        0x08003dda:    18f3        ..      ADDS     r3,r6,r3
        0x08003ddc:    2415        .$      MOVS     r4,#0x15
        0x08003dde:    40e3        .@      LSRS     r3,r3,r4
        0x08003de0:    d310        ..      BCC      0x8003e04 ; _dsub1 + 210
        0x08003de2:    2b00        .+      CMP      r3,#0
        0x08003de4:    d052        R.      BEQ      0x8003e8c ; _dsub1 + 346
        0x08003de6:    4671        qF      MOV      r1,lr
        0x08003de8:    1871        q.      ADDS     r1,r6,r1
        0x08003dea:    0fd3        ..      LSRS     r3,r2,#31
        0x08003dec:    18c0        ..      ADDS     r0,r0,r3
        0x08003dee:    d302        ..      BCC      0x8003df6 ; _dsub1 + 196
        0x08003df0:    1c49        I.      ADDS     r1,r1,#1
        0x08003df2:    b005        ..      ADD      sp,sp,#0x14
        0x08003df4:    bdf0        ..      POP      {r4-r7,pc}
        0x08003df6:    2301        .#      MOVS     r3,#1
        0x08003df8:    07db        ..      LSLS     r3,r3,#31
        0x08003dfa:    429a        .B      CMP      r2,r3
        0x08003dfc:    d1f9        ..      BNE      0x8003df2 ; _dsub1 + 192
        0x08003dfe:    0840        @.      LSRS     r0,r0,#1
        0x08003e00:    0040        @.      LSLS     r0,r0,#1
        0x08003e02:    e7f6        ..      B        0x8003df2 ; _dsub1 + 192
        0x08003e04:    2201        ."      MOVS     r2,#1
        0x08003e06:    0552        R.      LSLS     r2,r2,#21
        0x08003e08:    18b2        ..      ADDS     r2,r6,r2
        0x08003e0a:    d101        ..      BNE      0x8003e10 ; _dsub1 + 222
        0x08003e0c:    2800        .(      CMP      r0,#0
        0x08003e0e:    d053        S.      BEQ      0x8003eb8 ; _dsub1 + 390
        0x08003e10:    2301        .#      MOVS     r3,#1
        0x08003e12:    0acc        ..      LSRS     r4,r1,#11
        0x08003e14:    02db        ..      LSLS     r3,r3,#11
        0x08003e16:    4399        .C      BICS     r1,r1,r3
        0x08003e18:    1e89        ..      SUBS     r1,r1,#2
        0x08003e1a:    2a00        .*      CMP      r2,#0
        0x08003e1c:    d108        ..      BNE      0x8003e30 ; _dsub1 + 254
        0x08003e1e:    0c02        ..      LSRS     r2,r0,#16
        0x08003e20:    d003        ..      BEQ      0x8003e2a ; _dsub1 + 248
        0x08003e22:    0c02        ..      LSRS     r2,r0,#16
        0x08003e24:    0400        ..      LSLS     r0,r0,#16
        0x08003e26:    3910        .9      SUBS     r1,r1,#0x10
        0x08003e28:    e002        ..      B        0x8003e30 ; _dsub1 + 254
        0x08003e2a:    4602        .F      MOV      r2,r0
        0x08003e2c:    2000        .       MOVS     r0,#0
        0x08003e2e:    3920         9      SUBS     r1,r1,#0x20
        0x08003e30:    2300        .#      MOVS     r3,#0
        0x08003e32:    0b55        U.      LSRS     r5,r2,#13
        0x08003e34:    d105        ..      BNE      0x8003e42 ; _dsub1 + 272
        0x08003e36:    0212        ..      LSLS     r2,r2,#8
        0x08003e38:    2308        .#      MOVS     r3,#8
        0x08003e3a:    0b55        U.      LSRS     r5,r2,#13
        0x08003e3c:    d101        ..      BNE      0x8003e42 ; _dsub1 + 272
        0x08003e3e:    0152        R.      LSLS     r2,r2,#5
        0x08003e40:    230d        .#      MOVS     r3,#0xd
        0x08003e42:    0c55        U.      LSRS     r5,r2,#17
        0x08003e44:    d101        ..      BNE      0x8003e4a ; _dsub1 + 280
        0x08003e46:    0112        ..      LSLS     r2,r2,#4
        0x08003e48:    1d1b        ..      ADDS     r3,r3,#4
        0x08003e4a:    0cd5        ..      LSRS     r5,r2,#19
        0x08003e4c:    d101        ..      BNE      0x8003e52 ; _dsub1 + 288
        0x08003e4e:    0092        ..      LSLS     r2,r2,#2
        0x08003e50:    1c9b        ..      ADDS     r3,r3,#2
        0x08003e52:    0d15        ..      LSRS     r5,r2,#20
        0x08003e54:    d101        ..      BNE      0x8003e5a ; _dsub1 + 296
        0x08003e56:    0052        R.      LSLS     r2,r2,#1
        0x08003e58:    1c5b        [.      ADDS     r3,r3,#1
        0x08003e5a:    2520         %      MOVS     r5,#0x20
        0x08003e5c:    1aee        ..      SUBS     r6,r5,r3
        0x08003e5e:    e001        ..      B        0x8003e64 ; _dsub1 + 306
        0x08003e60:    e02c        ,.      B        0x8003ebc ; _dsub1 + 394
        0x08003e62:    e022        ".      B        0x8003eaa ; _dsub1 + 376
        0x08003e64:    4605        .F      MOV      r5,r0
        0x08003e66:    40f5        .@      LSRS     r5,r5,r6
        0x08003e68:    4315        .C      ORRS     r5,r5,r2
        0x08003e6a:    4098        .@      LSLS     r0,r0,r3
        0x08003e6c:    1aca        ..      SUBS     r2,r1,r3
        0x08003e6e:    07e1        ..      LSLS     r1,r4,#31
        0x08003e70:    1869        i.      ADDS     r1,r5,r1
        0x08003e72:    0513        ..      LSLS     r3,r2,#20
        0x08003e74:    18c9        ..      ADDS     r1,r1,r3
        0x08003e76:    2a00        .*      CMP      r2,#0
        0x08003e78:    dabb        ..      BGE      0x8003df2 ; _dsub1 + 192
        0x08003e7a:    2003        .       MOVS     r0,#3
        0x08003e7c:    0740        @.      LSLS     r0,r0,#29
        0x08003e7e:    1808        ..      ADDS     r0,r1,r0
        0x08003e80:    0fc1        ..      LSRS     r1,r0,#31
        0x08003e82:    07c9        ..      LSLS     r1,r1,#31
        0x08003e84:    e00f        ..      B        0x8003ea6 ; _dsub1 + 372
        0x08003e86:    4671        qF      MOV      r1,lr
        0x08003e88:    1861        a.      ADDS     r1,r4,r1
        0x08003e8a:    e7b2        ..      B        0x8003df2 ; _dsub1 + 192
        0x08003e8c:    07f1        ..      LSLS     r1,r6,#31
        0x08003e8e:    0840        @.      LSRS     r0,r0,#1
        0x08003e90:    4308        .C      ORRS     r0,r0,r1
        0x08003e92:    1071        q.      ASRS     r1,r6,#1
        0x08003e94:    4471        qD      ADD      r1,r1,lr
        0x08003e96:    004a        J.      LSLS     r2,r1,#1
        0x08003e98:    d00c        ..      BEQ      0x8003eb4 ; _dsub1 + 386
        0x08003e9a:    2301        .#      MOVS     r3,#1
        0x08003e9c:    055b        [.      LSLS     r3,r3,#21
        0x08003e9e:    429a        .B      CMP      r2,r3
        0x08003ea0:    d2a7        ..      BCS      0x8003df2 ; _dsub1 + 192
        0x08003ea2:    0fc9        ..      LSRS     r1,r1,#31
        0x08003ea4:    07c9        ..      LSLS     r1,r1,#31
        0x08003ea6:    2000        .       MOVS     r0,#0
        0x08003ea8:    e7a3        ..      B        0x8003df2 ; _dsub1 + 192
        0x08003eaa:    0549        I.      LSLS     r1,r1,#21
        0x08003eac:    0d49        I.      LSRS     r1,r1,#21
        0x08003eae:    d126        &.      BNE      0x8003efe ; _dsub1 + 460
        0x08003eb0:    2000        .       MOVS     r0,#0
        0x08003eb2:    e001        ..      B        0x8003eb8 ; _dsub1 + 390
        0x08003eb4:    2800        .(      CMP      r0,#0
        0x08003eb6:    d1f4        ..      BNE      0x8003ea2 ; _dsub1 + 368
        0x08003eb8:    2100        .!      MOVS     r1,#0
        0x08003eba:    e79a        ..      B        0x8003df2 ; _dsub1 + 192
        0x08003ebc:    4d28        (M      LDR      r5,[pc,#160] ; [0x8003f60] = 0xffe00000
        0x08003ebe:    0066        f.      LSLS     r6,r4,#1
        0x08003ec0:    2800        .(      CMP      r0,#0
        0x08003ec2:    d001        ..      BEQ      0x8003ec8 ; _dsub1 + 406
        0x08003ec4:    2101        .!      MOVS     r1,#1
        0x08003ec6:    e000        ..      B        0x8003eca ; _dsub1 + 408
        0x08003ec8:    2100        .!      MOVS     r1,#0
        0x08003eca:    1871        q.      ADDS     r1,r6,r1
        0x08003ecc:    005f        _.      LSLS     r7,r3,#1
        0x08003ece:    2a00        .*      CMP      r2,#0
        0x08003ed0:    d001        ..      BEQ      0x8003ed6 ; _dsub1 + 420
        0x08003ed2:    2601        .&      MOVS     r6,#1
        0x08003ed4:    e000        ..      B        0x8003ed8 ; _dsub1 + 422
        0x08003ed6:    2600        .&      MOVS     r6,#0
        0x08003ed8:    19be        ..      ADDS     r6,r7,r6
        0x08003eda:    4f22        "O      LDR      r7,[pc,#136] ; [0x8003f64] = 0x7ff80000
        0x08003edc:    42a9        .B      CMP      r1,r5
        0x08003ede:    d810        ..      BHI      0x8003f02 ; _dsub1 + 464
        0x08003ee0:    42ae        .B      CMP      r6,r5
        0x08003ee2:    d80e        ..      BHI      0x8003f02 ; _dsub1 + 464
        0x08003ee4:    42b1        .B      CMP      r1,r6
        0x08003ee6:    d008        ..      BEQ      0x8003efa ; _dsub1 + 456
        0x08003ee8:    2501        .%      MOVS     r5,#1
        0x08003eea:    056d        m.      LSLS     r5,r5,#21
        0x08003eec:    42e9        .B      CMN      r1,r5
        0x08003eee:    d006        ..      BEQ      0x8003efe ; _dsub1 + 460
        0x08003ef0:    4619        .F      MOV      r1,r3
        0x08003ef2:    02a8        ..      LSLS     r0,r5,#10
        0x08003ef4:    4041        A@      EORS     r1,r1,r0
        0x08003ef6:    4610        .F      MOV      r0,r2
        0x08003ef8:    e77b        {.      B        0x8003df2 ; _dsub1 + 192
        0x08003efa:    429c        .B      CMP      r4,r3
        0x08003efc:    d001        ..      BEQ      0x8003f02 ; _dsub1 + 464
        0x08003efe:    4621        !F      MOV      r1,r4
        0x08003f00:    e777        w.      B        0x8003df2 ; _dsub1 + 192
        0x08003f02:    2000        .       MOVS     r0,#0
        0x08003f04:    4639        9F      MOV      r1,r7
        0x08003f06:    e774        t.      B        0x8003df2 ; _dsub1 + 192
    __aeabi_dadd
    _dadd
        0x08003f08:    b510        ..      PUSH     {r4,lr}
        0x08003f0a:    460c        .F      MOV      r4,r1
        0x08003f0c:    405c        \@      EORS     r4,r4,r3
        0x08003f0e:    d505        ..      BPL      0x8003f1c ; __aeabi_dadd + 20
        0x08003f10:    2401        .$      MOVS     r4,#1
        0x08003f12:    07e4        ..      LSLS     r4,r4,#31
        0x08003f14:    4063        c@      EORS     r3,r3,r4
        0x08003f16:    f7ffff0c    ....    BL       _dsub1 ; 0x8003d32
        0x08003f1a:    bd10        ..      POP      {r4,pc}
        0x08003f1c:    f7fffe78    ..x.    BL       _dadd1 ; 0x8003c10
        0x08003f20:    bd10        ..      POP      {r4,pc}
    __aeabi_dsub
    _dsub
        0x08003f22:    b430        0.      PUSH     {r4,r5}
        0x08003f24:    460c        .F      MOV      r4,r1
        0x08003f26:    405c        \@      EORS     r4,r4,r3
        0x08003f28:    d504        ..      BPL      0x8003f34 ; __aeabi_dsub + 18
        0x08003f2a:    2401        .$      MOVS     r4,#1
        0x08003f2c:    07e4        ..      LSLS     r4,r4,#31
        0x08003f2e:    4063        c@      EORS     r3,r3,r4
        0x08003f30:    bc30        0.      POP      {r4,r5}
        0x08003f32:    e66d        m.      B        _dadd1 ; 0x8003c10
        0x08003f34:    bc30        0.      POP      {r4,r5}
        0x08003f36:    e6fc        ..      B        _dsub1 ; 0x8003d32
    __aeabi_drsub
    _drsb
        0x08003f38:    b570        p.      PUSH     {r4-r6,lr}
        0x08003f3a:    2401        .$      MOVS     r4,#1
        0x08003f3c:    07e4        ..      LSLS     r4,r4,#31
        0x08003f3e:    4061        a@      EORS     r1,r1,r4
        0x08003f40:    460d        .F      MOV      r5,r1
        0x08003f42:    405d        ]@      EORS     r5,r5,r3
        0x08003f44:    d402        ..      BMI      0x8003f4c ; __aeabi_drsub + 20
        0x08003f46:    f7fffe63    ..c.    BL       _dadd1 ; 0x8003c10
        0x08003f4a:    bd70        p.      POP      {r4-r6,pc}
        0x08003f4c:    4063        c@      EORS     r3,r3,r4
        0x08003f4e:    f7fffef0    ....    BL       _dsub1 ; 0x8003d32
        0x08003f52:    bd70        p.      POP      {r4-r6,pc}
    $d
        0x08003f54:    000007ff    ....    DCD    2047
        0x08003f58:    fff00000    ....    DCD    4293918720
        0x08003f5c:    7ff00000    ....    DCD    2146435072
        0x08003f60:    ffe00000    ....    DCD    4292870144
        0x08003f64:    7ff80000    ....    DCD    2146959360
    $t
    .text
    __aeabi_d2uiz
    _dfixu
        0x08003f68:    4603        .F      MOV      r3,r0
        0x08003f6a:    02ca        ..      LSLS     r2,r1,#11
        0x08003f6c:    0d40        @.      LSRS     r0,r0,#21
        0x08003f6e:    b510        ..      PUSH     {r4,lr}
        0x08003f70:    4310        .C      ORRS     r0,r0,r2
        0x08003f72:    150a        ..      ASRS     r2,r1,#20
        0x08003f74:    d004        ..      BEQ      0x8003f80 ; __aeabi_d2uiz + 24
        0x08003f76:    2401        .$      MOVS     r4,#1
        0x08003f78:    07e4        ..      LSLS     r4,r4,#31
        0x08003f7a:    4320         C      ORRS     r0,r0,r4
        0x08003f7c:    2a00        .*      CMP      r2,#0
        0x08003f7e:    db05        ..      BLT      0x8003f8c ; __aeabi_d2uiz + 36
        0x08003f80:    4c0a        .L      LDR      r4,[pc,#40] ; [0x8003fac] = 0x41e
        0x08003f82:    1aa2        ..      SUBS     r2,r4,r2
        0x08003f84:    d404        ..      BMI      0x8003f90 ; __aeabi_d2uiz + 40
        0x08003f86:    40d0        .@      LSRS     r0,r0,r2
        0x08003f88:    2aff        .*      CMP      r2,#0xff
        0x08003f8a:    dd00        ..      BLE      0x8003f8e ; __aeabi_d2uiz + 38
        0x08003f8c:    2000        .       MOVS     r0,#0
        0x08003f8e:    bd10        ..      POP      {r4,pc}
        0x08003f90:    004a        J.      LSLS     r2,r1,#1
        0x08003f92:    2b00        .+      CMP      r3,#0
        0x08003f94:    d001        ..      BEQ      0x8003f9a ; __aeabi_d2uiz + 50
        0x08003f96:    2001        .       MOVS     r0,#1
        0x08003f98:    e000        ..      B        0x8003f9c ; __aeabi_d2uiz + 52
        0x08003f9a:    2000        .       MOVS     r0,#0
        0x08003f9c:    1810        ..      ADDS     r0,r2,r0
        0x08003f9e:    2201        ."      MOVS     r2,#1
        0x08003fa0:    0552        R.      LSLS     r2,r2,#21
        0x08003fa2:    42d0        .B      CMN      r0,r2
        0x08003fa4:    d8f2        ..      BHI      0x8003f8c ; __aeabi_d2uiz + 36
        0x08003fa6:    17c8        ..      ASRS     r0,r1,#31
        0x08003fa8:    43c0        .C      MVNS     r0,r0
        0x08003faa:    bd10        ..      POP      {r4,pc}
    $d
        0x08003fac:    0000041e    ....    DCD    1054
    $t
    .text
    __aeabi_i2d_normalise
        0x08003fb0:    221f        ."      MOVS     r2,#0x1f
        0x08003fb2:    0c03        ..      LSRS     r3,r0,#16
        0x08003fb4:    d102        ..      BNE      0x8003fbc ; __aeabi_i2d_normalise + 12
        0x08003fb6:    220f        ."      MOVS     r2,#0xf
        0x08003fb8:    0400        ..      LSLS     r0,r0,#16
        0x08003fba:    d002        ..      BEQ      0x8003fc2 ; __aeabi_i2d_normalise + 18
        0x08003fbc:    0e03        ..      LSRS     r3,r0,#24
        0x08003fbe:    d003        ..      BEQ      0x8003fc8 ; __aeabi_i2d_normalise + 24
        0x08003fc0:    e004        ..      B        0x8003fcc ; __aeabi_i2d_normalise + 28
        0x08003fc2:    2000        .       MOVS     r0,#0
        0x08003fc4:    4601        .F      MOV      r1,r0
        0x08003fc6:    4770        pG      BX       lr
        0x08003fc8:    0200        ..      LSLS     r0,r0,#8
        0x08003fca:    3a08        .:      SUBS     r2,r2,#8
        0x08003fcc:    0f03        ..      LSRS     r3,r0,#28
        0x08003fce:    d101        ..      BNE      0x8003fd4 ; __aeabi_i2d_normalise + 36
        0x08003fd0:    0100        ..      LSLS     r0,r0,#4
        0x08003fd2:    1f12        ..      SUBS     r2,r2,#4
        0x08003fd4:    0f83        ..      LSRS     r3,r0,#30
        0x08003fd6:    d101        ..      BNE      0x8003fdc ; __aeabi_i2d_normalise + 44
        0x08003fd8:    0080        ..      LSLS     r0,r0,#2
        0x08003fda:    1e92        ..      SUBS     r2,r2,#2
        0x08003fdc:    2800        .(      CMP      r0,#0
        0x08003fde:    db01        ..      BLT      0x8003fe4 ; __aeabi_i2d_normalise + 52
        0x08003fe0:    0040        @.      LSLS     r0,r0,#1
        0x08003fe2:    1e52        R.      SUBS     r2,r2,#1
        0x08003fe4:    0512        ..      LSLS     r2,r2,#20
        0x08003fe6:    1851        Q.      ADDS     r1,r2,r1
        0x08003fe8:    0542        B.      LSLS     r2,r0,#21
        0x08003fea:    12c0        ..      ASRS     r0,r0,#11
        0x08003fec:    1841        A.      ADDS     r1,r0,r1
        0x08003fee:    4610        .F      MOV      r0,r2
        0x08003ff0:    4770        pG      BX       lr
    __aeabi_i2d
    _dflt
        0x08003ff2:    0fc1        ..      LSRS     r1,r0,#31
        0x08003ff4:    07c9        ..      LSLS     r1,r1,#31
        0x08003ff6:    d000        ..      BEQ      0x8003ffa ; __aeabi_i2d + 8
        0x08003ff8:    4240        @B      RSBS     r0,r0,#0
        0x08003ffa:    2201        ."      MOVS     r2,#1
        0x08003ffc:    0792        ..      LSLS     r2,r2,#30
        0x08003ffe:    4311        .C      ORRS     r1,r1,r2
        0x08004000:    e7d6        ..      B        __aeabi_i2d_normalise ; 0x8003fb0
    __aeabi_ui2d
    _dfltu
        0x08004002:    2101        .!      MOVS     r1,#1
        0x08004004:    0789        ..      LSLS     r1,r1,#30
        0x08004006:    e7d3        ..      B        __aeabi_i2d_normalise ; 0x8003fb0
    .text
    __aeabi_dmul
    _dmul
        0x08004008:    b5f0        ..      PUSH     {r4-r7,lr}
        0x0800400a:    4c8b        .L      LDR      r4,[pc,#556] ; [0x8004238] = 0x7ff0000
        0x0800400c:    090f        ..      LSRS     r7,r1,#4
        0x0800400e:    4625        %F      MOV      r5,r4
        0x08004010:    b089        ..      SUB      sp,sp,#0x24
        0x08004012:    43bd        .C      BICS     r5,r5,r7
        0x08004014:    d07b        {.      BEQ      0x800410e ; __aeabi_dmul + 262
        0x08004016:    091d        ..      LSRS     r5,r3,#4
        0x08004018:    4626        &F      MOV      r6,r4
        0x0800401a:    43ae        .C      BICS     r6,r6,r5
        0x0800401c:    d0fa        ..      BEQ      0x8004014 ; __aeabi_dmul + 12
        0x0800401e:    460e        .F      MOV      r6,r1
        0x08004020:    405e        ^@      EORS     r6,r6,r3
        0x08004022:    4027        '@      ANDS     r7,r7,r4
        0x08004024:    0ff6        ..      LSRS     r6,r6,#31
        0x08004026:    433e        >C      ORRS     r6,r6,r7
        0x08004028:    4025        %@      ANDS     r5,r5,r4
        0x0800402a:    d071        q.      BEQ      0x8004110 ; __aeabi_dmul + 264
        0x0800402c:    0124        $.      LSLS     r4,r4,#4
        0x0800402e:    4221        !B      TST      r1,r4
        0x08004030:    d0fb        ..      BEQ      0x800402a ; __aeabi_dmul + 34
        0x08004032:    24ff        .$      MOVS     r4,#0xff
        0x08004034:    19ad        ..      ADDS     r5,r5,r6
        0x08004036:    04a4        ..      LSLS     r4,r4,#18
        0x08004038:    1b2d        -.      SUBS     r5,r5,r4
        0x0800403a:    9503        ..      STR      r5,[sp,#0xc]
        0x0800403c:    2501        .%      MOVS     r5,#1
        0x0800403e:    052d        -.      LSLS     r5,r5,#20
        0x08004040:    02db        ..      LSLS     r3,r3,#11
        0x08004042:    0adb        ..      LSRS     r3,r3,#11
        0x08004044:    02c9        ..      LSLS     r1,r1,#11
        0x08004046:    432b        +C      ORRS     r3,r3,r5
        0x08004048:    0ac9        ..      LSRS     r1,r1,#11
        0x0800404a:    4329        )C      ORRS     r1,r1,r5
        0x0800404c:    011e        ..      LSLS     r6,r3,#4
        0x0800404e:    0109        ..      LSLS     r1,r1,#4
        0x08004050:    0f04        ..      LSRS     r4,r0,#28
        0x08004052:    0f13        ..      LSRS     r3,r2,#28
        0x08004054:    0105        ..      LSLS     r5,r0,#4
        0x08004056:    4321        !C      ORRS     r1,r1,r4
        0x08004058:    0117        ..      LSLS     r7,r2,#4
        0x0800405a:    0b88        ..      LSRS     r0,r1,#14
        0x0800405c:    0382        ..      LSLS     r2,r0,#14
        0x0800405e:    4391        .C      BICS     r1,r1,r2
        0x08004060:    092d        -.      LSRS     r5,r5,#4
        0x08004062:    468c        .F      MOV      r12,r1
        0x08004064:    0ba9        ..      LSRS     r1,r5,#14
        0x08004066:    431e        .C      ORRS     r6,r6,r3
        0x08004068:    038a        ..      LSLS     r2,r1,#14
        0x0800406a:    4395        .C      BICS     r5,r5,r2
        0x0800406c:    0bb3        ..      LSRS     r3,r6,#14
        0x0800406e:    039a        ..      LSLS     r2,r3,#14
        0x08004070:    4396        .C      BICS     r6,r6,r2
        0x08004072:    093f        ?.      LSRS     r7,r7,#4
        0x08004074:    0bba        ..      LSRS     r2,r7,#14
        0x08004076:    0394        ..      LSLS     r4,r2,#14
        0x08004078:    43a7        .C      BICS     r7,r7,r4
        0x0800407a:    9602        ..      STR      r6,[sp,#8]
        0x0800407c:    462e        .F      MOV      r6,r5
        0x0800407e:    437e        ~C      MULS     r6,r7,r6
        0x08004080:    9704        ..      STR      r7,[sp,#0x10]
        0x08004082:    46b6        .F      MOV      lr,r6
        0x08004084:    194e        N.      ADDS     r6,r1,r5
        0x08004086:    19d7        ..      ADDS     r7,r2,r7
        0x08004088:    460c        .F      MOV      r4,r1
        0x0800408a:    9601        ..      STR      r6,[sp,#4]
        0x0800408c:    4354        TC      MULS     r4,r2,r4
        0x0800408e:    9705        ..      STR      r7,[sp,#0x14]
        0x08004090:    437e        ~C      MULS     r6,r7,r6
        0x08004092:    1b37        7.      SUBS     r7,r6,r4
        0x08004094:    4676        vF      MOV      r6,lr
        0x08004096:    1bbf        ..      SUBS     r7,r7,r6
        0x08004098:    0136        6.      LSLS     r6,r6,#4
        0x0800409a:    46b6        .F      MOV      lr,r6
        0x0800409c:    0bbe        ..      LSRS     r6,r7,#14
        0x0800409e:    1936        6.      ADDS     r6,r6,r4
        0x080040a0:    9600        ..      STR      r6,[sp,#0]
        0x080040a2:    4676        vF      MOV      r6,lr
        0x080040a4:    04bc        ..      LSLS     r4,r7,#18
        0x080040a6:    1937        7.      ADDS     r7,r6,r4
        0x080040a8:    9c00        ..      LDR      r4,[sp,#0]
        0x080040aa:    d301        ..      BCC      0x80040b0 ; __aeabi_dmul + 168
        0x080040ac:    1c64        d.      ADDS     r4,r4,#1
        0x080040ae:    9400        ..      STR      r4,[sp,#0]
        0x080040b0:    0064        d.      LSLS     r4,r4,#1
        0x080040b2:    2f00        ./      CMP      r7,#0
        0x080040b4:    d001        ..      BEQ      0x80040ba ; __aeabi_dmul + 178
        0x080040b6:    2601        .&      MOVS     r6,#1
        0x080040b8:    4334        4C      ORRS     r4,r4,r6
        0x080040ba:    9e02        ..      LDR      r6,[sp,#8]
        0x080040bc:    9f04        ..      LDR      r7,[sp,#0x10]
        0x080040be:    4375        uC      MULS     r5,r6,r5
        0x080040c0:    4666        fF      MOV      r6,r12
        0x080040c2:    437e        ~C      MULS     r6,r7,r6
        0x080040c4:    9604        ..      STR      r6,[sp,#0x10]
        0x080040c6:    0076        v.      LSLS     r6,r6,#1
        0x080040c8:    1934        4.      ADDS     r4,r6,r4
        0x080040ca:    006e        n.      LSLS     r6,r5,#1
        0x080040cc:    1934        4.      ADDS     r4,r6,r4
        0x080040ce:    9400        ..      STR      r4,[sp,#0]
        0x080040d0:    9c02        ..      LDR      r4,[sp,#8]
        0x080040d2:    9e01        ..      LDR      r6,[sp,#4]
        0x080040d4:    191c        ..      ADDS     r4,r3,r4
        0x080040d6:    4366        fC      MULS     r6,r4,r6
        0x080040d8:    1b75        u.      SUBS     r5,r6,r5
        0x080040da:    46ae        .F      MOV      lr,r5
        0x080040dc:    9406        ..      STR      r4,[sp,#0x18]
        0x080040de:    4665        eF      MOV      r5,r12
        0x080040e0:    1945        E.      ADDS     r5,r0,r5
        0x080040e2:    9c05        ..      LDR      r4,[sp,#0x14]
        0x080040e4:    9505        ..      STR      r5,[sp,#0x14]
        0x080040e6:    436c        lC      MULS     r4,r5,r4
        0x080040e8:    4359        YC      MULS     r1,r3,r1
        0x080040ea:    4675        uF      MOV      r5,lr
        0x080040ec:    9108        ..      STR      r1,[sp,#0x20]
        0x080040ee:    1a69        i.      SUBS     r1,r5,r1
        0x080040f0:    9101        ..      STR      r1,[sp,#4]
        0x080040f2:    9e04        ..      LDR      r6,[sp,#0x10]
        0x080040f4:    4601        .F      MOV      r1,r0
        0x080040f6:    4351        QC      MULS     r1,r2,r1
        0x080040f8:    1ba4        ..      SUBS     r4,r4,r6
        0x080040fa:    9104        ..      STR      r1,[sp,#0x10]
        0x080040fc:    1a61        a.      SUBS     r1,r4,r1
        0x080040fe:    9c00        ..      LDR      r4,[sp,#0]
        0x08004100:    9107        ..      STR      r1,[sp,#0x1c]
        0x08004102:    06e1        ..      LSLS     r1,r4,#27
        0x08004104:    d005        ..      BEQ      0x8004112 ; __aeabi_dmul + 266
        0x08004106:    0961        a.      LSRS     r1,r4,#5
        0x08004108:    2201        ."      MOVS     r2,#1
        0x0800410a:    4311        .C      ORRS     r1,r1,r2
        0x0800410c:    e002        ..      B        0x8004114 ; __aeabi_dmul + 268
        0x0800410e:    e072        r.      B        0x80041f6 ; __aeabi_dmul + 494
        0x08004110:    e06e        n.      B        0x80041f0 ; __aeabi_dmul + 488
        0x08004112:    0961        a.      LSRS     r1,r4,#5
        0x08004114:    9d08        ..      LDR      r5,[sp,#0x20]
        0x08004116:    2700        .'      MOVS     r7,#0
        0x08004118:    0a2c        ,.      LSRS     r4,r5,#8
        0x0800411a:    062d        -.      LSLS     r5,r5,#24
        0x0800411c:    1869        i.      ADDS     r1,r5,r1
        0x0800411e:    9d04        ..      LDR      r5,[sp,#0x10]
        0x08004120:    417c        |A      ADCS     r4,r4,r7
        0x08004122:    0a2a        *.      LSRS     r2,r5,#8
        0x08004124:    062d        -.      LSLS     r5,r5,#24
        0x08004126:    1869        i.      ADDS     r1,r5,r1
        0x08004128:    9d01        ..      LDR      r5,[sp,#4]
        0x0800412a:    4162        bA      ADCS     r2,r2,r4
        0x0800412c:    0dac        ..      LSRS     r4,r5,#22
        0x0800412e:    02ad        ..      LSLS     r5,r5,#10
        0x08004130:    186d        m.      ADDS     r5,r5,r1
        0x08004132:    4154        TA      ADCS     r4,r4,r2
        0x08004134:    9a07        ..      LDR      r2,[sp,#0x1c]
        0x08004136:    0d91        ..      LSRS     r1,r2,#22
        0x08004138:    0292        ..      LSLS     r2,r2,#10
        0x0800413a:    1955        U.      ADDS     r5,r2,r5
        0x0800413c:    4161        aA      ADCS     r1,r1,r4
        0x0800413e:    9a02        ..      LDR      r2,[sp,#8]
        0x08004140:    4664        dF      MOV      r4,r12
        0x08004142:    4358        XC      MULS     r0,r3,r0
        0x08004144:    4354        TC      MULS     r4,r2,r4
        0x08004146:    9b06        ..      LDR      r3,[sp,#0x18]
        0x08004148:    9a05        ..      LDR      r2,[sp,#0x14]
        0x0800414a:    435a        ZC      MULS     r2,r3,r2
        0x0800414c:    1a12        ..      SUBS     r2,r2,r0
        0x0800414e:    1b13        ..      SUBS     r3,r2,r4
        0x08004150:    0e9a        ..      LSRS     r2,r3,#26
        0x08004152:    019b        ..      LSLS     r3,r3,#6
        0x08004154:    185b        [.      ADDS     r3,r3,r1
        0x08004156:    417a        zA      ADCS     r2,r2,r7
        0x08004158:    0b01        ..      LSRS     r1,r0,#12
        0x0800415a:    0500        ..      LSLS     r0,r0,#20
        0x0800415c:    18c3        ..      ADDS     r3,r0,r3
        0x0800415e:    4151        QA      ADCS     r1,r1,r2
        0x08004160:    0a22        ".      LSRS     r2,r4,#8
        0x08004162:    0620         .      LSLS     r0,r4,#24
        0x08004164:    1944        D.      ADDS     r4,r0,r5
        0x08004166:    415a        ZA      ADCS     r2,r2,r3
        0x08004168:    429a        .B      CMP      r2,r3
        0x0800416a:    d200        ..      BCS      0x800416e ; __aeabi_dmul + 358
        0x0800416c:    1c49        I.      ADDS     r1,r1,#1
        0x0800416e:    2001        .       MOVS     r0,#1
        0x08004170:    0240        @.      LSLS     r0,r0,#9
        0x08004172:    4281        .B      CMP      r1,r0
        0x08004174:    d303        ..      BCC      0x800417e ; __aeabi_dmul + 374
        0x08004176:    2315        .#      MOVS     r3,#0x15
        0x08004178:    2602        .&      MOVS     r6,#2
        0x0800417a:    43f6        .C      MVNS     r6,r6
        0x0800417c:    e002        ..      B        0x8004184 ; __aeabi_dmul + 380
        0x0800417e:    2314        .#      MOVS     r3,#0x14
        0x08004180:    2603        .&      MOVS     r6,#3
        0x08004182:    43f6        .C      MVNS     r6,r6
        0x08004184:    2020                MOVS     r0,#0x20
        0x08004186:    1ac5        ..      SUBS     r5,r0,r3
        0x08004188:    40a9        .@      LSLS     r1,r1,r5
        0x0800418a:    4617        .F      MOV      r7,r2
        0x0800418c:    40af        .@      LSLS     r7,r7,r5
        0x0800418e:    40da        .@      LSRS     r2,r2,r3
        0x08004190:    430a        .C      ORRS     r2,r2,r1
        0x08004192:    4620         F      MOV      r0,r4
        0x08004194:    9903        ..      LDR      r1,[sp,#0xc]
        0x08004196:    40d8        .@      LSRS     r0,r0,r3
        0x08004198:    1409        ..      ASRS     r1,r1,#16
        0x0800419a:    1873        s.      ADDS     r3,r6,r1
        0x0800419c:    0519        ..      LSLS     r1,r3,#20
        0x0800419e:    1851        Q.      ADDS     r1,r2,r1
        0x080041a0:    9a03        ..      LDR      r2,[sp,#0xc]
        0x080041a2:    4338        8C      ORRS     r0,r0,r7
        0x080041a4:    07d2        ..      LSLS     r2,r2,#31
        0x080041a6:    4051        Q@      EORS     r1,r1,r2
        0x080041a8:    40ac        .@      LSLS     r4,r4,r5
        0x080041aa:    d009        ..      BEQ      0x80041c0 ; __aeabi_dmul + 440
        0x080041ac:    2201        ."      MOVS     r2,#1
        0x080041ae:    4094        .@      LSLS     r4,r4,r2
        0x080041b0:    d306        ..      BCC      0x80041c0 ; __aeabi_dmul + 440
        0x080041b2:    2200        ."      MOVS     r2,#0
        0x080041b4:    1c40        @.      ADDS     r0,r0,#1
        0x080041b6:    4151        QA      ADCS     r1,r1,r2
        0x080041b8:    2c00        .,      CMP      r4,#0
        0x080041ba:    d101        ..      BNE      0x80041c0 ; __aeabi_dmul + 440
        0x080041bc:    0840        @.      LSRS     r0,r0,#1
        0x080041be:    0040        @.      LSLS     r0,r0,#1
        0x080041c0:    4a1e        .J      LDR      r2,[pc,#120] ; [0x800423c] = 0x7fe
        0x080041c2:    4293        .B      CMP      r3,r2
        0x080041c4:    d312        ..      BCC      0x80041ec ; __aeabi_dmul + 484
        0x080041c6:    2201        ."      MOVS     r2,#1
        0x080041c8:    9803        ..      LDR      r0,[sp,#0xc]
        0x080041ca:    0692        ..      LSLS     r2,r2,#26
        0x080041cc:    4290        .B      CMP      r0,r2
        0x080041ce:    db07        ..      BLT      0x80041e0 ; __aeabi_dmul + 472
        0x080041d0:    2005        .       MOVS     r0,#5
        0x080041d2:    0740        @.      LSLS     r0,r0,#29
        0x080041d4:    1809        ..      ADDS     r1,r1,r0
        0x080041d6:    481a        .H      LDR      r0,[pc,#104] ; [0x8004240] = 0x7fffffff
        0x080041d8:    4301        .C      ORRS     r1,r1,r0
        0x080041da:    12c0        ..      ASRS     r0,r0,#11
        0x080041dc:    4041        A@      EORS     r1,r1,r0
        0x080041de:    e004        ..      B        0x80041ea ; __aeabi_dmul + 482
        0x080041e0:    2003        .       MOVS     r0,#3
        0x080041e2:    0740        @.      LSLS     r0,r0,#29
        0x080041e4:    1808        ..      ADDS     r0,r1,r0
        0x080041e6:    0fc1        ..      LSRS     r1,r0,#31
        0x080041e8:    07c9        ..      LSLS     r1,r1,#31
        0x080041ea:    2000        .       MOVS     r0,#0
        0x080041ec:    b009        ..      ADD      sp,sp,#0x24
        0x080041ee:    bdf0        ..      POP      {r4-r7,pc}
        0x080041f0:    2000        .       MOVS     r0,#0
        0x080041f2:    07f1        ..      LSLS     r1,r6,#31
        0x080041f4:    e7fa        ..      B        0x80041ec ; __aeabi_dmul + 484
        0x080041f6:    1805        ..      ADDS     r5,r0,r0
        0x080041f8:    460c        .F      MOV      r4,r1
        0x080041fa:    414c        LA      ADCS     r4,r4,r1
        0x080041fc:    4811        .H      LDR      r0,[pc,#68] ; [0x8004244] = 0xffe00000
        0x080041fe:    426d        mB      RSBS     r5,r5,#0
        0x08004200:    41a0        .A      SBCS     r0,r0,r4
        0x08004202:    d315        ..      BCC      0x8004230 ; __aeabi_dmul + 552
        0x08004204:    1894        ..      ADDS     r4,r2,r2
        0x08004206:    461a        .F      MOV      r2,r3
        0x08004208:    415a        ZA      ADCS     r2,r2,r3
        0x0800420a:    480e        .H      LDR      r0,[pc,#56] ; [0x8004244] = 0xffe00000
        0x0800420c:    4264        dB      RSBS     r4,r4,#0
        0x0800420e:    4190        .A      SBCS     r0,r0,r2
        0x08004210:    d30e        ..      BCC      0x8004230 ; __aeabi_dmul + 552
        0x08004212:    2001        .       MOVS     r0,#1
        0x08004214:    004a        J.      LSLS     r2,r1,#1
        0x08004216:    0540        @.      LSLS     r0,r0,#21
        0x08004218:    4282        .B      CMP      r2,r0
        0x0800421a:    d309        ..      BCC      0x8004230 ; __aeabi_dmul + 552
        0x0800421c:    005a        Z.      LSLS     r2,r3,#1
        0x0800421e:    4282        .B      CMP      r2,r0
        0x08004220:    d306        ..      BCC      0x8004230 ; __aeabi_dmul + 552
        0x08004222:    4059        Y@      EORS     r1,r1,r3
        0x08004224:    0fc9        ..      LSRS     r1,r1,#31
        0x08004226:    4a08        .J      LDR      r2,[pc,#32] ; [0x8004248] = 0x7ff00000
        0x08004228:    07c9        ..      LSLS     r1,r1,#31
        0x0800422a:    2000        .       MOVS     r0,#0
        0x0800422c:    4311        .C      ORRS     r1,r1,r2
        0x0800422e:    e7dd        ..      B        0x80041ec ; __aeabi_dmul + 484
        0x08004230:    2000        .       MOVS     r0,#0
        0x08004232:    4906        .I      LDR      r1,[pc,#24] ; [0x800424c] = 0x7ff80000
        0x08004234:    e7da        ..      B        0x80041ec ; __aeabi_dmul + 484
    $d
        0x08004236:    0000        ..      DCW    0
        0x08004238:    07ff0000    ....    DCD    134152192
        0x0800423c:    000007fe    ....    DCD    2046
        0x08004240:    7fffffff    ....    DCD    2147483647
        0x08004244:    ffe00000    ....    DCD    4292870144
        0x08004248:    7ff00000    ....    DCD    2146435072
        0x0800424c:    7ff80000    ....    DCD    2146959360
    $t
    .text
    __aeabi_f2d
    _f2d
        0x08004250:    2101        .!      MOVS     r1,#1
        0x08004252:    05c9        ..      LSLS     r1,r1,#23
        0x08004254:    2301        .#      MOVS     r3,#1
        0x08004256:    1841        A.      ADDS     r1,r0,r1
        0x08004258:    0042        B.      LSLS     r2,r0,#1
        0x0800425a:    061b        ..      LSLS     r3,r3,#24
        0x0800425c:    18d3        ..      ADDS     r3,r2,r3
        0x0800425e:    0e5b        [.      LSRS     r3,r3,#25
        0x08004260:    d00a        ..      BEQ      0x8004278 ; __aeabi_f2d + 40
        0x08004262:    10c1        ..      ASRS     r1,r0,#3
        0x08004264:    2207        ."      MOVS     r2,#7
        0x08004266:    06d2        ..      LSLS     r2,r2,#27
        0x08004268:    1889        ..      ADDS     r1,r1,r2
        0x0800426a:    0740        @.      LSLS     r0,r0,#29
        0x0800426c:    4252        RB      RSBS     r2,r2,#0
        0x0800426e:    42d1        .B      CMN      r1,r2
        0x08004270:    d501        ..      BPL      0x8004276 ; __aeabi_f2d + 38
        0x08004272:    0052        R.      LSLS     r2,r2,#1
        0x08004274:    1889        ..      ADDS     r1,r1,r2
        0x08004276:    4770        pG      BX       lr
        0x08004278:    0209        ..      LSLS     r1,r1,#8
        0x0800427a:    d508        ..      BPL      0x800428e ; __aeabi_f2d + 62
        0x0800427c:    4601        .F      MOV      r1,r0
        0x0800427e:    2a00        .*      CMP      r2,#0
        0x08004280:    d003        ..      BEQ      0x800428a ; __aeabi_f2d + 58
        0x08004282:    0fc1        ..      LSRS     r1,r0,#31
        0x08004284:    07c9        ..      LSLS     r1,r1,#31
        0x08004286:    2000        .       MOVS     r0,#0
        0x08004288:    4770        pG      BX       lr
        0x0800428a:    4610        .F      MOV      r0,r2
        0x0800428c:    4770        pG      BX       lr
        0x0800428e:    0242        B.      LSLS     r2,r0,#9
        0x08004290:    d002        ..      BEQ      0x8004298 ; __aeabi_f2d + 72
        0x08004292:    2000        .       MOVS     r0,#0
        0x08004294:    4902        .I      LDR      r1,[pc,#8] ; [0x80042a0] = 0x7ff80000
        0x08004296:    4770        pG      BX       lr
        0x08004298:    2107        .!      MOVS     r1,#7
        0x0800429a:    0509        ..      LSLS     r1,r1,#20
        0x0800429c:    4301        .C      ORRS     r1,r1,r0
        0x0800429e:    e7f4        ..      B        0x800428a ; __aeabi_f2d + 58
    $d
        0x080042a0:    7ff80000    ....    DCD    2146959360
    $t
    .text
    __aeabi_fdiv
    _fdiv
        0x080042a4:    b5f0        ..      PUSH     {r4-r7,lr}
        0x080042a6:    25ff        .%      MOVS     r5,#0xff
        0x080042a8:    042d        -.      LSLS     r5,r5,#16
        0x080042aa:    09c6        ..      LSRS     r6,r0,#7
        0x080042ac:    09c2        ..      LSRS     r2,r0,#7
        0x080042ae:    27ff        .'      MOVS     r7,#0xff
        0x080042b0:    4604        .F      MOV      r4,r0
        0x080042b2:    402e        .@      ANDS     r6,r6,r5
        0x080042b4:    3701        .7      ADDS     r7,#1
        0x080042b6:    09cb        ..      LSRS     r3,r1,#7
        0x080042b8:    433e        >C      ORRS     r6,r6,r7
        0x080042ba:    4048        H@      EORS     r0,r0,r1
        0x080042bc:    402a        *@      ANDS     r2,r2,r5
        0x080042be:    402b        +@      ANDS     r3,r3,r5
        0x080042c0:    4607        .F      MOV      r7,r0
        0x080042c2:    2a00        .*      CMP      r2,#0
        0x080042c4:    d06b        k.      BEQ      0x800439e ; __aeabi_fdiv + 250
        0x080042c6:    2b00        .+      CMP      r3,#0
        0x080042c8:    d069        i.      BEQ      0x800439e ; __aeabi_fdiv + 250
        0x080042ca:    42aa        .B      CMP      r2,r5
        0x080042cc:    d067        g.      BEQ      0x800439e ; __aeabi_fdiv + 250
        0x080042ce:    42ab        .B      CMP      r3,r5
        0x080042d0:    d065        e.      BEQ      0x800439e ; __aeabi_fdiv + 250
        0x080042d2:    2800        .(      CMP      r0,#0
        0x080042d4:    da00        ..      BGE      0x80042d8 ; __aeabi_fdiv + 52
        0x080042d6:    4632        2F      MOV      r2,r6
        0x080042d8:    2501        .%      MOVS     r5,#1
        0x080042da:    05ed        ..      LSLS     r5,r5,#23
        0x080042dc:    4329        )C      ORRS     r1,r1,r5
        0x080042de:    432c        ,C      ORRS     r4,r4,r5
        0x080042e0:    0209        ..      LSLS     r1,r1,#8
        0x080042e2:    0220         .      LSLS     r0,r4,#8
        0x080042e4:    0a09        ..      LSRS     r1,r1,#8
        0x080042e6:    1ad2        ..      SUBS     r2,r2,r3
        0x080042e8:    0c4b        K.      LSRS     r3,r1,#17
        0x080042ea:    247f        .$      MOVS     r4,#0x7f
        0x080042ec:    1ae3        ..      SUBS     r3,r4,r3
        0x080042ee:    4c43        CL      LDR      r4,[pc,#268] ; [0x80043fc] = 0x2eea
        0x080042f0:    0a00        ..      LSRS     r0,r0,#8
        0x080042f2:    447c        |D      ADD      r4,r4,pc
        0x080042f4:    5ce3        .\      LDRB     r3,[r4,r3]
        0x080042f6:    247d        }$      MOVS     r4,#0x7d
        0x080042f8:    0424        $.      LSLS     r4,r4,#16
        0x080042fa:    1912        ..      ADDS     r2,r2,r4
        0x080042fc:    1414        ..      ASRS     r4,r2,#16
        0x080042fe:    005b        [.      LSLS     r3,r3,#1
        0x08004300:    18a2        ..      ADDS     r2,r4,r2
        0x08004302:    4288        .B      CMP      r0,r1
        0x08004304:    d301        ..      BCC      0x800430a ; __aeabi_fdiv + 102
        0x08004306:    1c52        R.      ADDS     r2,r2,#1
        0x08004308:    e000        ..      B        0x800430c ; __aeabi_fdiv + 104
        0x0800430a:    0040        @.      LSLS     r0,r0,#1
        0x0800430c:    4249        IB      RSBS     r1,r1,#0
        0x0800430e:    460c        .F      MOV      r4,r1
        0x08004310:    435c        \C      MULS     r4,r3,r4
        0x08004312:    1124        $.      ASRS     r4,r4,#4
        0x08004314:    435c        \C      MULS     r4,r3,r4
        0x08004316:    01db        ..      LSLS     r3,r3,#7
        0x08004318:    1564        d.      ASRS     r4,r4,#21
        0x0800431a:    18e3        ..      ADDS     r3,r4,r3
        0x0800431c:    0a04        ..      LSRS     r4,r0,#8
        0x0800431e:    435c        \C      MULS     r4,r3,r4
        0x08004320:    02c5        ..      LSLS     r5,r0,#11
        0x08004322:    0d20         .      LSRS     r0,r4,#20
        0x08004324:    460c        .F      MOV      r4,r1
        0x08004326:    4344        DC      MULS     r4,r0,r4
        0x08004328:    1964        d.      ADDS     r4,r4,r5
        0x0800432a:    0a25        %.      LSRS     r5,r4,#8
        0x0800432c:    435d        ]C      MULS     r5,r3,r5
        0x0800432e:    0323        #.      LSLS     r3,r4,#12
        0x08004330:    0cec        ..      LSRS     r4,r5,#19
        0x08004332:    460d        .F      MOV      r5,r1
        0x08004334:    4365        eC      MULS     r5,r4,r5
        0x08004336:    0300        ..      LSLS     r0,r0,#12
        0x08004338:    1900        ..      ADDS     r0,r0,r4
        0x0800433a:    18eb        ..      ADDS     r3,r5,r3
        0x0800433c:    424c        LB      RSBS     r4,r1,#0
        0x0800433e:    42a3        .B      CMP      r3,r4
        0x08004340:    d301        ..      BCC      0x8004346 ; __aeabi_fdiv + 162
        0x08004342:    185b        [.      ADDS     r3,r3,r1
        0x08004344:    1c40        @.      ADDS     r0,r0,#1
        0x08004346:    05d4        ..      LSLS     r4,r2,#23
        0x08004348:    1820         .      ADDS     r0,r4,r0
        0x0800434a:    2b00        .+      CMP      r3,#0
        0x0800434c:    d007        ..      BEQ      0x800435e ; __aeabi_fdiv + 186
        0x0800434e:    005b        [.      LSLS     r3,r3,#1
        0x08004350:    18c9        ..      ADDS     r1,r1,r3
        0x08004352:    d304        ..      BCC      0x800435e ; __aeabi_fdiv + 186
        0x08004354:    1c40        @.      ADDS     r0,r0,#1
        0x08004356:    2900        .)      CMP      r1,#0
        0x08004358:    d101        ..      BNE      0x800435e ; __aeabi_fdiv + 186
        0x0800435a:    0840        @.      LSRS     r0,r0,#1
        0x0800435c:    0040        @.      LSLS     r0,r0,#1
        0x0800435e:    213f        ?!      MOVS     r1,#0x3f
        0x08004360:    0489        ..      LSLS     r1,r1,#18
        0x08004362:    428a        .B      CMP      r2,r1
        0x08004364:    d309        ..      BCC      0x800437a ; __aeabi_fdiv + 214
        0x08004366:    2a00        .*      CMP      r2,#0
        0x08004368:    dc08        ..      BGT      0x800437c ; __aeabi_fdiv + 216
        0x0800436a:    0611        ..      LSLS     r1,r2,#24
        0x0800436c:    0f09        ..      LSRS     r1,r1,#28
        0x0800436e:    d004        ..      BEQ      0x800437a ; __aeabi_fdiv + 214
        0x08004370:    2103        .!      MOVS     r1,#3
        0x08004372:    0749        I.      LSLS     r1,r1,#29
        0x08004374:    1840        @.      ADDS     r0,r0,r1
        0x08004376:    0fc0        ..      LSRS     r0,r0,#31
        0x08004378:    07c0        ..      LSLS     r0,r0,#31
        0x0800437a:    bdf0        ..      POP      {r4-r7,pc}
        0x0800437c:    2201        ."      MOVS     r2,#1
        0x0800437e:    0041        A.      LSLS     r1,r0,#1
        0x08004380:    0612        ..      LSLS     r2,r2,#24
        0x08004382:    1889        ..      ADDS     r1,r1,r2
        0x08004384:    227f        ."      MOVS     r2,#0x7f
        0x08004386:    0652        R.      LSLS     r2,r2,#25
        0x08004388:    4291        .B      CMP      r1,r2
        0x0800438a:    d2f6        ..      BCS      0x800437a ; __aeabi_fdiv + 214
        0x0800438c:    2105        .!      MOVS     r1,#5
        0x0800438e:    0749        I.      LSLS     r1,r1,#29
        0x08004390:    42c8        .B      CMN      r0,r1
        0x08004392:    d501        ..      BPL      0x8004398 ; __aeabi_fdiv + 244
        0x08004394:    1090        ..      ASRS     r0,r2,#2
        0x08004396:    bdf0        ..      POP      {r4-r7,pc}
        0x08004398:    20ff        .       MOVS     r0,#0xff
        0x0800439a:    05c0        ..      LSLS     r0,r0,#23
        0x0800439c:    bdf0        ..      POP      {r4-r7,pc}
        0x0800439e:    2f00        ./      CMP      r7,#0
        0x080043a0:    da00        ..      BGE      0x80043a4 ; __aeabi_fdiv + 256
        0x080043a2:    4632        2F      MOV      r2,r6
        0x080043a4:    4816        .H      LDR      r0,[pc,#88] ; [0x8004400] = 0x7fc00000
        0x080043a6:    42aa        .B      CMP      r2,r5
        0x080043a8:    d207        ..      BCS      0x80043ba ; __aeabi_fdiv + 278
        0x080043aa:    42ab        .B      CMP      r3,r5
        0x080043ac:    d205        ..      BCS      0x80043ba ; __aeabi_fdiv + 278
        0x080043ae:    0219        ..      LSLS     r1,r3,#8
        0x080043b0:    0e09        ..      LSRS     r1,r1,#24
        0x080043b2:    d017        ..      BEQ      0x80043e4 ; __aeabi_fdiv + 320
        0x080043b4:    0ff8        ..      LSRS     r0,r7,#31
        0x080043b6:    07c0        ..      LSLS     r0,r0,#31
        0x080043b8:    bdf0        ..      POP      {r4-r7,pc}
        0x080043ba:    25ff        .%      MOVS     r5,#0xff
        0x080043bc:    0063        c.      LSLS     r3,r4,#1
        0x080043be:    062d        -.      LSLS     r5,r5,#24
        0x080043c0:    42ab        .B      CMP      r3,r5
        0x080043c2:    d8f9        ..      BHI      0x80043b8 ; __aeabi_fdiv + 276
        0x080043c4:    0049        I.      LSLS     r1,r1,#1
        0x080043c6:    42a9        .B      CMP      r1,r5
        0x080043c8:    d8f6        ..      BHI      0x80043b8 ; __aeabi_fdiv + 276
        0x080043ca:    42ab        .B      CMP      r3,r5
        0x080043cc:    d101        ..      BNE      0x80043d2 ; __aeabi_fdiv + 302
        0x080043ce:    42a9        .B      CMP      r1,r5
        0x080043d0:    d0f2        ..      BEQ      0x80043b8 ; __aeabi_fdiv + 276
        0x080043d2:    42a9        .B      CMP      r1,r5
        0x080043d4:    d101        ..      BNE      0x80043da ; __aeabi_fdiv + 310
        0x080043d6:    2100        .!      MOVS     r1,#0
        0x080043d8:    e001        ..      B        0x80043de ; __aeabi_fdiv + 314
        0x080043da:    0061        a.      LSLS     r1,r4,#1
        0x080043dc:    0849        I.      LSRS     r1,r1,#1
        0x080043de:    05d0        ..      LSLS     r0,r2,#23
        0x080043e0:    4308        .C      ORRS     r0,r0,r1
        0x080043e2:    bdf0        ..      POP      {r4-r7,pc}
        0x080043e4:    0211        ..      LSLS     r1,r2,#8
        0x080043e6:    0e09        ..      LSRS     r1,r1,#24
        0x080043e8:    d0fb        ..      BEQ      0x80043e2 ; __aeabi_fdiv + 318
        0x080043ea:    20ff        .       MOVS     r0,#0xff
        0x080043ec:    4302        .C      ORRS     r2,r2,r0
        0x080043ee:    05d0        ..      LSLS     r0,r2,#23
        0x080043f0:    bdf0        ..      POP      {r4-r7,pc}
    _frdiv
        0x080043f2:    460a        .F      MOV      r2,r1
        0x080043f4:    4601        .F      MOV      r1,r0
        0x080043f6:    4610        .F      MOV      r0,r2
        0x080043f8:    e754        T.      B        __aeabi_fdiv ; 0x80042a4
    $d
        0x080043fa:    0000        ..      DCW    0
        0x080043fc:    00002eea    ....    DCD    12010
        0x08004400:    7fc00000    ....    DCD    2143289344
    $t
    .text
    __aeabi_i2f_normalise
        0x08004404:    221f        ."      MOVS     r2,#0x1f
        0x08004406:    0c03        ..      LSRS     r3,r0,#16
        0x08004408:    d102        ..      BNE      0x8004410 ; __aeabi_i2f_normalise + 12
        0x0800440a:    220f        ."      MOVS     r2,#0xf
        0x0800440c:    0400        ..      LSLS     r0,r0,#16
        0x0800440e:    d01c        ..      BEQ      0x800444a ; __aeabi_i2f_normalise + 70
        0x08004410:    0e03        ..      LSRS     r3,r0,#24
        0x08004412:    d101        ..      BNE      0x8004418 ; __aeabi_i2f_normalise + 20
        0x08004414:    0200        ..      LSLS     r0,r0,#8
        0x08004416:    3a08        .:      SUBS     r2,r2,#8
        0x08004418:    0f03        ..      LSRS     r3,r0,#28
        0x0800441a:    d101        ..      BNE      0x8004420 ; __aeabi_i2f_normalise + 28
        0x0800441c:    0100        ..      LSLS     r0,r0,#4
        0x0800441e:    1f12        ..      SUBS     r2,r2,#4
        0x08004420:    0f83        ..      LSRS     r3,r0,#30
        0x08004422:    d101        ..      BNE      0x8004428 ; __aeabi_i2f_normalise + 36
        0x08004424:    0080        ..      LSLS     r0,r0,#2
        0x08004426:    1e92        ..      SUBS     r2,r2,#2
        0x08004428:    2800        .(      CMP      r0,#0
        0x0800442a:    db01        ..      BLT      0x8004430 ; __aeabi_i2f_normalise + 44
        0x0800442c:    0040        @.      LSLS     r0,r0,#1
        0x0800442e:    1e52        R.      SUBS     r2,r2,#1
        0x08004430:    05d2        ..      LSLS     r2,r2,#23
        0x08004432:    1851        Q.      ADDS     r1,r2,r1
        0x08004434:    1202        ..      ASRS     r2,r0,#8
        0x08004436:    1851        Q.      ADDS     r1,r2,r1
        0x08004438:    2219        ."      MOVS     r2,#0x19
        0x0800443a:    4090        .@      LSLS     r0,r0,r2
        0x0800443c:    d304        ..      BCC      0x8004448 ; __aeabi_i2f_normalise + 68
        0x0800443e:    1c49        I.      ADDS     r1,r1,#1
        0x08004440:    2800        .(      CMP      r0,#0
        0x08004442:    d101        ..      BNE      0x8004448 ; __aeabi_i2f_normalise + 68
        0x08004444:    0849        I.      LSRS     r1,r1,#1
        0x08004446:    0049        I.      LSLS     r1,r1,#1
        0x08004448:    4608        .F      MOV      r0,r1
        0x0800444a:    4770        pG      BX       lr
    __aeabi_i2f
    _fflt
        0x0800444c:    0fc1        ..      LSRS     r1,r0,#31
        0x0800444e:    07c9        ..      LSLS     r1,r1,#31
        0x08004450:    d000        ..      BEQ      0x8004454 ; __aeabi_i2f + 8
        0x08004452:    4240        @B      RSBS     r0,r0,#0
        0x08004454:    2201        ."      MOVS     r2,#1
        0x08004456:    0792        ..      LSLS     r2,r2,#30
        0x08004458:    4311        .C      ORRS     r1,r1,r2
        0x0800445a:    e7d3        ..      B        __aeabi_i2f_normalise ; 0x8004404
    __aeabi_ui2f
    _ffltu
        0x0800445c:    2101        .!      MOVS     r1,#1
        0x0800445e:    0789        ..      LSLS     r1,r1,#30
        0x08004460:    e7d0        ..      B        __aeabi_i2f_normalise ; 0x8004404
    .text
    __I$use$semihosting
    __use_no_semihosting_swi
        0x08004462:    4770        pG      BX       lr
    .text
    __read_errno
        0x08004464:    b510        ..      PUSH     {r4,lr}
        0x08004466:    f000fb2f    ../.    BL       __aeabi_errno_addr ; 0x8004ac8
        0x0800446a:    6800        .h      LDR      r0,[r0,#0]
        0x0800446c:    bd10        ..      POP      {r4,pc}
    __set_errno
        0x0800446e:    b510        ..      PUSH     {r4,lr}
        0x08004470:    4604        .F      MOV      r4,r0
        0x08004472:    f000fb29    ..).    BL       __aeabi_errno_addr ; 0x8004ac8
        0x08004476:    6004        .`      STR      r4,[r0,#0]
        0x08004478:    bd10        ..      POP      {r4,pc}
    .text
    _printf_int_common
        0x0800447a:    b5ff        ..      PUSH     {r0-r7,lr}
        0x0800447c:    4604        .F      MOV      r4,r0
        0x0800447e:    460d        .F      MOV      r5,r1
        0x08004480:    b081        ..      SUB      sp,sp,#4
        0x08004482:    3024        $0      ADDS     r0,r0,#0x24
        0x08004484:    9000        ..      STR      r0,[sp,#0]
        0x08004486:    6821        !h      LDR      r1,[r4,#0]
        0x08004488:    0688        ..      LSLS     r0,r1,#26
        0x0800448a:    d504        ..      BPL      0x8004496 ; _printf_int_common + 28
        0x0800448c:    2210        ."      MOVS     r2,#0x10
        0x0800448e:    69e0        .i      LDR      r0,[r4,#0x1c]
        0x08004490:    4391        .C      BICS     r1,r1,r2
        0x08004492:    6021        !`      STR      r1,[r4,#0]
        0x08004494:    e000        ..      B        0x8004498 ; _printf_int_common + 30
        0x08004496:    2001        .       MOVS     r0,#1
        0x08004498:    42a8        .B      CMP      r0,r5
        0x0800449a:    dd01        ..      BLE      0x80044a0 ; _printf_int_common + 38
        0x0800449c:    1b47        G.      SUBS     r7,r0,r5
        0x0800449e:    e000        ..      B        0x80044a2 ; _printf_int_common + 40
        0x080044a0:    2700        .'      MOVS     r7,#0
        0x080044a2:    9804        ..      LDR      r0,[sp,#0x10]
        0x080044a4:    69a1        .i      LDR      r1,[r4,#0x18]
        0x080044a6:    197a        z.      ADDS     r2,r7,r5
        0x080044a8:    1810        ..      ADDS     r0,r2,r0
        0x080044aa:    1a08        ..      SUBS     r0,r1,r0
        0x080044ac:    61a0        .a      STR      r0,[r4,#0x18]
        0x080044ae:    7820         x      LDRB     r0,[r4,#0]
        0x080044b0:    06c0        ..      LSLS     r0,r0,#27
        0x080044b2:    d402        ..      BMI      0x80044ba ; _printf_int_common + 64
        0x080044b4:    4620         F      MOV      r0,r4
        0x080044b6:    46c0        .F      MOV      r8,r8
        0x080044b8:    46c0        .F      MOV      r8,r8
        0x080044ba:    2600        .&      MOVS     r6,#0
        0x080044bc:    e008        ..      B        0x80044d0 ; _printf_int_common + 86
        0x080044be:    9803        ..      LDR      r0,[sp,#0xc]
        0x080044c0:    6862        bh      LDR      r2,[r4,#4]
        0x080044c2:    68a1        .h      LDR      r1,[r4,#8]
        0x080044c4:    5d80        .]      LDRB     r0,[r0,r6]
        0x080044c6:    4790        .G      BLX      r2
        0x080044c8:    6a20         j      LDR      r0,[r4,#0x20]
        0x080044ca:    1c40        @.      ADDS     r0,r0,#1
        0x080044cc:    1c76        v.      ADDS     r6,r6,#1
        0x080044ce:    6220         b      STR      r0,[r4,#0x20]
        0x080044d0:    9804        ..      LDR      r0,[sp,#0x10]
        0x080044d2:    4286        .B      CMP      r6,r0
        0x080044d4:    dbf3        ..      BLT      0x80044be ; _printf_int_common + 68
        0x080044d6:    7820         x      LDRB     r0,[r4,#0]
        0x080044d8:    06c0        ..      LSLS     r0,r0,#27
        0x080044da:    d50a        ..      BPL      0x80044f2 ; _printf_int_common + 120
        0x080044dc:    4620         F      MOV      r0,r4
        0x080044de:    46c0        .F      MOV      r8,r8
        0x080044e0:    46c0        .F      MOV      r8,r8
        0x080044e2:    e006        ..      B        0x80044f2 ; _printf_int_common + 120
        0x080044e4:    6862        bh      LDR      r2,[r4,#4]
        0x080044e6:    68a1        .h      LDR      r1,[r4,#8]
        0x080044e8:    2030        0       MOVS     r0,#0x30
        0x080044ea:    4790        .G      BLX      r2
        0x080044ec:    6a20         j      LDR      r0,[r4,#0x20]
        0x080044ee:    1c40        @.      ADDS     r0,r0,#1
        0x080044f0:    6220         b      STR      r0,[r4,#0x20]
        0x080044f2:    4638        8F      MOV      r0,r7
        0x080044f4:    1e7f        ..      SUBS     r7,r7,#1
        0x080044f6:    2800        .(      CMP      r0,#0
        0x080044f8:    dcf4        ..      BGT      0x80044e4 ; _printf_int_common + 106
        0x080044fa:    e007        ..      B        0x800450c ; _printf_int_common + 146
        0x080044fc:    9800        ..      LDR      r0,[sp,#0]
        0x080044fe:    6862        bh      LDR      r2,[r4,#4]
        0x08004500:    68a1        .h      LDR      r1,[r4,#8]
        0x08004502:    5d40        @]      LDRB     r0,[r0,r5]
        0x08004504:    4790        .G      BLX      r2
        0x08004506:    6a20         j      LDR      r0,[r4,#0x20]
        0x08004508:    1c40        @.      ADDS     r0,r0,#1
        0x0800450a:    6220         b      STR      r0,[r4,#0x20]
        0x0800450c:    4628        (F      MOV      r0,r5
        0x0800450e:    1e6d        m.      SUBS     r5,r5,#1
        0x08004510:    2800        .(      CMP      r0,#0
        0x08004512:    dcf3        ..      BGT      0x80044fc ; _printf_int_common + 130
        0x08004514:    4620         F      MOV      r0,r4
        0x08004516:    46c0        .F      MOV      r8,r8
        0x08004518:    46c0        .F      MOV      r8,r8
        0x0800451a:    7820         x      LDRB     r0,[r4,#0]
        0x0800451c:    0600        ..      LSLS     r0,r0,#24
        0x0800451e:    d502        ..      BPL      0x8004526 ; _printf_int_common + 172
        0x08004520:    2002        .       MOVS     r0,#2
        0x08004522:    b005        ..      ADD      sp,sp,#0x14
        0x08004524:    bdf0        ..      POP      {r4-r7,pc}
        0x08004526:    2001        .       MOVS     r0,#1
        0x08004528:    e7fb        ..      B        0x8004522 ; _printf_int_common + 168
        0x0800452a:    0000        ..      MOVS     r0,r0
    .text
    _fp_digits
        0x0800452c:    b5ff        ..      PUSH     {r0-r7,lr}
        0x0800452e:    460c        .F      MOV      r4,r1
        0x08004530:    461e        .F      MOV      r6,r3
        0x08004532:    b08f        ..      SUB      sp,sp,#0x3c
        0x08004534:    ca03        ..      LDM      r2!,{r0,r1}
        0x08004536:    9008        ..      STR      r0,[sp,#0x20]
        0x08004538:    9109        ..      STR      r1,[sp,#0x24]
        0x0800453a:    004f        O.      LSLS     r7,r1,#1
        0x0800453c:    0d7d        }.      LSRS     r5,r7,#21
        0x0800453e:    d100        ..      BNE      0x8004542 ; _fp_digits + 22
        0x08004540:    1e6d        m.      SUBS     r5,r5,#1
        0x08004542:    2100        .!      MOVS     r1,#0
        0x08004544:    4608        .F      MOV      r0,r1
        0x08004546:    2000        .       MOVS     r0,#0
        0x08004548:    46c0        .F      MOV      r8,r8
        0x0800454a:    2103        .!      MOVS     r1,#3
        0x0800454c:    9a09        ..      LDR      r2,[sp,#0x24]
        0x0800454e:    0589        ..      LSLS     r1,r1,#22
        0x08004550:    4008        .@      ANDS     r0,r0,r1
        0x08004552:    2a00        .*      CMP      r2,#0
        0x08004554:    da03        ..      BGE      0x800455e ; _fp_digits + 50
        0x08004556:    0082        ..      LSLS     r2,r0,#2
        0x08004558:    1880        ..      ADDS     r0,r0,r2
        0x0800455a:    0840        @.      LSRS     r0,r0,#1
        0x0800455c:    4008        .@      ANDS     r0,r0,r1
        0x0800455e:    0d80        ..      LSRS     r0,r0,#22
        0x08004560:    2801        .(      CMP      r0,#1
        0x08004562:    900a        ..      STR      r0,[sp,#0x28]
        0x08004564:    dd02        ..      BLE      0x800456c ; _fp_digits + 64
        0x08004566:    2000        .       MOVS     r0,#0
        0x08004568:    43c0        .C      MVNS     r0,r0
        0x0800456a:    900a        ..      STR      r0,[sp,#0x28]
        0x0800456c:    9808        ..      LDR      r0,[sp,#0x20]
        0x0800456e:    4307        .C      ORRS     r7,r7,r0
        0x08004570:    d00d        ..      BEQ      0x800458e ; _fp_digits + 98
        0x08004572:    48f0        .H      LDR      r0,[pc,#960] ; [0x8004934] = 0xfffffc01
        0x08004574:    49f0        .I      LDR      r1,[pc,#960] ; [0x8004938] = 0x4d10
        0x08004576:    1828        (.      ADDS     r0,r5,r0
        0x08004578:    4348        HC      MULS     r0,r1,r0
        0x0800457a:    1407        ..      ASRS     r7,r0,#16
        0x0800457c:    9818        ..      LDR      r0,[sp,#0x60]
        0x0800457e:    2800        .(      CMP      r0,#0
        0x08004580:    d01d        ..      BEQ      0x80045be ; _fp_digits + 146
        0x08004582:    4275        uB      RSBS     r5,r6,#0
        0x08004584:    1e29        ).      SUBS     r1,r5,#0
        0x08004586:    dd1d        ..      BLE      0x80045c4 ; _fp_digits + 152
        0x08004588:    980a        ..      LDR      r0,[sp,#0x28]
        0x0800458a:    4242        BB      RSBS     r2,r0,#0
        0x0800458c:    e01b        ..      B        0x80045c6 ; _fp_digits + 154
        0x0800458e:    9818        ..      LDR      r0,[sp,#0x60]
        0x08004590:    2801        .(      CMP      r0,#1
        0x08004592:    d002        ..      BEQ      0x800459a ; _fp_digits + 110
        0x08004594:    2000        .       MOVS     r0,#0
        0x08004596:    2130        0!      MOVS     r1,#0x30
        0x08004598:    e004        ..      B        0x80045a4 ; _fp_digits + 120
        0x0800459a:    2000        .       MOVS     r0,#0
        0x0800459c:    43f2        .C      MVNS     r2,r6
        0x0800459e:    e005        ..      B        0x80045ac ; _fp_digits + 128
        0x080045a0:    5421        !T      STRB     r1,[r4,r0]
        0x080045a2:    1c40        @.      ADDS     r0,r0,#1
        0x080045a4:    42b0        .B      CMP      r0,r6
        0x080045a6:    dbfb        ..      BLT      0x80045a0 ; _fp_digits + 116
        0x080045a8:    4630        0F      MOV      r0,r6
        0x080045aa:    2200        ."      MOVS     r2,#0
        0x080045ac:    9b18        ..      LDR      r3,[sp,#0x60]
        0x080045ae:    2100        .!      MOVS     r1,#0
        0x080045b0:    5421        !T      STRB     r1,[r4,r0]
        0x080045b2:    990f        ..      LDR      r1,[sp,#0x3c]
        0x080045b4:    608b        .`      STR      r3,[r1,#8]
        0x080045b6:    600a        .`      STR      r2,[r1,#0]
        0x080045b8:    6048        H`      STR      r0,[r1,#4]
        0x080045ba:    b013        ..      ADD      sp,sp,#0x4c
        0x080045bc:    bdf0        ..      POP      {r4-r7,pc}
        0x080045be:    1bbd        ..      SUBS     r5,r7,r6
        0x080045c0:    1c6d        m.      ADDS     r5,r5,#1
        0x080045c2:    e7df        ..      B        0x8004584 ; _fp_digits + 88
        0x080045c4:    9a0a        ..      LDR      r2,[sp,#0x28]
        0x080045c6:    2900        .)      CMP      r1,#0
        0x080045c8:    da00        ..      BGE      0x80045cc ; _fp_digits + 160
        0x080045ca:    4269        iB      RSBS     r1,r5,#0
        0x080045cc:    a80b        ..      ADD      r0,sp,#0x2c
        0x080045ce:    f000fb19    ....    BL       _btod_etento ; 0x8004c04
        0x080045d2:    ab0b        ..      ADD      r3,sp,#0x2c
        0x080045d4:    cb07        ..      LDM      r3!,{r0-r2}
        0x080045d6:    ab03        ..      ADD      r3,sp,#0xc
        0x080045d8:    c307        ..      STM      r3!,{r0-r2}
        0x080045da:    9908        ..      LDR      r1,[sp,#0x20]
        0x080045dc:    9809        ..      LDR      r0,[sp,#0x24]
        0x080045de:    f000fb7d    ..}.    BL       _btod_d2e ; 0x8004cdc
        0x080045e2:    466b        kF      MOV      r3,sp
        0x080045e4:    c307        ..      STM      r3!,{r0-r2}
        0x080045e6:    4601        .F      MOV      r1,r0
        0x080045e8:    48d4        .H      LDR      r0,[pc,#848] ; [0x800493c] = 0xffffdfe1
        0x080045ea:    1809        ..      ADDS     r1,r1,r0
        0x080045ec:    2d00        .-      CMP      r5,#0
        0x080045ee:    9100        ..      STR      r1,[sp,#0]
        0x080045f0:    dd0b        ..      BLE      0x800460a ; _fp_digits + 222
        0x080045f2:    49d2        .I      LDR      r1,[pc,#840] ; [0x800493c] = 0xffffdfe1
        0x080045f4:    9803        ..      LDR      r0,[sp,#0xc]
        0x080045f6:    9a0a        ..      LDR      r2,[sp,#0x28]
        0x080045f8:    4249        IB      RSBS     r1,r1,#0
        0x080045fa:    1840        @.      ADDS     r0,r0,r1
        0x080045fc:    2300        .#      MOVS     r3,#0
        0x080045fe:    a903        ..      ADD      r1,sp,#0xc
        0x08004600:    9003        ..      STR      r0,[sp,#0xc]
        0x08004602:    4668        hF      MOV      r0,sp
        0x08004604:    f000fdda    ....    BL       _btod_ediv ; 0x80051bc
        0x08004608:    e008        ..      B        0x800461c ; _fp_digits + 240
        0x0800460a:    9903        ..      LDR      r1,[sp,#0xc]
        0x0800460c:    9a0a        ..      LDR      r2,[sp,#0x28]
        0x0800460e:    2300        .#      MOVS     r3,#0
        0x08004610:    1808        ..      ADDS     r0,r1,r0
        0x08004612:    a903        ..      ADD      r1,sp,#0xc
        0x08004614:    9003        ..      STR      r0,[sp,#0xc]
        0x08004616:    4668        hF      MOV      r0,sp
        0x08004618:    f000fd7a    ..z.    BL       _btod_emul ; 0x8005110
        0x0800461c:    466b        kF      MOV      r3,sp
        0x0800461e:    c307        ..      STM      r3!,{r0-r2}
        0x08004620:    0400        ..      LSLS     r0,r0,#16
        0x08004622:    0c00        ..      LSRS     r0,r0,#16
        0x08004624:    d003        ..      BEQ      0x800462e ; _fp_digits + 258
        0x08004626:    2000        .       MOVS     r0,#0
        0x08004628:    43c0        .C      MVNS     r0,r0
        0x0800462a:    0841        A.      LSRS     r1,r0,#1
        0x0800462c:    e000        ..      B        0x8004630 ; _fp_digits + 260
        0x0800462e:    4610        .F      MOV      r0,r2
        0x08004630:    9a18        ..      LDR      r2,[sp,#0x60]
        0x08004632:    2a00        .*      CMP      r2,#0
        0x08004634:    d003        ..      BEQ      0x800463e ; _fp_digits + 274
        0x08004636:    2200        ."      MOVS     r2,#0
        0x08004638:    9200        ..      STR      r2,[sp,#0]
        0x0800463a:    4615        .F      MOV      r5,r2
        0x0800463c:    e01e        ..      B        0x800467c ; _fp_digits + 336
        0x0800463e:    1e75        u.      SUBS     r5,r6,#1
        0x08004640:    d405        ..      BMI      0x800464e ; _fp_digits + 290
        0x08004642:    f000fa45    ..E.    BL       _ll_udiv10 ; 0x8004ad0
        0x08004646:    3230        02      ADDS     r2,r2,#0x30
        0x08004648:    5562        bU      STRB     r2,[r4,r5]
        0x0800464a:    1e6d        m.      SUBS     r5,r5,#1
        0x0800464c:    d5f9        ..      BPL      0x8004642 ; _fp_digits + 278
        0x0800464e:    2201        ."      MOVS     r2,#1
        0x08004650:    4308        .C      ORRS     r0,r0,r1
        0x08004652:    9607        ..      STR      r6,[sp,#0x1c]
        0x08004654:    d002        ..      BEQ      0x800465c ; _fp_digits + 304
        0x08004656:    2200        ."      MOVS     r2,#0
        0x08004658:    1c7f        ..      ADDS     r7,r7,#1
        0x0800465a:    e004        ..      B        0x8004666 ; _fp_digits + 314
        0x0800465c:    7820         x      LDRB     r0,[r4,#0]
        0x0800465e:    2830        0(      CMP      r0,#0x30
        0x08004660:    d101        ..      BNE      0x8004666 ; _fp_digits + 314
        0x08004662:    2200        ."      MOVS     r2,#0
        0x08004664:    1e7f        ..      SUBS     r7,r7,#1
        0x08004666:    2a00        .*      CMP      r2,#0
        0x08004668:    9706        ..      STR      r7,[sp,#0x18]
        0x0800466a:    d087        ..      BEQ      0x800457c ; _fp_digits + 80
        0x0800466c:    e01e        ..      B        0x80046ac ; _fp_digits + 384
        0x0800466e:    2d11        .-      CMP      r5,#0x11
        0x08004670:    da07        ..      BGE      0x8004682 ; _fp_digits + 342
        0x08004672:    f000fa2d    ..-.    BL       _ll_udiv10 ; 0x8004ad0
        0x08004676:    3230        02      ADDS     r2,r2,#0x30
        0x08004678:    5562        bU      STRB     r2,[r4,r5]
        0x0800467a:    1c6d        m.      ADDS     r5,r5,#1
        0x0800467c:    4602        .F      MOV      r2,r0
        0x0800467e:    430a        .C      ORRS     r2,r2,r1
        0x08004680:    d1f5        ..      BNE      0x800466e ; _fp_digits + 322
        0x08004682:    4308        .C      ORRS     r0,r0,r1
        0x08004684:    d003        ..      BEQ      0x800468e ; _fp_digits + 354
        0x08004686:    9800        ..      LDR      r0,[sp,#0]
        0x08004688:    2800        .(      CMP      r0,#0
        0x0800468a:    d019        ..      BEQ      0x80046c0 ; _fp_digits + 404
        0x0800468c:    e00e        ..      B        0x80046ac ; _fp_digits + 384
        0x0800468e:    2100        .!      MOVS     r1,#0
        0x08004690:    1e68        h.      SUBS     r0,r5,#1
        0x08004692:    e005        ..      B        0x80046a0 ; _fp_digits + 372
        0x08004694:    5c23        #\      LDRB     r3,[r4,r0]
        0x08004696:    5c62        b\      LDRB     r2,[r4,r1]
        0x08004698:    5463        cT      STRB     r3,[r4,r1]
        0x0800469a:    5422        "T      STRB     r2,[r4,r0]
        0x0800469c:    1e40        @.      SUBS     r0,r0,#1
        0x0800469e:    1c49        I.      ADDS     r1,r1,#1
        0x080046a0:    4281        .B      CMP      r1,r0
        0x080046a2:    dbf7        ..      BLT      0x8004694 ; _fp_digits + 360
        0x080046a4:    1ba8        ..      SUBS     r0,r5,r6
        0x080046a6:    1e40        @.      SUBS     r0,r0,#1
        0x080046a8:    9507        ..      STR      r5,[sp,#0x1c]
        0x080046aa:    9006        ..      STR      r0,[sp,#0x18]
        0x080046ac:    9a07        ..      LDR      r2,[sp,#0x1c]
        0x080046ae:    9918        ..      LDR      r1,[sp,#0x60]
        0x080046b0:    2000        .       MOVS     r0,#0
        0x080046b2:    54a0        .T      STRB     r0,[r4,r2]
        0x080046b4:    980f        ..      LDR      r0,[sp,#0x3c]
        0x080046b6:    9b07        ..      LDR      r3,[sp,#0x1c]
        0x080046b8:    9a06        ..      LDR      r2,[sp,#0x18]
        0x080046ba:    6081        .`      STR      r1,[r0,#8]
        0x080046bc:    c00c        ..      STM      r0!,{r2,r3}
        0x080046be:    e77c        |.      B        0x80045ba ; _fp_digits + 142
        0x080046c0:    2611        .&      MOVS     r6,#0x11
        0x080046c2:    2000        .       MOVS     r0,#0
        0x080046c4:    9018        ..      STR      r0,[sp,#0x60]
        0x080046c6:    e759        Y.      B        0x800457c ; _fp_digits + 80
    _printf_fp_dec_real
        0x080046c8:    1dd2        ..      ADDS     r2,r2,#7
        0x080046ca:    b5f0        ..      PUSH     {r4-r7,lr}
        0x080046cc:    460d        .F      MOV      r5,r1
        0x080046ce:    4604        .F      MOV      r4,r0
        0x080046d0:    08d1        ..      LSRS     r1,r2,#3
        0x080046d2:    b093        ..      SUB      sp,sp,#0x4c
        0x080046d4:    00c9        ..      LSLS     r1,r1,#3
        0x080046d6:    c903        ..      LDM      r1,{r0,r1}
        0x080046d8:    900c        ..      STR      r0,[sp,#0x30]
        0x080046da:    910d        ..      STR      r1,[sp,#0x34]
        0x080046dc:    f002fc48    ..H.    BL       __ARM_fpclassify ; 0x8006f70
        0x080046e0:    4602        .F      MOV      r2,r0
        0x080046e2:    980d        ..      LDR      r0,[sp,#0x34]
        0x080046e4:    0fc0        ..      LSRS     r0,r0,#31
        0x080046e6:    d001        ..      BEQ      0x80046ec ; _printf_fp_dec_real + 36
        0x080046e8:    202d        -       MOVS     r0,#0x2d
        0x080046ea:    e007        ..      B        0x80046fc ; _printf_fp_dec_real + 52
        0x080046ec:    6820         h      LDR      r0,[r4,#0]
        0x080046ee:    0781        ..      LSLS     r1,r0,#30
        0x080046f0:    d501        ..      BPL      0x80046f6 ; _printf_fp_dec_real + 46
        0x080046f2:    202b        +       MOVS     r0,#0x2b
        0x080046f4:    e002        ..      B        0x80046fc ; _printf_fp_dec_real + 52
        0x080046f6:    0740        @.      LSLS     r0,r0,#29
        0x080046f8:    0fc0        ..      LSRS     r0,r0,#31
        0x080046fa:    0140        @.      LSLS     r0,r0,#5
        0x080046fc:    2a03        .*      CMP      r2,#3
        0x080046fe:    900f        ..      STR      r0,[sp,#0x3c]
        0x08004700:    d001        ..      BEQ      0x8004706 ; _printf_fp_dec_real + 62
        0x08004702:    2a07        .*      CMP      r2,#7
        0x08004704:    db05        ..      BLT      0x8004712 ; _printf_fp_dec_real + 74
        0x08004706:    4603        .F      MOV      r3,r0
        0x08004708:    4629        )F      MOV      r1,r5
        0x0800470a:    4620         F      MOV      r0,r4
        0x0800470c:    f000fa36    ..6.    BL       _printf_fp_infnan ; 0x8004b7c
        0x08004710:    e10e        ..      B        0x8004930 ; _printf_fp_dec_real + 616
        0x08004712:    7820         x      LDRB     r0,[r4,#0]
        0x08004714:    0680        ..      LSLS     r0,r0,#26
        0x08004716:    d501        ..      BPL      0x800471c ; _printf_fp_dec_real + 84
        0x08004718:    69e7        .i      LDR      r7,[r4,#0x1c]
        0x0800471a:    e000        ..      B        0x800471e ; _printf_fp_dec_real + 86
        0x0800471c:    2706        .'      MOVS     r7,#6
        0x0800471e:    4628        (F      MOV      r0,r5
        0x08004720:    2d65        e-      CMP      r5,#0x65
        0x08004722:    d004        ..      BEQ      0x800472e ; _printf_fp_dec_real + 102
        0x08004724:    2866        f(      CMP      r0,#0x66
        0x08004726:    d014        ..      BEQ      0x8004752 ; _printf_fp_dec_real + 138
        0x08004728:    2d67        g-      CMP      r5,#0x67
        0x0800472a:    d169        i.      BNE      0x8004800 ; _printf_fp_dec_real + 312
        0x0800472c:    e02d        -.      B        0x800478a ; _printf_fp_dec_real + 194
        0x0800472e:    2000        .       MOVS     r0,#0
        0x08004730:    2f11        ./      CMP      r7,#0x11
        0x08004732:    9000        ..      STR      r0,[sp,#0]
        0x08004734:    db01        ..      BLT      0x800473a ; _printf_fp_dec_real + 114
        0x08004736:    2311        .#      MOVS     r3,#0x11
        0x08004738:    e000        ..      B        0x800473c ; _printf_fp_dec_real + 116
        0x0800473a:    1c7b        {.      ADDS     r3,r7,#1
        0x0800473c:    aa0c        ..      ADD      r2,sp,#0x30
        0x0800473e:    a903        ..      ADD      r1,sp,#0xc
        0x08004740:    a810        ..      ADD      r0,sp,#0x40
        0x08004742:    f7fffef3    ....    BL       _fp_digits ; 0x800452c
        0x08004746:    9911        ..      LDR      r1,[sp,#0x44]
        0x08004748:    2600        .&      MOVS     r6,#0
        0x0800474a:    9810        ..      LDR      r0,[sp,#0x40]
        0x0800474c:    1c7d        }.      ADDS     r5,r7,#1
        0x0800474e:    910e        ..      STR      r1,[sp,#0x38]
        0x08004750:    e042        B.      B        0x80047d8 ; _printf_fp_dec_real + 272
        0x08004752:    2001        .       MOVS     r0,#1
        0x08004754:    463b        ;F      MOV      r3,r7
        0x08004756:    aa0c        ..      ADD      r2,sp,#0x30
        0x08004758:    07c0        ..      LSLS     r0,r0,#31
        0x0800475a:    900b        ..      STR      r0,[sp,#0x2c]
        0x0800475c:    2001        .       MOVS     r0,#1
        0x0800475e:    9000        ..      STR      r0,[sp,#0]
        0x08004760:    a903        ..      ADD      r1,sp,#0xc
        0x08004762:    a810        ..      ADD      r0,sp,#0x40
        0x08004764:    f7fffee2    ....    BL       _fp_digits ; 0x800452c
        0x08004768:    9d11        ..      LDR      r5,[sp,#0x44]
        0x0800476a:    9812        ..      LDR      r0,[sp,#0x48]
        0x0800476c:    9910        ..      LDR      r1,[sp,#0x40]
        0x0800476e:    2600        .&      MOVS     r6,#0
        0x08004770:    2800        .(      CMP      r0,#0
        0x08004772:    950e        ..      STR      r5,[sp,#0x38]
        0x08004774:    d101        ..      BNE      0x800477a ; _printf_fp_dec_real + 178
        0x08004776:    1c78        x.      ADDS     r0,r7,#1
        0x08004778:    180d        ..      ADDS     r5,r1,r0
        0x0800477a:    1b78        x.      SUBS     r0,r7,r5
        0x0800477c:    d402        ..      BMI      0x8004784 ; _printf_fp_dec_real + 188
        0x0800477e:    4246        FB      RSBS     r6,r0,#0
        0x08004780:    1c7d        }.      ADDS     r5,r7,#1
        0x08004782:    1e76        v.      SUBS     r6,r6,#1
        0x08004784:    1be8        ..      SUBS     r0,r5,r7
        0x08004786:    9000        ..      STR      r0,[sp,#0]
        0x08004788:    e03a        :.      B        0x8004800 ; _printf_fp_dec_real + 312
        0x0800478a:    2f01        ./      CMP      r7,#1
        0x0800478c:    da00        ..      BGE      0x8004790 ; _printf_fp_dec_real + 200
        0x0800478e:    2701        .'      MOVS     r7,#1
        0x08004790:    2000        .       MOVS     r0,#0
        0x08004792:    2f11        ./      CMP      r7,#0x11
        0x08004794:    9000        ..      STR      r0,[sp,#0]
        0x08004796:    dd01        ..      BLE      0x800479c ; _printf_fp_dec_real + 212
        0x08004798:    2311        .#      MOVS     r3,#0x11
        0x0800479a:    e000        ..      B        0x800479e ; _printf_fp_dec_real + 214
        0x0800479c:    463b        ;F      MOV      r3,r7
        0x0800479e:    aa0c        ..      ADD      r2,sp,#0x30
        0x080047a0:    a903        ..      ADD      r1,sp,#0xc
        0x080047a2:    a810        ..      ADD      r0,sp,#0x40
        0x080047a4:    f7fffec2    ....    BL       _fp_digits ; 0x800452c
        0x080047a8:    9911        ..      LDR      r1,[sp,#0x44]
        0x080047aa:    463d        =F      MOV      r5,r7
        0x080047ac:    9810        ..      LDR      r0,[sp,#0x40]
        0x080047ae:    2600        .&      MOVS     r6,#0
        0x080047b0:    910e        ..      STR      r1,[sp,#0x38]
        0x080047b2:    7821        !x      LDRB     r1,[r4,#0]
        0x080047b4:    0709        ..      LSLS     r1,r1,#28
        0x080047b6:    d40b        ..      BMI      0x80047d0 ; _printf_fp_dec_real + 264
        0x080047b8:    990e        ..      LDR      r1,[sp,#0x38]
        0x080047ba:    42a9        .B      CMP      r1,r5
        0x080047bc:    da00        ..      BGE      0x80047c0 ; _printf_fp_dec_real + 248
        0x080047be:    460d        .F      MOV      r5,r1
        0x080047c0:    a903        ..      ADD      r1,sp,#0xc
        0x080047c2:    2d01        .-      CMP      r5,#1
        0x080047c4:    dd04        ..      BLE      0x80047d0 ; _printf_fp_dec_real + 264
        0x080047c6:    194a        J.      ADDS     r2,r1,r5
        0x080047c8:    3a20         :      SUBS     r2,r2,#0x20
        0x080047ca:    7fd2        ..      LDRB     r2,[r2,#0x1f]
        0x080047cc:    2a30        0*      CMP      r2,#0x30
        0x080047ce:    d006        ..      BEQ      0x80047de ; _printf_fp_dec_real + 278
        0x080047d0:    42b8        .B      CMP      r0,r7
        0x080047d2:    da01        ..      BGE      0x80047d8 ; _printf_fp_dec_real + 272
        0x080047d4:    1d01        ..      ADDS     r1,r0,#4
        0x080047d6:    da04        ..      BGE      0x80047e2 ; _printf_fp_dec_real + 282
        0x080047d8:    2101        .!      MOVS     r1,#1
        0x080047da:    9100        ..      STR      r1,[sp,#0]
        0x080047dc:    e00f        ..      B        0x80047fe ; _printf_fp_dec_real + 310
        0x080047de:    1e6d        m.      SUBS     r5,r5,#1
        0x080047e0:    e7ef        ..      B        0x80047c2 ; _printf_fp_dec_real + 250
        0x080047e2:    2800        .(      CMP      r0,#0
        0x080047e4:    dc02        ..      BGT      0x80047ec ; _printf_fp_dec_real + 292
        0x080047e6:    1986        ..      ADDS     r6,r0,r6
        0x080047e8:    1a2d        -.      SUBS     r5,r5,r0
        0x080047ea:    e003        ..      B        0x80047f4 ; _printf_fp_dec_real + 300
        0x080047ec:    1c41        A.      ADDS     r1,r0,#1
        0x080047ee:    42a9        .B      CMP      r1,r5
        0x080047f0:    dd00        ..      BLE      0x80047f4 ; _printf_fp_dec_real + 300
        0x080047f2:    460d        .F      MOV      r5,r1
        0x080047f4:    1b80        ..      SUBS     r0,r0,r6
        0x080047f6:    1c40        @.      ADDS     r0,r0,#1
        0x080047f8:    9000        ..      STR      r0,[sp,#0]
        0x080047fa:    2001        .       MOVS     r0,#1
        0x080047fc:    07c0        ..      LSLS     r0,r0,#31
        0x080047fe:    900b        ..      STR      r0,[sp,#0x2c]
        0x08004800:    7820         x      LDRB     r0,[r4,#0]
        0x08004802:    0700        ..      LSLS     r0,r0,#28
        0x08004804:    d405        ..      BMI      0x8004812 ; _printf_fp_dec_real + 330
        0x08004806:    9800        ..      LDR      r0,[sp,#0]
        0x08004808:    42a8        .B      CMP      r0,r5
        0x0800480a:    db02        ..      BLT      0x8004812 ; _printf_fp_dec_real + 330
        0x0800480c:    2000        .       MOVS     r0,#0
        0x0800480e:    43c0        .C      MVNS     r0,r0
        0x08004810:    9000        ..      STR      r0,[sp,#0]
        0x08004812:    4669        iF      MOV      r1,sp
        0x08004814:    2000        .       MOVS     r0,#0
        0x08004816:    72c8        .r      STRB     r0,[r1,#0xb]
        0x08004818:    980b        ..      LDR      r0,[sp,#0x2c]
        0x0800481a:    2101        .!      MOVS     r1,#1
        0x0800481c:    af02        ..      ADD      r7,sp,#8
        0x0800481e:    3703        .7      ADDS     r7,#3
        0x08004820:    07c9        ..      LSLS     r1,r1,#31
        0x08004822:    4288        .B      CMP      r0,r1
        0x08004824:    d025        %.      BEQ      0x8004872 ; _printf_fp_dec_real + 426
        0x08004826:    2002        .       MOVS     r0,#2
        0x08004828:    9010        ..      STR      r0,[sp,#0x40]
        0x0800482a:    202b        +       MOVS     r0,#0x2b
        0x0800482c:    9011        ..      STR      r0,[sp,#0x44]
        0x0800482e:    980b        ..      LDR      r0,[sp,#0x2c]
        0x08004830:    2800        .(      CMP      r0,#0
        0x08004832:    da0b        ..      BGE      0x800484c ; _printf_fp_dec_real + 388
        0x08004834:    4240        @B      RSBS     r0,r0,#0
        0x08004836:    900b        ..      STR      r0,[sp,#0x2c]
        0x08004838:    202d        -       MOVS     r0,#0x2d
        0x0800483a:    9011        ..      STR      r0,[sp,#0x44]
        0x0800483c:    e006        ..      B        0x800484c ; _printf_fp_dec_real + 388
        0x0800483e:    980b        ..      LDR      r0,[sp,#0x2c]
        0x08004840:    f000f8aa    ....    BL       __rt_udiv10 ; 0x8004998
        0x08004844:    3130        01      ADDS     r1,r1,#0x30
        0x08004846:    1e7f        ..      SUBS     r7,r7,#1
        0x08004848:    900b        ..      STR      r0,[sp,#0x2c]
        0x0800484a:    7039        9p      STRB     r1,[r7,#0]
        0x0800484c:    9910        ..      LDR      r1,[sp,#0x40]
        0x0800484e:    1e48        H.      SUBS     r0,r1,#1
        0x08004850:    2900        .)      CMP      r1,#0
        0x08004852:    9010        ..      STR      r0,[sp,#0x40]
        0x08004854:    dcf3        ..      BGT      0x800483e ; _printf_fp_dec_real + 374
        0x08004856:    980b        ..      LDR      r0,[sp,#0x2c]
        0x08004858:    2800        .(      CMP      r0,#0
        0x0800485a:    d1f0        ..      BNE      0x800483e ; _printf_fp_dec_real + 374
        0x0800485c:    9811        ..      LDR      r0,[sp,#0x44]
        0x0800485e:    1e7f        ..      SUBS     r7,r7,#1
        0x08004860:    7038        8p      STRB     r0,[r7,#0]
        0x08004862:    8820         .      LDRH     r0,[r4,#0]
        0x08004864:    0500        ..      LSLS     r0,r0,#20
        0x08004866:    d501        ..      BPL      0x800486c ; _printf_fp_dec_real + 420
        0x08004868:    2045        E       MOVS     r0,#0x45
        0x0800486a:    e000        ..      B        0x800486e ; _printf_fp_dec_real + 422
        0x0800486c:    2065        e       MOVS     r0,#0x65
        0x0800486e:    1e7f        ..      SUBS     r7,r7,#1
        0x08004870:    7038        8p      STRB     r0,[r7,#0]
        0x08004872:    a801        ..      ADD      r0,sp,#4
        0x08004874:    1bc0        ..      SUBS     r0,r0,r7
        0x08004876:    1dc0        ..      ADDS     r0,r0,#7
        0x08004878:    900b        ..      STR      r0,[sp,#0x2c]
        0x0800487a:    980f        ..      LDR      r0,[sp,#0x3c]
        0x0800487c:    2800        .(      CMP      r0,#0
        0x0800487e:    d000        ..      BEQ      0x8004882 ; _printf_fp_dec_real + 442
        0x08004880:    2001        .       MOVS     r0,#1
        0x08004882:    1941        A.      ADDS     r1,r0,r5
        0x08004884:    9800        ..      LDR      r0,[sp,#0]
        0x08004886:    17c0        ..      ASRS     r0,r0,#31
        0x08004888:    1809        ..      ADDS     r1,r1,r0
        0x0800488a:    980b        ..      LDR      r0,[sp,#0x2c]
        0x0800488c:    1808        ..      ADDS     r0,r1,r0
        0x0800488e:    69a1        .i      LDR      r1,[r4,#0x18]
        0x08004890:    1a08        ..      SUBS     r0,r1,r0
        0x08004892:    1e40        @.      SUBS     r0,r0,#1
        0x08004894:    61a0        .a      STR      r0,[r4,#0x18]
        0x08004896:    7820         x      LDRB     r0,[r4,#0]
        0x08004898:    06c0        ..      LSLS     r0,r0,#27
        0x0800489a:    d402        ..      BMI      0x80048a2 ; _printf_fp_dec_real + 474
        0x0800489c:    4620         F      MOV      r0,r4
        0x0800489e:    46c0        .F      MOV      r8,r8
        0x080048a0:    46c0        .F      MOV      r8,r8
        0x080048a2:    980f        ..      LDR      r0,[sp,#0x3c]
        0x080048a4:    2800        .(      CMP      r0,#0
        0x080048a6:    d005        ..      BEQ      0x80048b4 ; _printf_fp_dec_real + 492
        0x080048a8:    6862        bh      LDR      r2,[r4,#4]
        0x080048aa:    68a1        .h      LDR      r1,[r4,#8]
        0x080048ac:    4790        .G      BLX      r2
        0x080048ae:    6a20         j      LDR      r0,[r4,#0x20]
        0x080048b0:    1c40        @.      ADDS     r0,r0,#1
        0x080048b2:    6220         b      STR      r0,[r4,#0x20]
        0x080048b4:    7820         x      LDRB     r0,[r4,#0]
        0x080048b6:    06c0        ..      LSLS     r0,r0,#27
        0x080048b8:    d525        %.      BPL      0x8004906 ; _printf_fp_dec_real + 574
        0x080048ba:    4620         F      MOV      r0,r4
        0x080048bc:    46c0        .F      MOV      r8,r8
        0x080048be:    46c0        .F      MOV      r8,r8
        0x080048c0:    e021        !.      B        0x8004906 ; _printf_fp_dec_real + 574
        0x080048c2:    2e00        ..      CMP      r6,#0
        0x080048c4:    db07        ..      BLT      0x80048d6 ; _printf_fp_dec_real + 526
        0x080048c6:    980e        ..      LDR      r0,[sp,#0x38]
        0x080048c8:    42b0        .B      CMP      r0,r6
        0x080048ca:    dd04        ..      BLE      0x80048d6 ; _printf_fp_dec_real + 526
        0x080048cc:    a803        ..      ADD      r0,sp,#0xc
        0x080048ce:    6862        bh      LDR      r2,[r4,#4]
        0x080048d0:    5d80        .]      LDRB     r0,[r0,r6]
        0x080048d2:    68a1        .h      LDR      r1,[r4,#8]
        0x080048d4:    e002        ..      B        0x80048dc ; _printf_fp_dec_real + 532
        0x080048d6:    6862        bh      LDR      r2,[r4,#4]
        0x080048d8:    68a1        .h      LDR      r1,[r4,#8]
        0x080048da:    2030        0       MOVS     r0,#0x30
        0x080048dc:    4790        .G      BLX      r2
        0x080048de:    6a20         j      LDR      r0,[r4,#0x20]
        0x080048e0:    1c76        v.      ADDS     r6,r6,#1
        0x080048e2:    1c40        @.      ADDS     r0,r0,#1
        0x080048e4:    6220         b      STR      r0,[r4,#0x20]
        0x080048e6:    9800        ..      LDR      r0,[sp,#0]
        0x080048e8:    1e40        @.      SUBS     r0,r0,#1
        0x080048ea:    2800        .(      CMP      r0,#0
        0x080048ec:    9000        ..      STR      r0,[sp,#0]
        0x080048ee:    d10a        ..      BNE      0x8004906 ; _printf_fp_dec_real + 574
        0x080048f0:    f000f8e6    ....    BL       __rt_locale ; 0x8004ac0
        0x080048f4:    68c0        .h      LDR      r0,[r0,#0xc]
        0x080048f6:    6862        bh      LDR      r2,[r4,#4]
        0x080048f8:    6801        .h      LDR      r1,[r0,#0]
        0x080048fa:    5c40        @\      LDRB     r0,[r0,r1]
        0x080048fc:    68a1        .h      LDR      r1,[r4,#8]
        0x080048fe:    4790        .G      BLX      r2
        0x08004900:    6a20         j      LDR      r0,[r4,#0x20]
        0x08004902:    1c40        @.      ADDS     r0,r0,#1
        0x08004904:    6220         b      STR      r0,[r4,#0x20]
        0x08004906:    4628        (F      MOV      r0,r5
        0x08004908:    1e6d        m.      SUBS     r5,r5,#1
        0x0800490a:    2800        .(      CMP      r0,#0
        0x0800490c:    dcd9        ..      BGT      0x80048c2 ; _printf_fp_dec_real + 506
        0x0800490e:    e007        ..      B        0x8004920 ; _printf_fp_dec_real + 600
        0x08004910:    6862        bh      LDR      r2,[r4,#4]
        0x08004912:    7838        8x      LDRB     r0,[r7,#0]
        0x08004914:    68a1        .h      LDR      r1,[r4,#8]
        0x08004916:    1c7f        ..      ADDS     r7,r7,#1
        0x08004918:    4790        .G      BLX      r2
        0x0800491a:    6a20         j      LDR      r0,[r4,#0x20]
        0x0800491c:    1c40        @.      ADDS     r0,r0,#1
        0x0800491e:    6220         b      STR      r0,[r4,#0x20]
        0x08004920:    990b        ..      LDR      r1,[sp,#0x2c]
        0x08004922:    1e48        H.      SUBS     r0,r1,#1
        0x08004924:    2900        .)      CMP      r1,#0
        0x08004926:    900b        ..      STR      r0,[sp,#0x2c]
        0x08004928:    dcf2        ..      BGT      0x8004910 ; _printf_fp_dec_real + 584
        0x0800492a:    4620         F      MOV      r0,r4
        0x0800492c:    46c0        .F      MOV      r8,r8
        0x0800492e:    46c0        .F      MOV      r8,r8
        0x08004930:    2003        .       MOVS     r0,#3
        0x08004932:    e642        B.      B        0x80045ba ; _fp_digits + 142
    $d
        0x08004934:    fffffc01    ....    DCD    4294966273
        0x08004938:    00004d10    .M..    DCD    19728
        0x0800493c:    ffffdfe1    ....    DCD    4294959073
    $t
    .text
    _printf_cs_common
        0x08004940:    b510        ..      PUSH     {r4,lr}
        0x08004942:    6943        Ci      LDR      r3,[r0,#0x14]
        0x08004944:    2b00        .+      CMP      r3,#0
        0x08004946:    d002        ..      BEQ      0x800494e ; _printf_cs_common + 14
        0x08004948:    46c0        .F      MOV      r8,r8
        0x0800494a:    46c0        .F      MOV      r8,r8
        0x0800494c:    e001        ..      B        0x8004952 ; _printf_cs_common + 18
        0x0800494e:    f7feffd7    ....    BL       _printf_str ; 0x8003900
        0x08004952:    2001        .       MOVS     r0,#1
        0x08004954:    bd10        ..      POP      {r4,pc}
    _printf_char
        0x08004956:    7812        .x      LDRB     r2,[r2,#0]
        0x08004958:    4601        .F      MOV      r1,r0
        0x0800495a:    3124        $1      ADDS     r1,r1,#0x24
        0x0800495c:    700a        .p      STRB     r2,[r1,#0]
        0x0800495e:    2200        ."      MOVS     r2,#0
        0x08004960:    704a        Jp      STRB     r2,[r1,#1]
        0x08004962:    2201        ."      MOVS     r2,#1
        0x08004964:    e7ec        ..      B        _printf_cs_common ; 0x8004940
    _printf_string
        0x08004966:    6811        .h      LDR      r1,[r2,#0]
        0x08004968:    2200        ."      MOVS     r2,#0
        0x0800496a:    43d2        .C      MVNS     r2,r2
        0x0800496c:    e7e8        ..      B        _printf_cs_common ; 0x8004940
        0x0800496e:    0000        ..      MOVS     r0,r0
    .text
    _printf_char_file
        0x08004970:    4b08        .K      LDR      r3,[pc,#32] ; [0x8004994] = 0xffffb987
        0x08004972:    b570        p.      PUSH     {r4-r6,lr}
        0x08004974:    460d        .F      MOV      r5,r1
        0x08004976:    447b        {D      ADD      r3,r3,pc
        0x08004978:    f000f8ed    ....    BL       _printf_char_common ; 0x8004b56
        0x0800497c:    4604        .F      MOV      r4,r0
        0x0800497e:    4628        (F      MOV      r0,r5
        0x08004980:    f7fbfcce    ....    BL       ferror ; 0x8000320
        0x08004984:    2800        .(      CMP      r0,#0
        0x08004986:    d002        ..      BEQ      0x800498e ; _printf_char_file + 30
        0x08004988:    2000        .       MOVS     r0,#0
        0x0800498a:    43c0        .C      MVNS     r0,r0
        0x0800498c:    bd70        p.      POP      {r4-r6,pc}
        0x0800498e:    4620         F      MOV      r0,r4
        0x08004990:    bd70        p.      POP      {r4-r6,pc}
    $d
        0x08004992:    0000        ..      DCW    0
        0x08004994:    ffffb987    ....    DCD    4294949255
    $t
    .text
    __rt_udiv10
        0x08004998:    4601        .F      MOV      r1,r0
        0x0800499a:    0880        ..      LSRS     r0,r0,#2
        0x0800499c:    1a08        ..      SUBS     r0,r1,r0
        0x0800499e:    0902        ..      LSRS     r2,r0,#4
        0x080049a0:    1810        ..      ADDS     r0,r2,r0
        0x080049a2:    0a02        ..      LSRS     r2,r0,#8
        0x080049a4:    1810        ..      ADDS     r0,r2,r0
        0x080049a6:    0c02        ..      LSRS     r2,r0,#16
        0x080049a8:    1810        ..      ADDS     r0,r2,r0
        0x080049aa:    08c0        ..      LSRS     r0,r0,#3
        0x080049ac:    0082        ..      LSLS     r2,r0,#2
        0x080049ae:    1812        ..      ADDS     r2,r2,r0
        0x080049b0:    0052        R.      LSLS     r2,r2,#1
        0x080049b2:    1a89        ..      SUBS     r1,r1,r2
        0x080049b4:    e001        ..      B        0x80049ba ; __rt_udiv10 + 34
        0x080049b6:    1c40        @.      ADDS     r0,r0,#1
        0x080049b8:    390a        .9      SUBS     r1,r1,#0xa
        0x080049ba:    290a        .)      CMP      r1,#0xa
        0x080049bc:    d2fb        ..      BCS      0x80049b6 ; __rt_udiv10 + 30
        0x080049be:    4770        pG      BX       lr
    .text
    _dsqrt
        0x080049c0:    b5f0        ..      PUSH     {r4-r7,lr}
        0x080049c2:    4b3d        =K      LDR      r3,[pc,#244] ; [0x8004ab8] = 0x7ff00000
        0x080049c4:    4602        .F      MOV      r2,r0
        0x080049c6:    460c        .F      MOV      r4,r1
        0x080049c8:    401c        .@      ANDS     r4,r4,r3
        0x080049ca:    2000        .       MOVS     r0,#0
        0x080049cc:    2c00        .,      CMP      r4,#0
        0x080049ce:    d063        c.      BEQ      0x8004a98 ; _dsqrt + 216
        0x080049d0:    4d3a        :M      LDR      r5,[pc,#232] ; [0x8004abc] = 0x7ff80000
        0x080049d2:    438b        .C      BICS     r3,r3,r1
        0x080049d4:    d066        f.      BEQ      0x8004aa4 ; _dsqrt + 228
        0x080049d6:    2900        .)      CMP      r1,#0
        0x080049d8:    db6b        k.      BLT      0x8004ab2 ; _dsqrt + 242
        0x080049da:    0d0b        ..      LSRS     r3,r1,#20
        0x080049dc:    051d        ..      LSLS     r5,r3,#20
        0x080049de:    43a9        .C      BICS     r1,r1,r5
        0x080049e0:    2501        .%      MOVS     r5,#1
        0x080049e2:    052d        -.      LSLS     r5,r5,#20
        0x080049e4:    4329        )C      ORRS     r1,r1,r5
        0x080049e6:    2401        .$      MOVS     r4,#1
        0x080049e8:    33fd        .3      ADDS     r3,r3,#0xfd
        0x080049ea:    40e3        .@      LSRS     r3,r3,r4
        0x080049ec:    d301        ..      BCC      0x80049f2 ; _dsqrt + 50
        0x080049ee:    1892        ..      ADDS     r2,r2,r2
        0x080049f0:    4149        IA      ADCS     r1,r1,r1
        0x080049f2:    33ff        .3      ADDS     r3,r3,#0xff
        0x080049f4:    3381        .3      ADDS     r3,r3,#0x81
        0x080049f6:    469c        .F      MOV      r12,r3
        0x080049f8:    028b        ..      LSLS     r3,r1,#10
        0x080049fa:    0d94        ..      LSRS     r4,r2,#22
        0x080049fc:    2101        .!      MOVS     r1,#1
        0x080049fe:    4323        #C      ORRS     r3,r3,r4
        0x08004a00:    0789        ..      LSLS     r1,r1,#30
        0x08004a02:    424c        LB      RSBS     r4,r1,#0
        0x08004a04:    0292        ..      LSLS     r2,r2,#10
        0x08004a06:    2700        .'      MOVS     r7,#0
        0x08004a08:    191b        ..      ADDS     r3,r3,r4
        0x08004a0a:    108c        ..      ASRS     r4,r1,#2
        0x08004a0c:    1a5d        ].      SUBS     r5,r3,r1
        0x08004a0e:    d404        ..      BMI      0x8004a1a ; _dsqrt + 90
        0x08004a10:    1b2d        -.      SUBS     r5,r5,r4
        0x08004a12:    d402        ..      BMI      0x8004a1a ; _dsqrt + 90
        0x08004a14:    462b        +F      MOV      r3,r5
        0x08004a16:    0065        e.      LSLS     r5,r4,#1
        0x08004a18:    1949        I.      ADDS     r1,r1,r5
        0x08004a1a:    1892        ..      ADDS     r2,r2,r2
        0x08004a1c:    415b        [A      ADCS     r3,r3,r3
        0x08004a1e:    0864        d.      LSRS     r4,r4,#1
        0x08004a20:    d1f4        ..      BNE      0x8004a0c ; _dsqrt + 76
        0x08004a22:    1a5c        \.      SUBS     r4,r3,r1
        0x08004a24:    d408        ..      BMI      0x8004a38 ; _dsqrt + 120
        0x08004a26:    2501        .%      MOVS     r5,#1
        0x08004a28:    07ed        ..      LSLS     r5,r5,#31
        0x08004a2a:    17ee        ..      ASRS     r6,r5,#31
        0x08004a2c:    1955        U.      ADDS     r5,r2,r5
        0x08004a2e:    4174        tA      ADCS     r4,r4,r6
        0x08004a30:    d402        ..      BMI      0x8004a38 ; _dsqrt + 120
        0x08004a32:    462a        *F      MOV      r2,r5
        0x08004a34:    4623        #F      MOV      r3,r4
        0x08004a36:    1c49        I.      ADDS     r1,r1,#1
        0x08004a38:    1894        ..      ADDS     r4,r2,r2
        0x08004a3a:    415b        [A      ADCS     r3,r3,r3
        0x08004a3c:    2201        ."      MOVS     r2,#1
        0x08004a3e:    0792        ..      LSLS     r2,r2,#30
        0x08004a40:    461d        .F      MOV      r5,r3
        0x08004a42:    1be6        ..      SUBS     r6,r4,r7
        0x08004a44:    418d        .A      SBCS     r5,r5,r1
        0x08004a46:    d406        ..      BMI      0x8004a56 ; _dsqrt + 150
        0x08004a48:    1ab6        ..      SUBS     r6,r6,r2
        0x08004a4a:    4185        .A      SBCS     r5,r5,r0
        0x08004a4c:    d403        ..      BMI      0x8004a56 ; _dsqrt + 150
        0x08004a4e:    462b        +F      MOV      r3,r5
        0x08004a50:    0055        U.      LSLS     r5,r2,#1
        0x08004a52:    4634        4F      MOV      r4,r6
        0x08004a54:    197f        ..      ADDS     r7,r7,r5
        0x08004a56:    1924        $.      ADDS     r4,r4,r4
        0x08004a58:    415b        [A      ADCS     r3,r3,r3
        0x08004a5a:    0852        R.      LSRS     r2,r2,#1
        0x08004a5c:    2a80        .*      CMP      r2,#0x80
        0x08004a5e:    d1ef        ..      BNE      0x8004a40 ; _dsqrt + 128
        0x08004a60:    4323        #C      ORRS     r3,r3,r4
        0x08004a62:    d000        ..      BEQ      0x8004a66 ; _dsqrt + 166
        0x08004a64:    2302        .#      MOVS     r3,#2
        0x08004a66:    4638        8F      MOV      r0,r7
        0x08004a68:    220a        ."      MOVS     r2,#0xa
        0x08004a6a:    40d0        .@      LSRS     r0,r0,r2
        0x08004a6c:    d301        ..      BCC      0x8004a72 ; _dsqrt + 178
        0x08004a6e:    2201        ."      MOVS     r2,#1
        0x08004a70:    4313        .C      ORRS     r3,r3,r2
        0x08004a72:    058a        ..      LSLS     r2,r1,#22
        0x08004a74:    4310        .C      ORRS     r0,r0,r2
        0x08004a76:    4662        bF      MOV      r2,r12
        0x08004a78:    0a89        ..      LSRS     r1,r1,#10
        0x08004a7a:    0512        ..      LSLS     r2,r2,#20
        0x08004a7c:    1889        ..      ADDS     r1,r1,r2
        0x08004a7e:    2b00        .+      CMP      r3,#0
        0x08004a80:    d009        ..      BEQ      0x8004a96 ; _dsqrt + 214
        0x08004a82:    2201        ."      MOVS     r2,#1
        0x08004a84:    40d3        .@      LSRS     r3,r3,r2
        0x08004a86:    d302        ..      BCC      0x8004a8e ; _dsqrt + 206
        0x08004a88:    2200        ."      MOVS     r2,#0
        0x08004a8a:    1c40        @.      ADDS     r0,r0,#1
        0x08004a8c:    4151        QA      ADCS     r1,r1,r2
        0x08004a8e:    2b00        .+      CMP      r3,#0
        0x08004a90:    d101        ..      BNE      0x8004a96 ; _dsqrt + 214
        0x08004a92:    0840        @.      LSRS     r0,r0,#1
        0x08004a94:    0040        @.      LSLS     r0,r0,#1
        0x08004a96:    bdf0        ..      POP      {r4-r7,pc}
        0x08004a98:    030b        ..      LSLS     r3,r1,#12
        0x08004a9a:    4313        .C      ORRS     r3,r3,r2
        0x08004a9c:    d007        ..      BEQ      0x8004aae ; _dsqrt + 238
        0x08004a9e:    0fc9        ..      LSRS     r1,r1,#31
        0x08004aa0:    07c9        ..      LSLS     r1,r1,#31
        0x08004aa2:    bdf0        ..      POP      {r4-r7,pc}
        0x08004aa4:    0308        ..      LSLS     r0,r1,#12
        0x08004aa6:    4310        .C      ORRS     r0,r0,r2
        0x08004aa8:    d103        ..      BNE      0x8004ab2 ; _dsqrt + 242
        0x08004aaa:    2900        .)      CMP      r1,#0
        0x08004aac:    db01        ..      BLT      0x8004ab2 ; _dsqrt + 242
        0x08004aae:    4610        .F      MOV      r0,r2
        0x08004ab0:    bdf0        ..      POP      {r4-r7,pc}
        0x08004ab2:    2000        .       MOVS     r0,#0
        0x08004ab4:    4629        )F      MOV      r1,r5
        0x08004ab6:    bdf0        ..      POP      {r4-r7,pc}
    $d
        0x08004ab8:    7ff00000    ....    DCD    2146435072
        0x08004abc:    7ff80000    ....    DCD    2146959360
    $t
    .text
    __rt_locale
        0x08004ac0:    4800        .H      LDR      r0,[pc,#0] ; [0x8004ac4] = 0x200010a8
        0x08004ac2:    4770        pG      BX       lr
    $d
        0x08004ac4:    200010a8    ...     DCD    536875176
    $t
    .text
    __aeabi_errno_addr
    __errno$intlibspace
    __rt_errno_addr$intlibspace
        0x08004ac8:    4800        .H      LDR      r0,[pc,#0] ; [0x8004acc] = 0x20001088
        0x08004aca:    4770        pG      BX       lr
    $d
        0x08004acc:    20001088    ...     DCD    536875144
    $t
    .text
    _ll_udiv10
        0x08004ad0:    460b        .F      MOV      r3,r1
        0x08004ad2:    b570        p.      PUSH     {r4-r6,lr}
        0x08004ad4:    4602        .F      MOV      r2,r0
        0x08004ad6:    0789        ..      LSLS     r1,r1,#30
        0x08004ad8:    0880        ..      LSRS     r0,r0,#2
        0x08004ada:    4308        .C      ORRS     r0,r0,r1
        0x08004adc:    4619        .F      MOV      r1,r3
        0x08004ade:    089d        ..      LSRS     r5,r3,#2
        0x08004ae0:    1a14        ..      SUBS     r4,r2,r0
        0x08004ae2:    41a9        .A      SBCS     r1,r1,r5
        0x08004ae4:    0925        %.      LSRS     r5,r4,#4
        0x08004ae6:    0708        ..      LSLS     r0,r1,#28
        0x08004ae8:    4305        .C      ORRS     r5,r5,r0
        0x08004aea:    0908        ..      LSRS     r0,r1,#4
        0x08004aec:    192c        ,.      ADDS     r4,r5,r4
        0x08004aee:    4148        HA      ADCS     r0,r0,r1
        0x08004af0:    0a25        %.      LSRS     r5,r4,#8
        0x08004af2:    0601        ..      LSLS     r1,r0,#24
        0x08004af4:    430d        .C      ORRS     r5,r5,r1
        0x08004af6:    0a01        ..      LSRS     r1,r0,#8
        0x08004af8:    192c        ,.      ADDS     r4,r5,r4
        0x08004afa:    4141        AA      ADCS     r1,r1,r0
        0x08004afc:    0c20         .      LSRS     r0,r4,#16
        0x08004afe:    040d        ..      LSLS     r5,r1,#16
        0x08004b00:    4328        (C      ORRS     r0,r0,r5
        0x08004b02:    0c0d        ..      LSRS     r5,r1,#16
        0x08004b04:    1900        ..      ADDS     r0,r0,r4
        0x08004b06:    414d        MA      ADCS     r5,r5,r1
        0x08004b08:    2100        .!      MOVS     r1,#0
        0x08004b0a:    1940        @.      ADDS     r0,r0,r5
        0x08004b0c:    414d        MA      ADCS     r5,r5,r1
        0x08004b0e:    08c0        ..      LSRS     r0,r0,#3
        0x08004b10:    0769        i.      LSLS     r1,r5,#29
        0x08004b12:    4308        .C      ORRS     r0,r0,r1
        0x08004b14:    08e9        ..      LSRS     r1,r5,#3
        0x08004b16:    0f84        ..      LSRS     r4,r0,#30
        0x08004b18:    008d        ..      LSLS     r5,r1,#2
        0x08004b1a:    4325        %C      ORRS     r5,r5,r4
        0x08004b1c:    0084        ..      LSLS     r4,r0,#2
        0x08004b1e:    1824        $.      ADDS     r4,r4,r0
        0x08004b20:    414d        MA      ADCS     r5,r5,r1
        0x08004b22:    1924        $.      ADDS     r4,r4,r4
        0x08004b24:    416d        mA      ADCS     r5,r5,r5
        0x08004b26:    1b12        ..      SUBS     r2,r2,r4
        0x08004b28:    41ab        .A      SBCS     r3,r3,r5
        0x08004b2a:    e007        ..      B        0x8004b3c ; _ll_udiv10 + 108
        0x08004b2c:    2509        .%      MOVS     r5,#9
        0x08004b2e:    43ed        .C      MVNS     r5,r5
        0x08004b30:    112c        ,.      ASRS     r4,r5,#4
        0x08004b32:    1952        R.      ADDS     r2,r2,r5
        0x08004b34:    4163        cA      ADCS     r3,r3,r4
        0x08004b36:    2400        .$      MOVS     r4,#0
        0x08004b38:    1c40        @.      ADDS     r0,r0,#1
        0x08004b3a:    4161        aA      ADCS     r1,r1,r4
        0x08004b3c:    461c        .F      MOV      r4,r3
        0x08004b3e:    250a        .%      MOVS     r5,#0xa
        0x08004b40:    2600        .&      MOVS     r6,#0
        0x08004b42:    1b55        U.      SUBS     r5,r2,r5
        0x08004b44:    41b4        .A      SBCS     r4,r4,r6
        0x08004b46:    d2f1        ..      BCS      0x8004b2c ; _ll_udiv10 + 92
        0x08004b48:    bd70        p.      POP      {r4-r6,pc}
        0x08004b4a:    0000        ..      MOVS     r0,r0
    .text
    _printf_input_char
        0x08004b4c:    6901        .i      LDR      r1,[r0,#0x10]
        0x08004b4e:    1c4a        J.      ADDS     r2,r1,#1
        0x08004b50:    6102        .a      STR      r2,[r0,#0x10]
        0x08004b52:    7808        .x      LDRB     r0,[r1,#0]
        0x08004b54:    4770        pG      BX       lr
    _printf_char_common
        0x08004b56:    b500        ..      PUSH     {lr}
        0x08004b58:    b08f        ..      SUB      sp,sp,#0x3c
        0x08004b5a:    9102        ..      STR      r1,[sp,#8]
        0x08004b5c:    2100        .!      MOVS     r1,#0
        0x08004b5e:    9105        ..      STR      r1,[sp,#0x14]
        0x08004b60:    4905        .I      LDR      r1,[pc,#20] ; [0x8004b78] = 0xffffffe5
        0x08004b62:    9301        ..      STR      r3,[sp,#4]
        0x08004b64:    4479        yD      ADD      r1,r1,pc
        0x08004b66:    9103        ..      STR      r1,[sp,#0xc]
        0x08004b68:    4611        .F      MOV      r1,r2
        0x08004b6a:    9004        ..      STR      r0,[sp,#0x10]
        0x08004b6c:    4668        hF      MOV      r0,sp
        0x08004b6e:    f7fefe91    ....    BL       __printf ; 0x8003894
        0x08004b72:    b00f        ..      ADD      sp,sp,#0x3c
        0x08004b74:    bd00        ..      POP      {pc}
    $d
        0x08004b76:    0000        ..      DCW    0
        0x08004b78:    ffffffe5    ....    DCD    4294967269
    $t
    .text
    _printf_fp_infnan
        0x08004b7c:    b5f8        ..      PUSH     {r3-r7,lr}
        0x08004b7e:    461f        .F      MOV      r7,r3
        0x08004b80:    4604        .F      MOV      r4,r0
        0x08004b82:    2301        .#      MOVS     r3,#1
        0x08004b84:    6800        .h      LDR      r0,[r0,#0]
        0x08004b86:    02db        ..      LSLS     r3,r3,#11
        0x08004b88:    2603        .&      MOVS     r6,#3
        0x08004b8a:    4601        .F      MOV      r1,r0
        0x08004b8c:    4018        .@      ANDS     r0,r0,r3
        0x08004b8e:    2a07        .*      CMP      r2,#7
        0x08004b90:    db05        ..      BLT      0x8004b9e ; _printf_fp_infnan + 34
        0x08004b92:    2800        .(      CMP      r0,#0
        0x08004b94:    d001        ..      BEQ      0x8004b9a ; _printf_fp_infnan + 30
        0x08004b96:    a517        ..      ADR      r5,{pc}+0x5e ; 0x8004bf4
        0x08004b98:    e006        ..      B        0x8004ba8 ; _printf_fp_infnan + 44
        0x08004b9a:    a517        ..      ADR      r5,{pc}+0x5e ; 0x8004bf8
        0x08004b9c:    e004        ..      B        0x8004ba8 ; _printf_fp_infnan + 44
        0x08004b9e:    2800        .(      CMP      r0,#0
        0x08004ba0:    d001        ..      BEQ      0x8004ba6 ; _printf_fp_infnan + 42
        0x08004ba2:    a516        ..      ADR      r5,{pc}+0x5a ; 0x8004bfc
        0x08004ba4:    e000        ..      B        0x8004ba8 ; _printf_fp_infnan + 44
        0x08004ba6:    a516        ..      ADR      r5,{pc}+0x5a ; 0x8004c00
        0x08004ba8:    2010        .       MOVS     r0,#0x10
        0x08004baa:    4381        .C      BICS     r1,r1,r0
        0x08004bac:    6021        !`      STR      r1,[r4,#0]
        0x08004bae:    69a0        .i      LDR      r0,[r4,#0x18]
        0x08004bb0:    1ec0        ..      SUBS     r0,r0,#3
        0x08004bb2:    2f00        ./      CMP      r7,#0
        0x08004bb4:    61a0        .a      STR      r0,[r4,#0x18]
        0x08004bb6:    d001        ..      BEQ      0x8004bbc ; _printf_fp_infnan + 64
        0x08004bb8:    1e40        @.      SUBS     r0,r0,#1
        0x08004bba:    61a0        .a      STR      r0,[r4,#0x18]
        0x08004bbc:    4620         F      MOV      r0,r4
        0x08004bbe:    46c0        .F      MOV      r8,r8
        0x08004bc0:    46c0        .F      MOV      r8,r8
        0x08004bc2:    2f00        ./      CMP      r7,#0
        0x08004bc4:    d009        ..      BEQ      0x8004bda ; _printf_fp_infnan + 94
        0x08004bc6:    4638        8F      MOV      r0,r7
        0x08004bc8:    6862        bh      LDR      r2,[r4,#4]
        0x08004bca:    68a1        .h      LDR      r1,[r4,#8]
        0x08004bcc:    4790        .G      BLX      r2
        0x08004bce:    6a20         j      LDR      r0,[r4,#0x20]
        0x08004bd0:    1c40        @.      ADDS     r0,r0,#1
        0x08004bd2:    6220         b      STR      r0,[r4,#0x20]
        0x08004bd4:    1cc0        ..      ADDS     r0,r0,#3
        0x08004bd6:    6220         b      STR      r0,[r4,#0x20]
        0x08004bd8:    e006        ..      B        0x8004be8 ; _printf_fp_infnan + 108
        0x08004bda:    6a20         j      LDR      r0,[r4,#0x20]
        0x08004bdc:    e7fa        ..      B        0x8004bd4 ; _printf_fp_infnan + 88
        0x08004bde:    6862        bh      LDR      r2,[r4,#4]
        0x08004be0:    7828        (x      LDRB     r0,[r5,#0]
        0x08004be2:    68a1        .h      LDR      r1,[r4,#8]
        0x08004be4:    1c6d        m.      ADDS     r5,r5,#1
        0x08004be6:    4790        .G      BLX      r2
        0x08004be8:    1e76        v.      SUBS     r6,r6,#1
        0x08004bea:    d2f8        ..      BCS      0x8004bde ; _printf_fp_infnan + 98
        0x08004bec:    4620         F      MOV      r0,r4
        0x08004bee:    46c0        .F      MOV      r8,r8
        0x08004bf0:    46c0        .F      MOV      r8,r8
        0x08004bf2:    bdf8        ..      POP      {r3-r7,pc}
    $d
        0x08004bf4:    004e414e    NAN.    DCD    5128526
        0x08004bf8:    006e616e    nan.    DCD    7233902
        0x08004bfc:    00464e49    INF.    DCD    4607561
        0x08004c00:    00666e69    inf.    DCD    6712937
    $t
    .text
    _btod_etento
        0x08004c04:    b5f7        ..      PUSH     {r0-r2,r4-r7,lr}
        0x08004c06:    4616        .F      MOV      r6,r2
        0x08004c08:    b08a        ..      SUB      sp,sp,#0x28
        0x08004c0a:    4833        3H      LDR      r0,[pc,#204] ; [0x8004cd8] = 0x2610
        0x08004c0c:    4478        xD      ADD      r0,r0,pc
        0x08004c0e:    466c        lF      MOV      r4,sp
        0x08004c10:    4603        .F      MOV      r3,r0
        0x08004c12:    337c        |3      ADDS     r3,r3,#0x7c
        0x08004c14:    6fc0        .o      LDR      r0,[r0,#0x7c]
        0x08004c16:    685a        Zh      LDR      r2,[r3,#4]
        0x08004c18:    689b        .h      LDR      r3,[r3,#8]
        0x08004c1a:    c40d        ..      STM      r4!,{r0,r2,r3}
        0x08004c1c:    482e        .H      LDR      r0,[pc,#184] ; [0x8004cd8] = 0x2610
        0x08004c1e:    4478        xD      ADD      r0,r0,pc
        0x08004c20:    3076        v0      ADDS     r0,r0,#0x76
        0x08004c22:    ac03        ..      ADD      r4,sp,#0xc
        0x08004c24:    c80d        ..      LDM      r0,{r0,r2,r3}
        0x08004c26:    c40d        ..      STM      r4!,{r0,r2,r3}
        0x08004c28:    2037        7       MOVS     r0,#0x37
        0x08004c2a:    01c0        ..      LSLS     r0,r0,#7
        0x08004c2c:    1808        ..      ADDS     r0,r1,r0
        0x08004c2e:    2137        7!      MOVS     r1,#0x37
        0x08004c30:    301b        .0      ADDS     r0,r0,#0x1b
        0x08004c32:    f7feff46    ..F.    BL       __aeabi_idiv ; 0x8003ac2
        0x08004c36:    4605        .F      MOV      r5,r0
        0x08004c38:    460c        .F      MOV      r4,r1
        0x08004c3a:    3d80        .=      SUBS     r5,r5,#0x80
        0x08004c3c:    3c1b        .<      SUBS     r4,r4,#0x1b
        0x08004c3e:    d502        ..      BPL      0x8004c46 ; _btod_etento + 66
        0x08004c40:    4264        dB      RSBS     r4,r4,#0
        0x08004c42:    2001        .       MOVS     r0,#1
        0x08004c44:    e000        ..      B        0x8004c48 ; _btod_etento + 68
        0x08004c46:    2000        .       MOVS     r0,#0
        0x08004c48:    2700        .'      MOVS     r7,#0
        0x08004c4a:    9009        ..      STR      r0,[sp,#0x24]
        0x08004c4c:    e010        ..      B        0x8004c70 ; _btod_etento + 108
        0x08004c4e:    07e0        ..      LSLS     r0,r4,#31
        0x08004c50:    d00c        ..      BEQ      0x8004c6c ; _btod_etento + 104
        0x08004c52:    200c        .       MOVS     r0,#0xc
        0x08004c54:    4920         I      LDR      r1,[pc,#128] ; [0x8004cd8] = 0x2610
        0x08004c56:    4378        xC      MULS     r0,r7,r0
        0x08004c58:    4479        yD      ADD      r1,r1,pc
        0x08004c5a:    4632        2F      MOV      r2,r6
        0x08004c5c:    394c        L9      SUBS     r1,r1,#0x4c
        0x08004c5e:    1841        A.      ADDS     r1,r0,r1
        0x08004c60:    4668        hF      MOV      r0,sp
        0x08004c62:    2301        .#      MOVS     r3,#1
        0x08004c64:    f000fa54    ..T.    BL       _btod_emul ; 0x8005110
        0x08004c68:    466b        kF      MOV      r3,sp
        0x08004c6a:    c307        ..      STM      r3!,{r0-r2}
        0x08004c6c:    1064        d.      ASRS     r4,r4,#1
        0x08004c6e:    1c7f        ..      ADDS     r7,r7,#1
        0x08004c70:    2c00        .,      CMP      r4,#0
        0x08004c72:    d1ec        ..      BNE      0x8004c4e ; _btod_etento + 74
        0x08004c74:    4f18        .O      LDR      r7,[pc,#96] ; [0x8004cd8] = 0x2610
        0x08004c76:    447f        .D      ADD      r7,r7,pc
        0x08004c78:    3f2e        .?      SUBS     r7,r7,#0x2e
        0x08004c7a:    e016        ..      B        0x8004caa ; _btod_etento + 166
        0x08004c7c:    07e8        ..      LSLS     r0,r5,#31
        0x08004c7e:    d012        ..      BEQ      0x8004ca6 ; _btod_etento + 162
        0x08004c80:    0120         .      LSLS     r0,r4,#4
        0x08004c82:    19c0        ..      ADDS     r0,r0,r7
        0x08004c84:    c80e        ..      LDM      r0!,{r1-r3}
        0x08004c86:    9106        ..      STR      r1,[sp,#0x18]
        0x08004c88:    9308        ..      STR      r3,[sp,#0x20]
        0x08004c8a:    9207        ..      STR      r2,[sp,#0x1c]
        0x08004c8c:    6800        .h      LDR      r0,[r0,#0]
        0x08004c8e:    42f0        .B      CMN      r0,r6
        0x08004c90:    d101        ..      BNE      0x8004c96 ; _btod_etento + 146
        0x08004c92:    1998        ..      ADDS     r0,r3,r6
        0x08004c94:    9008        ..      STR      r0,[sp,#0x20]
        0x08004c96:    4632        2F      MOV      r2,r6
        0x08004c98:    2301        .#      MOVS     r3,#1
        0x08004c9a:    a906        ..      ADD      r1,sp,#0x18
        0x08004c9c:    a803        ..      ADD      r0,sp,#0xc
        0x08004c9e:    f000fa37    ..7.    BL       _btod_emul ; 0x8005110
        0x08004ca2:    ab03        ..      ADD      r3,sp,#0xc
        0x08004ca4:    c307        ..      STM      r3!,{r0-r2}
        0x08004ca6:    106d        m.      ASRS     r5,r5,#1
        0x08004ca8:    1c64        d.      ADDS     r4,r4,#1
        0x08004caa:    2d00        .-      CMP      r5,#0
        0x08004cac:    d1e6        ..      BNE      0x8004c7c ; _btod_etento + 120
        0x08004cae:    9809        ..      LDR      r0,[sp,#0x24]
        0x08004cb0:    2800        .(      CMP      r0,#0
        0x08004cb2:    d006        ..      BEQ      0x8004cc2 ; _btod_etento + 190
        0x08004cb4:    4632        2F      MOV      r2,r6
        0x08004cb6:    4669        iF      MOV      r1,sp
        0x08004cb8:    2301        .#      MOVS     r3,#1
        0x08004cba:    a803        ..      ADD      r0,sp,#0xc
        0x08004cbc:    f000fa7e    ..~.    BL       _btod_ediv ; 0x80051bc
        0x08004cc0:    e005        ..      B        0x8004cce ; _btod_etento + 202
        0x08004cc2:    2301        .#      MOVS     r3,#1
        0x08004cc4:    4632        2F      MOV      r2,r6
        0x08004cc6:    4669        iF      MOV      r1,sp
        0x08004cc8:    a803        ..      ADD      r0,sp,#0xc
        0x08004cca:    f000fa21    ..!.    BL       _btod_emul ; 0x8005110
        0x08004cce:    9b0a        ..      LDR      r3,[sp,#0x28]
        0x08004cd0:    c307        ..      STM      r3!,{r0-r2}
        0x08004cd2:    b00d        ..      ADD      sp,sp,#0x34
        0x08004cd4:    bdf0        ..      POP      {r4-r7,pc}
    $d
        0x08004cd6:    0000        ..      DCW    0
        0x08004cd8:    00002610    .&..    DCD    9744
    $t
    .text
    _btod_d2e
        0x08004cdc:    4603        .F      MOV      r3,r0
        0x08004cde:    0040        @.      LSLS     r0,r0,#1
        0x08004ce0:    460a        .F      MOV      r2,r1
        0x08004ce2:    b510        ..      PUSH     {r4,lr}
        0x08004ce4:    0d40        @.      LSRS     r0,r0,#21
        0x08004ce6:    d00b        ..      BEQ      0x8004d00 ; _btod_d2e + 36
        0x08004ce8:    2101        .!      MOVS     r1,#1
        0x08004cea:    07c9        ..      LSLS     r1,r1,#31
        0x08004cec:    240f        .$      MOVS     r4,#0xf
        0x08004cee:    02a4        ..      LSLS     r4,r4,#10
        0x08004cf0:    1900        ..      ADDS     r0,r0,r4
        0x08004cf2:    031c        ..      LSLS     r4,r3,#12
        0x08004cf4:    0864        d.      LSRS     r4,r4,#1
        0x08004cf6:    4321        !C      ORRS     r1,r1,r4
        0x08004cf8:    0d54        T.      LSRS     r4,r2,#21
        0x08004cfa:    4321        !C      ORRS     r1,r1,r4
        0x08004cfc:    02d2        ..      LSLS     r2,r2,#11
        0x08004cfe:    e007        ..      B        0x8004d10 ; _btod_d2e + 52
        0x08004d00:    2100        .!      MOVS     r1,#0
        0x08004d02:    2001        .       MOVS     r0,#1
        0x08004d04:    e7f2        ..      B        0x8004cec ; _btod_d2e + 16
        0x08004d06:    0fd4        ..      LSRS     r4,r2,#31
        0x08004d08:    0049        I.      LSLS     r1,r1,#1
        0x08004d0a:    4321        !C      ORRS     r1,r1,r4
        0x08004d0c:    0052        R.      LSLS     r2,r2,#1
        0x08004d0e:    1e40        @.      SUBS     r0,r0,#1
        0x08004d10:    2900        .)      CMP      r1,#0
        0x08004d12:    daf8        ..      BGE      0x8004d06 ; _btod_d2e + 42
        0x08004d14:    0fdb        ..      LSRS     r3,r3,#31
        0x08004d16:    07db        ..      LSLS     r3,r3,#31
        0x08004d18:    4318        .C      ORRS     r0,r0,r3
        0x08004d1a:    bd10        ..      POP      {r4,pc}
    btod_internal_mul
        0x08004d1c:    b5ff        ..      PUSH     {r0-r7,lr}
        0x08004d1e:    460d        .F      MOV      r5,r1
        0x08004d20:    4614        .F      MOV      r4,r2
        0x08004d22:    b085        ..      SUB      sp,sp,#0x14
        0x08004d24:    6848        Hh      LDR      r0,[r1,#4]
        0x08004d26:    6851        Qh      LDR      r1,[r2,#4]
        0x08004d28:    f002f90a    ....    BL       __ARM_common_ll_muluu ; 0x8006f40
        0x08004d2c:    9100        ..      STR      r1,[sp,#0]
        0x08004d2e:    9001        ..      STR      r0,[sp,#4]
        0x08004d30:    68a8        .h      LDR      r0,[r5,#8]
        0x08004d32:    68a1        .h      LDR      r1,[r4,#8]
        0x08004d34:    f002f904    ....    BL       __ARM_common_ll_muluu ; 0x8006f40
        0x08004d38:    9102        ..      STR      r1,[sp,#8]
        0x08004d3a:    9003        ..      STR      r0,[sp,#0xc]
        0x08004d3c:    68a8        .h      LDR      r0,[r5,#8]
        0x08004d3e:    6861        ah      LDR      r1,[r4,#4]
        0x08004d40:    f002f8fe    ....    BL       __ARM_common_ll_muluu ; 0x8006f40
        0x08004d44:    9a02        ..      LDR      r2,[sp,#8]
        0x08004d46:    1812        ..      ADDS     r2,r2,r0
        0x08004d48:    4282        .B      CMP      r2,r0
        0x08004d4a:    9202        ..      STR      r2,[sp,#8]
        0x08004d4c:    d201        ..      BCS      0x8004d52 ; btod_internal_mul + 54
        0x08004d4e:    2001        .       MOVS     r0,#1
        0x08004d50:    e000        ..      B        0x8004d54 ; btod_internal_mul + 56
        0x08004d52:    2000        .       MOVS     r0,#0
        0x08004d54:    9a01        ..      LDR      r2,[sp,#4]
        0x08004d56:    180b        ..      ADDS     r3,r1,r0
        0x08004d58:    18d2        ..      ADDS     r2,r2,r3
        0x08004d5a:    2800        .(      CMP      r0,#0
        0x08004d5c:    9201        ..      STR      r2,[sp,#4]
        0x08004d5e:    d002        ..      BEQ      0x8004d66 ; btod_internal_mul + 74
        0x08004d60:    428a        .B      CMP      r2,r1
        0x08004d62:    d902        ..      BLS      0x8004d6a ; btod_internal_mul + 78
        0x08004d64:    e003        ..      B        0x8004d6e ; btod_internal_mul + 82
        0x08004d66:    428a        .B      CMP      r2,r1
        0x08004d68:    d201        ..      BCS      0x8004d6e ; btod_internal_mul + 82
        0x08004d6a:    2001        .       MOVS     r0,#1
        0x08004d6c:    e000        ..      B        0x8004d70 ; btod_internal_mul + 84
        0x08004d6e:    2000        .       MOVS     r0,#0
        0x08004d70:    9900        ..      LDR      r1,[sp,#0]
        0x08004d72:    1808        ..      ADDS     r0,r1,r0
        0x08004d74:    9000        ..      STR      r0,[sp,#0]
        0x08004d76:    6868        hh      LDR      r0,[r5,#4]
        0x08004d78:    68a1        .h      LDR      r1,[r4,#8]
        0x08004d7a:    f002f8e1    ....    BL       __ARM_common_ll_muluu ; 0x8006f40
        0x08004d7e:    9a02        ..      LDR      r2,[sp,#8]
        0x08004d80:    1812        ..      ADDS     r2,r2,r0
        0x08004d82:    4282        .B      CMP      r2,r0
        0x08004d84:    9202        ..      STR      r2,[sp,#8]
        0x08004d86:    d201        ..      BCS      0x8004d8c ; btod_internal_mul + 112
        0x08004d88:    2001        .       MOVS     r0,#1
        0x08004d8a:    e000        ..      B        0x8004d8e ; btod_internal_mul + 114
        0x08004d8c:    2000        .       MOVS     r0,#0
        0x08004d8e:    9a01        ..      LDR      r2,[sp,#4]
        0x08004d90:    180b        ..      ADDS     r3,r1,r0
        0x08004d92:    18d2        ..      ADDS     r2,r2,r3
        0x08004d94:    2800        .(      CMP      r0,#0
        0x08004d96:    9201        ..      STR      r2,[sp,#4]
        0x08004d98:    d002        ..      BEQ      0x8004da0 ; btod_internal_mul + 132
        0x08004d9a:    428a        .B      CMP      r2,r1
        0x08004d9c:    d902        ..      BLS      0x8004da4 ; btod_internal_mul + 136
        0x08004d9e:    e003        ..      B        0x8004da8 ; btod_internal_mul + 140
        0x08004da0:    428a        .B      CMP      r2,r1
        0x08004da2:    d201        ..      BCS      0x8004da8 ; btod_internal_mul + 140
        0x08004da4:    2001        .       MOVS     r0,#1
        0x08004da6:    e000        ..      B        0x8004daa ; btod_internal_mul + 142
        0x08004da8:    2000        .       MOVS     r0,#0
        0x08004daa:    9900        ..      LDR      r1,[sp,#0]
        0x08004dac:    1808        ..      ADDS     r0,r1,r0
        0x08004dae:    9000        ..      STR      r0,[sp,#0]
        0x08004db0:    6828        (h      LDR      r0,[r5,#0]
        0x08004db2:    6821        !h      LDR      r1,[r4,#0]
        0x08004db4:    0040        @.      LSLS     r0,r0,#1
        0x08004db6:    0049        I.      LSLS     r1,r1,#1
        0x08004db8:    0840        @.      LSRS     r0,r0,#1
        0x08004dba:    0849        I.      LSRS     r1,r1,#1
        0x08004dbc:    1840        @.      ADDS     r0,r0,r1
        0x08004dbe:    49fa        .I      LDR      r1,[pc,#1000] ; [0x80051a8] = 0xffffc002
        0x08004dc0:    1847        G.      ADDS     r7,r0,r1
        0x08004dc2:    e014        ..      B        0x8004dee ; btod_internal_mul + 210
        0x08004dc4:    9901        ..      LDR      r1,[sp,#4]
        0x08004dc6:    0040        @.      LSLS     r0,r0,#1
        0x08004dc8:    0fc9        ..      LSRS     r1,r1,#31
        0x08004dca:    4308        .C      ORRS     r0,r0,r1
        0x08004dcc:    9000        ..      STR      r0,[sp,#0]
        0x08004dce:    9801        ..      LDR      r0,[sp,#4]
        0x08004dd0:    9902        ..      LDR      r1,[sp,#8]
        0x08004dd2:    0040        @.      LSLS     r0,r0,#1
        0x08004dd4:    0fc9        ..      LSRS     r1,r1,#31
        0x08004dd6:    4308        .C      ORRS     r0,r0,r1
        0x08004dd8:    9001        ..      STR      r0,[sp,#4]
        0x08004dda:    9802        ..      LDR      r0,[sp,#8]
        0x08004ddc:    9903        ..      LDR      r1,[sp,#0xc]
        0x08004dde:    0040        @.      LSLS     r0,r0,#1
        0x08004de0:    0fc9        ..      LSRS     r1,r1,#31
        0x08004de2:    4308        .C      ORRS     r0,r0,r1
        0x08004de4:    9002        ..      STR      r0,[sp,#8]
        0x08004de6:    9803        ..      LDR      r0,[sp,#0xc]
        0x08004de8:    0040        @.      LSLS     r0,r0,#1
        0x08004dea:    1e7f        ..      SUBS     r7,r7,#1
        0x08004dec:    9003        ..      STR      r0,[sp,#0xc]
        0x08004dee:    9800        ..      LDR      r0,[sp,#0]
        0x08004df0:    2800        .(      CMP      r0,#0
        0x08004df2:    dae7        ..      BGE      0x8004dc4 ; btod_internal_mul + 168
        0x08004df4:    9808        ..      LDR      r0,[sp,#0x20]
        0x08004df6:    2800        .(      CMP      r0,#0
        0x08004df8:    d001        ..      BEQ      0x8004dfe ; btod_internal_mul + 226
        0x08004dfa:    4eec        .N      LDR      r6,[pc,#944] ; [0x80051ac] = 0x3c01
        0x08004dfc:    e000        ..      B        0x8004e00 ; btod_internal_mul + 228
        0x08004dfe:    2600        .&      MOVS     r6,#0
        0x08004e00:    42b7        .B      CMP      r7,r6
        0x08004e02:    da01        ..      BGE      0x8004e08 ; btod_internal_mul + 236
        0x08004e04:    2001        .       MOVS     r0,#1
        0x08004e06:    e000        ..      B        0x8004e0a ; btod_internal_mul + 238
        0x08004e08:    2000        .       MOVS     r0,#0
        0x08004e0a:    2800        .(      CMP      r0,#0
        0x08004e0c:    9004        ..      STR      r0,[sp,#0x10]
        0x08004e0e:    d02a        *.      BEQ      0x8004e66 ; btod_internal_mul + 330
        0x08004e10:    1bf7        ..      SUBS     r7,r6,r7
        0x08004e12:    06f8        ..      LSLS     r0,r7,#27
        0x08004e14:    0ec0        ..      LSRS     r0,r0,#27
        0x08004e16:    d015        ..      BEQ      0x8004e44 ; btod_internal_mul + 296
        0x08004e18:    9b02        ..      LDR      r3,[sp,#8]
        0x08004e1a:    2120         !      MOVS     r1,#0x20
        0x08004e1c:    1a09        ..      SUBS     r1,r1,r0
        0x08004e1e:    9a03        ..      LDR      r2,[sp,#0xc]
        0x08004e20:    408b        .@      LSLS     r3,r3,r1
        0x08004e22:    431a        .C      ORRS     r2,r2,r3
        0x08004e24:    9203        ..      STR      r2,[sp,#0xc]
        0x08004e26:    9a02        ..      LDR      r2,[sp,#8]
        0x08004e28:    9b01        ..      LDR      r3,[sp,#4]
        0x08004e2a:    40c2        .@      LSRS     r2,r2,r0
        0x08004e2c:    408b        .@      LSLS     r3,r3,r1
        0x08004e2e:    431a        .C      ORRS     r2,r2,r3
        0x08004e30:    9202        ..      STR      r2,[sp,#8]
        0x08004e32:    9a01        ..      LDR      r2,[sp,#4]
        0x08004e34:    9b00        ..      LDR      r3,[sp,#0]
        0x08004e36:    40c2        .@      LSRS     r2,r2,r0
        0x08004e38:    408b        .@      LSLS     r3,r3,r1
        0x08004e3a:    9900        ..      LDR      r1,[sp,#0]
        0x08004e3c:    431a        .C      ORRS     r2,r2,r3
        0x08004e3e:    9201        ..      STR      r2,[sp,#4]
        0x08004e40:    40c1        .@      LSRS     r1,r1,r0
        0x08004e42:    9100        ..      STR      r1,[sp,#0]
        0x08004e44:    117b        {.      ASRS     r3,r7,#5
        0x08004e46:    d00d        ..      BEQ      0x8004e64 ; btod_internal_mul + 328
        0x08004e48:    466f        oF      MOV      r7,sp
        0x08004e4a:    2003        .       MOVS     r0,#3
        0x08004e4c:    1ac1        ..      SUBS     r1,r0,r3
        0x08004e4e:    d503        ..      BPL      0x8004e58 ; btod_internal_mul + 316
        0x08004e50:    2100        .!      MOVS     r1,#0
        0x08004e52:    0082        ..      LSLS     r2,r0,#2
        0x08004e54:    50b9        .P      STR      r1,[r7,r2]
        0x08004e56:    e003        ..      B        0x8004e60 ; btod_internal_mul + 324
        0x08004e58:    008a        ..      LSLS     r2,r1,#2
        0x08004e5a:    0081        ..      LSLS     r1,r0,#2
        0x08004e5c:    58ba        .X      LDR      r2,[r7,r2]
        0x08004e5e:    507a        zP      STR      r2,[r7,r1]
        0x08004e60:    1e40        @.      SUBS     r0,r0,#1
        0x08004e62:    d5f3        ..      BPL      0x8004e4c ; btod_internal_mul + 304
        0x08004e64:    4637        7F      MOV      r7,r6
        0x08004e66:    9803        ..      LDR      r0,[sp,#0xc]
        0x08004e68:    9902        ..      LDR      r1,[sp,#8]
        0x08004e6a:    2800        .(      CMP      r0,#0
        0x08004e6c:    d000        ..      BEQ      0x8004e70 ; btod_internal_mul + 340
        0x08004e6e:    2001        .       MOVS     r0,#1
        0x08004e70:    4301        .C      ORRS     r1,r1,r0
        0x08004e72:    9808        ..      LDR      r0,[sp,#0x20]
        0x08004e74:    9102        ..      STR      r1,[sp,#8]
        0x08004e76:    2800        .(      CMP      r0,#0
        0x08004e78:    4608        .F      MOV      r0,r1
        0x08004e7a:    d00c        ..      BEQ      0x8004e96 ; btod_internal_mul + 378
        0x08004e7c:    2800        .(      CMP      r0,#0
        0x08004e7e:    d000        ..      BEQ      0x8004e82 ; btod_internal_mul + 358
        0x08004e80:    2001        .       MOVS     r0,#1
        0x08004e82:    9901        ..      LDR      r1,[sp,#4]
        0x08004e84:    9a01        ..      LDR      r2,[sp,#4]
        0x08004e86:    0549        I.      LSLS     r1,r1,#21
        0x08004e88:    4308        .C      ORRS     r0,r0,r1
        0x08004e8a:    2101        .!      MOVS     r1,#1
        0x08004e8c:    0ad2        ..      LSRS     r2,r2,#11
        0x08004e8e:    02c9        ..      LSLS     r1,r1,#11
        0x08004e90:    02d2        ..      LSLS     r2,r2,#11
        0x08004e92:    9201        ..      STR      r2,[sp,#4]
        0x08004e94:    e000        ..      B        0x8004e98 ; btod_internal_mul + 380
        0x08004e96:    2101        .!      MOVS     r1,#1
        0x08004e98:    9b0e        ..      LDR      r3,[sp,#0x38]
        0x08004e9a:    2201        ."      MOVS     r2,#1
        0x08004e9c:    07d2        ..      LSLS     r2,r2,#31
        0x08004e9e:    2b01        .+      CMP      r3,#1
        0x08004ea0:    d002        ..      BEQ      0x8004ea8 ; btod_internal_mul + 396
        0x08004ea2:    2b00        .+      CMP      r3,#0
        0x08004ea4:    d003        ..      BEQ      0x8004eae ; btod_internal_mul + 402
        0x08004ea6:    e013        ..      B        0x8004ed0 ; btod_internal_mul + 436
        0x08004ea8:    2800        .(      CMP      r0,#0
        0x08004eaa:    d107        ..      BNE      0x8004ebc ; btod_internal_mul + 416
        0x08004eac:    e020         .      B        0x8004ef0 ; btod_internal_mul + 468
        0x08004eae:    4290        .B      CMP      r0,r2
        0x08004eb0:    d804        ..      BHI      0x8004ebc ; btod_internal_mul + 416
        0x08004eb2:    4290        .B      CMP      r0,r2
        0x08004eb4:    d10c        ..      BNE      0x8004ed0 ; btod_internal_mul + 436
        0x08004eb6:    9b01        ..      LDR      r3,[sp,#4]
        0x08004eb8:    420b        .B      TST      r3,r1
        0x08004eba:    d009        ..      BEQ      0x8004ed0 ; btod_internal_mul + 436
        0x08004ebc:    9b01        ..      LDR      r3,[sp,#4]
        0x08004ebe:    1859        Y.      ADDS     r1,r3,r1
        0x08004ec0:    9101        ..      STR      r1,[sp,#4]
        0x08004ec2:    d105        ..      BNE      0x8004ed0 ; btod_internal_mul + 436
        0x08004ec4:    9900        ..      LDR      r1,[sp,#0]
        0x08004ec6:    1c49        I.      ADDS     r1,r1,#1
        0x08004ec8:    9100        ..      STR      r1,[sp,#0]
        0x08004eca:    d101        ..      BNE      0x8004ed0 ; btod_internal_mul + 436
        0x08004ecc:    1c7f        ..      ADDS     r7,r7,#1
        0x08004ece:    9200        ..      STR      r2,[sp,#0]
        0x08004ed0:    2800        .(      CMP      r0,#0
        0x08004ed2:    d00d        ..      BEQ      0x8004ef0 ; btod_internal_mul + 468
        0x08004ed4:    2110        .!      MOVS     r1,#0x10
        0x08004ed6:    4608        .F      MOV      r0,r1
        0x08004ed8:    2000        .       MOVS     r0,#0
        0x08004eda:    46c0        .F      MOV      r8,r8
        0x08004edc:    9804        ..      LDR      r0,[sp,#0x10]
        0x08004ede:    2800        .(      CMP      r0,#0
        0x08004ee0:    d006        ..      BEQ      0x8004ef0 ; btod_internal_mul + 468
        0x08004ee2:    980f        ..      LDR      r0,[sp,#0x3c]
        0x08004ee4:    2800        .(      CMP      r0,#0
        0x08004ee6:    d003        ..      BEQ      0x8004ef0 ; btod_internal_mul + 468
        0x08004ee8:    2108        .!      MOVS     r1,#8
        0x08004eea:    4608        .F      MOV      r0,r1
        0x08004eec:    2000        .       MOVS     r0,#0
        0x08004eee:    46c0        .F      MOV      r8,r8
        0x08004ef0:    6828        (h      LDR      r0,[r5,#0]
        0x08004ef2:    6821        !h      LDR      r1,[r4,#0]
        0x08004ef4:    9b01        ..      LDR      r3,[sp,#4]
        0x08004ef6:    9a00        ..      LDR      r2,[sp,#0]
        0x08004ef8:    4048        H@      EORS     r0,r0,r1
        0x08004efa:    0fc1        ..      LSRS     r1,r0,#31
        0x08004efc:    9805        ..      LDR      r0,[sp,#0x14]
        0x08004efe:    07c9        ..      LSLS     r1,r1,#31
        0x08004f00:    4339        9C      ORRS     r1,r1,r7
        0x08004f02:    c00e        ..      STM      r0!,{r1-r3}
        0x08004f04:    b009        ..      ADD      sp,sp,#0x24
        0x08004f06:    bdf0        ..      POP      {r4-r7,pc}
    btod_internal_div
        0x08004f08:    b5ff        ..      PUSH     {r0-r7,lr}
        0x08004f0a:    b087        ..      SUB      sp,sp,#0x1c
        0x08004f0c:    9a09        ..      LDR      r2,[sp,#0x24]
        0x08004f0e:    9808        ..      LDR      r0,[sp,#0x20]
        0x08004f10:    9908        ..      LDR      r1,[sp,#0x20]
        0x08004f12:    6853        Sh      LDR      r3,[r2,#4]
        0x08004f14:    6892        .h      LDR      r2,[r2,#8]
        0x08004f16:    6840        @h      LDR      r0,[r0,#4]
        0x08004f18:    6889        .h      LDR      r1,[r1,#8]
        0x08004f1a:    4696        .F      MOV      lr,r2
        0x08004f1c:    2200        ."      MOVS     r2,#0
        0x08004f1e:    9303        ..      STR      r3,[sp,#0xc]
        0x08004f20:    4617        .F      MOV      r7,r2
        0x08004f22:    4694        .F      MOV      r12,r2
        0x08004f24:    9a08        ..      LDR      r2,[sp,#0x20]
        0x08004f26:    6812        .h      LDR      r2,[r2,#0]
        0x08004f28:    0053        S.      LSLS     r3,r2,#1
        0x08004f2a:    9a09        ..      LDR      r2,[sp,#0x24]
        0x08004f2c:    085b        [.      LSRS     r3,r3,#1
        0x08004f2e:    6812        .h      LDR      r2,[r2,#0]
        0x08004f30:    0052        R.      LSLS     r2,r2,#1
        0x08004f32:    0852        R.      LSRS     r2,r2,#1
        0x08004f34:    1a9a        ..      SUBS     r2,r3,r2
        0x08004f36:    4b9e        .K      LDR      r3,[pc,#632] ; [0x80051b0] = 0x3fff
        0x08004f38:    18d4        ..      ADDS     r4,r2,r3
        0x08004f3a:    9a0a        ..      LDR      r2,[sp,#0x28]
        0x08004f3c:    2a00        .*      CMP      r2,#0
        0x08004f3e:    d001        ..      BEQ      0x8004f44 ; btod_internal_div + 60
        0x08004f40:    2235        5"      MOVS     r2,#0x35
        0x08004f42:    e000        ..      B        0x8004f46 ; btod_internal_div + 62
        0x08004f44:    2240        @"      MOVS     r2,#0x40
        0x08004f46:    9206        ..      STR      r2,[sp,#0x18]
        0x08004f48:    2200        ."      MOVS     r2,#0
        0x08004f4a:    2301        .#      MOVS     r3,#1
        0x08004f4c:    4615        .F      MOV      r5,r2
        0x08004f4e:    9204        ..      STR      r2,[sp,#0x10]
        0x08004f50:    07db        ..      LSLS     r3,r3,#31
        0x08004f52:    9305        ..      STR      r3,[sp,#0x14]
        0x08004f54:    e024        $.      B        0x8004fa0 ; btod_internal_div + 152
        0x08004f56:    2d00        .-      CMP      r5,#0
        0x08004f58:    d105        ..      BNE      0x8004f66 ; btod_internal_div + 94
        0x08004f5a:    4675        uF      MOV      r5,lr
        0x08004f5c:    4603        .F      MOV      r3,r0
        0x08004f5e:    9e03        ..      LDR      r6,[sp,#0xc]
        0x08004f60:    1b4d        M.      SUBS     r5,r1,r5
        0x08004f62:    41b3        .A      SBCS     r3,r3,r6
        0x08004f64:    d309        ..      BCC      0x8004f7a ; btod_internal_div + 114
        0x08004f66:    4675        uF      MOV      r5,lr
        0x08004f68:    4666        fF      MOV      r6,r12
        0x08004f6a:    9b03        ..      LDR      r3,[sp,#0xc]
        0x08004f6c:    1b49        I.      SUBS     r1,r1,r5
        0x08004f6e:    9d04        ..      LDR      r5,[sp,#0x10]
        0x08004f70:    4198        .A      SBCS     r0,r0,r3
        0x08004f72:    9b05        ..      LDR      r3,[sp,#0x14]
        0x08004f74:    1975        u.      ADDS     r5,r6,r5
        0x08004f76:    46ac        .F      MOV      r12,r5
        0x08004f78:    415f        _A      ADCS     r7,r7,r3
        0x08004f7a:    4663        cF      MOV      r3,r12
        0x08004f7c:    433b        ;C      ORRS     r3,r3,r7
        0x08004f7e:    d008        ..      BEQ      0x8004f92 ; btod_internal_div + 138
        0x08004f80:    9b05        ..      LDR      r3,[sp,#0x14]
        0x08004f82:    9e04        ..      LDR      r6,[sp,#0x10]
        0x08004f84:    07dd        ..      LSLS     r5,r3,#31
        0x08004f86:    0876        v.      LSRS     r6,r6,#1
        0x08004f88:    432e        .C      ORRS     r6,r6,r5
        0x08004f8a:    085b        [.      LSRS     r3,r3,#1
        0x08004f8c:    9604        ..      STR      r6,[sp,#0x10]
        0x08004f8e:    9305        ..      STR      r3,[sp,#0x14]
        0x08004f90:    e001        ..      B        0x8004f96 ; btod_internal_div + 142
        0x08004f92:    1e52        R.      SUBS     r2,r2,#1
        0x08004f94:    1e64        d.      SUBS     r4,r4,#1
        0x08004f96:    0fc5        ..      LSRS     r5,r0,#31
        0x08004f98:    07ed        ..      LSLS     r5,r5,#31
        0x08004f9a:    1849        I.      ADDS     r1,r1,r1
        0x08004f9c:    4140        @A      ADCS     r0,r0,r0
        0x08004f9e:    1c52        R.      ADDS     r2,r2,#1
        0x08004fa0:    9b06        ..      LDR      r3,[sp,#0x18]
        0x08004fa2:    429a        .B      CMP      r2,r3
        0x08004fa4:    dbd7        ..      BLT      0x8004f56 ; btod_internal_div + 78
        0x08004fa6:    2d00        .-      CMP      r5,#0
        0x08004fa8:    d104        ..      BNE      0x8004fb4 ; btod_internal_div + 172
        0x08004faa:    4675        uF      MOV      r5,lr
        0x08004fac:    9a03        ..      LDR      r2,[sp,#0xc]
        0x08004fae:    1a6b        k.      SUBS     r3,r5,r1
        0x08004fb0:    4182        .A      SBCS     r2,r2,r0
        0x08004fb2:    d201        ..      BCS      0x8004fb8 ; btod_internal_div + 176
        0x08004fb4:    2003        .       MOVS     r0,#3
        0x08004fb6:    e00c        ..      B        0x8004fd2 ; btod_internal_div + 202
        0x08004fb8:    9a03        ..      LDR      r2,[sp,#0xc]
        0x08004fba:    460b        .F      MOV      r3,r1
        0x08004fbc:    406b        k@      EORS     r3,r3,r5
        0x08004fbe:    4042        B@      EORS     r2,r2,r0
        0x08004fc0:    4313        .C      ORRS     r3,r3,r2
        0x08004fc2:    d003        ..      BEQ      0x8004fcc ; btod_internal_div + 196
        0x08004fc4:    4301        .C      ORRS     r1,r1,r0
        0x08004fc6:    d003        ..      BEQ      0x8004fd0 ; btod_internal_div + 200
        0x08004fc8:    2001        .       MOVS     r0,#1
        0x08004fca:    e002        ..      B        0x8004fd2 ; btod_internal_div + 202
        0x08004fcc:    2002        .       MOVS     r0,#2
        0x08004fce:    e000        ..      B        0x8004fd2 ; btod_internal_div + 202
        0x08004fd0:    2000        .       MOVS     r0,#0
        0x08004fd2:    4661        aF      MOV      r1,r12
        0x08004fd4:    9101        ..      STR      r1,[sp,#4]
        0x08004fd6:    2100        .!      MOVS     r1,#0
        0x08004fd8:    9700        ..      STR      r7,[sp,#0]
        0x08004fda:    9102        ..      STR      r1,[sp,#8]
        0x08004fdc:    990a        ..      LDR      r1,[sp,#0x28]
        0x08004fde:    2900        .)      CMP      r1,#0
        0x08004fe0:    d005        ..      BEQ      0x8004fee ; btod_internal_div + 230
        0x08004fe2:    4661        aF      MOV      r1,r12
        0x08004fe4:    0240        @.      LSLS     r0,r0,#9
        0x08004fe6:    4301        .C      ORRS     r1,r1,r0
        0x08004fe8:    4b70        pK      LDR      r3,[pc,#448] ; [0x80051ac] = 0x3c01
        0x08004fea:    9101        ..      STR      r1,[sp,#4]
        0x08004fec:    e002        ..      B        0x8004ff4 ; btod_internal_div + 236
        0x08004fee:    0780        ..      LSLS     r0,r0,#30
        0x08004ff0:    2300        .#      MOVS     r3,#0
        0x08004ff2:    9002        ..      STR      r0,[sp,#8]
        0x08004ff4:    429c        .B      CMP      r4,r3
        0x08004ff6:    da01        ..      BGE      0x8004ffc ; btod_internal_div + 244
        0x08004ff8:    2001        .       MOVS     r0,#1
        0x08004ffa:    e000        ..      B        0x8004ffe ; btod_internal_div + 246
        0x08004ffc:    2000        .       MOVS     r0,#0
        0x08004ffe:    0007        ..      MOVS     r7,r0
        0x08005000:    d03a        :.      BEQ      0x8005078 ; btod_internal_div + 368
        0x08005002:    1b1a        ..      SUBS     r2,r3,r4
        0x08005004:    06d0        ..      LSLS     r0,r2,#27
        0x08005006:    0ec0        ..      LSRS     r0,r0,#27
        0x08005008:    d015        ..      BEQ      0x8005036 ; btod_internal_div + 302
        0x0800500a:    9d02        ..      LDR      r5,[sp,#8]
        0x0800500c:    2120         !      MOVS     r1,#0x20
        0x0800500e:    9c01        ..      LDR      r4,[sp,#4]
        0x08005010:    1a09        ..      SUBS     r1,r1,r0
        0x08005012:    40c5        .@      LSRS     r5,r5,r0
        0x08005014:    408c        .@      LSLS     r4,r4,r1
        0x08005016:    4325        %C      ORRS     r5,r5,r4
        0x08005018:    9c02        ..      LDR      r4,[sp,#8]
        0x0800501a:    408c        .@      LSLS     r4,r4,r1
        0x0800501c:    d000        ..      BEQ      0x8005020 ; btod_internal_div + 280
        0x0800501e:    2401        .$      MOVS     r4,#1
        0x08005020:    4325        %C      ORRS     r5,r5,r4
        0x08005022:    9c01        ..      LDR      r4,[sp,#4]
        0x08005024:    9502        ..      STR      r5,[sp,#8]
        0x08005026:    9d00        ..      LDR      r5,[sp,#0]
        0x08005028:    40c4        .@      LSRS     r4,r4,r0
        0x0800502a:    408d        .@      LSLS     r5,r5,r1
        0x0800502c:    9900        ..      LDR      r1,[sp,#0]
        0x0800502e:    432c        ,C      ORRS     r4,r4,r5
        0x08005030:    9401        ..      STR      r4,[sp,#4]
        0x08005032:    40c1        .@      LSRS     r1,r1,r0
        0x08005034:    9100        ..      STR      r1,[sp,#0]
        0x08005036:    1154        T.      ASRS     r4,r2,#5
        0x08005038:    d01d        ..      BEQ      0x8005076 ; btod_internal_div + 366
        0x0800503a:    466d        mF      MOV      r5,sp
        0x0800503c:    2102        .!      MOVS     r1,#2
        0x0800503e:    2200        ."      MOVS     r2,#0
        0x08005040:    2902        .)      CMP      r1,#2
        0x08005042:    d10c        ..      BNE      0x800505e ; btod_internal_div + 342
        0x08005044:    2003        .       MOVS     r0,#3
        0x08005046:    1b00        ..      SUBS     r0,r0,r4
        0x08005048:    e007        ..      B        0x800505a ; btod_internal_div + 338
        0x0800504a:    2800        .(      CMP      r0,#0
        0x0800504c:    db04        ..      BLT      0x8005058 ; btod_internal_div + 336
        0x0800504e:    0086        ..      LSLS     r6,r0,#2
        0x08005050:    59ae        .Y      LDR      r6,[r5,r6]
        0x08005052:    2e00        ..      CMP      r6,#0
        0x08005054:    d000        ..      BEQ      0x8005058 ; btod_internal_div + 336
        0x08005056:    2201        ."      MOVS     r2,#1
        0x08005058:    1c40        @.      ADDS     r0,r0,#1
        0x0800505a:    2803        .(      CMP      r0,#3
        0x0800505c:    dbf5        ..      BLT      0x800504a ; btod_internal_div + 322
        0x0800505e:    1b08        ..      SUBS     r0,r1,r4
        0x08005060:    d502        ..      BPL      0x8005068 ; btod_internal_div + 352
        0x08005062:    0088        ..      LSLS     r0,r1,#2
        0x08005064:    502a        *P      STR      r2,[r5,r0]
        0x08005066:    e004        ..      B        0x8005072 ; btod_internal_div + 362
        0x08005068:    0080        ..      LSLS     r0,r0,#2
        0x0800506a:    5828        (X      LDR      r0,[r5,r0]
        0x0800506c:    4310        .C      ORRS     r0,r0,r2
        0x0800506e:    008a        ..      LSLS     r2,r1,#2
        0x08005070:    50a8        .P      STR      r0,[r5,r2]
        0x08005072:    1e49        I.      SUBS     r1,r1,#1
        0x08005074:    d5e3        ..      BPL      0x800503e ; btod_internal_div + 310
        0x08005076:    461c        .F      MOV      r4,r3
        0x08005078:    980a        ..      LDR      r0,[sp,#0x28]
        0x0800507a:    2800        .(      CMP      r0,#0
        0x0800507c:    9802        ..      LDR      r0,[sp,#8]
        0x0800507e:    d00c        ..      BEQ      0x800509a ; btod_internal_div + 402
        0x08005080:    2800        .(      CMP      r0,#0
        0x08005082:    d000        ..      BEQ      0x8005086 ; btod_internal_div + 382
        0x08005084:    2001        .       MOVS     r0,#1
        0x08005086:    9901        ..      LDR      r1,[sp,#4]
        0x08005088:    9a01        ..      LDR      r2,[sp,#4]
        0x0800508a:    0549        I.      LSLS     r1,r1,#21
        0x0800508c:    4308        .C      ORRS     r0,r0,r1
        0x0800508e:    2101        .!      MOVS     r1,#1
        0x08005090:    0ad2        ..      LSRS     r2,r2,#11
        0x08005092:    02c9        ..      LSLS     r1,r1,#11
        0x08005094:    02d2        ..      LSLS     r2,r2,#11
        0x08005096:    9201        ..      STR      r2,[sp,#4]
        0x08005098:    e000        ..      B        0x800509c ; btod_internal_div + 404
        0x0800509a:    2101        .!      MOVS     r1,#1
        0x0800509c:    9b10        ..      LDR      r3,[sp,#0x40]
        0x0800509e:    2201        ."      MOVS     r2,#1
        0x080050a0:    07d2        ..      LSLS     r2,r2,#31
        0x080050a2:    2b01        .+      CMP      r3,#1
        0x080050a4:    d002        ..      BEQ      0x80050ac ; btod_internal_div + 420
        0x080050a6:    2b00        .+      CMP      r3,#0
        0x080050a8:    d003        ..      BEQ      0x80050b2 ; btod_internal_div + 426
        0x080050aa:    e013        ..      B        0x80050d4 ; btod_internal_div + 460
        0x080050ac:    2800        .(      CMP      r0,#0
        0x080050ae:    d107        ..      BNE      0x80050c0 ; btod_internal_div + 440
        0x080050b0:    e01f        ..      B        0x80050f2 ; btod_internal_div + 490
        0x080050b2:    4290        .B      CMP      r0,r2
        0x080050b4:    d804        ..      BHI      0x80050c0 ; btod_internal_div + 440
        0x080050b6:    4290        .B      CMP      r0,r2
        0x080050b8:    d10c        ..      BNE      0x80050d4 ; btod_internal_div + 460
        0x080050ba:    9b01        ..      LDR      r3,[sp,#4]
        0x080050bc:    420b        .B      TST      r3,r1
        0x080050be:    d009        ..      BEQ      0x80050d4 ; btod_internal_div + 460
        0x080050c0:    9b01        ..      LDR      r3,[sp,#4]
        0x080050c2:    1859        Y.      ADDS     r1,r3,r1
        0x080050c4:    9101        ..      STR      r1,[sp,#4]
        0x080050c6:    d105        ..      BNE      0x80050d4 ; btod_internal_div + 460
        0x080050c8:    9900        ..      LDR      r1,[sp,#0]
        0x080050ca:    1c49        I.      ADDS     r1,r1,#1
        0x080050cc:    9100        ..      STR      r1,[sp,#0]
        0x080050ce:    d101        ..      BNE      0x80050d4 ; btod_internal_div + 460
        0x080050d0:    1c64        d.      ADDS     r4,r4,#1
        0x080050d2:    9200        ..      STR      r2,[sp,#0]
        0x080050d4:    2800        .(      CMP      r0,#0
        0x080050d6:    d00c        ..      BEQ      0x80050f2 ; btod_internal_div + 490
        0x080050d8:    2110        .!      MOVS     r1,#0x10
        0x080050da:    4608        .F      MOV      r0,r1
        0x080050dc:    2000        .       MOVS     r0,#0
        0x080050de:    46c0        .F      MOV      r8,r8
        0x080050e0:    2f00        ./      CMP      r7,#0
        0x080050e2:    d006        ..      BEQ      0x80050f2 ; btod_internal_div + 490
        0x080050e4:    9811        ..      LDR      r0,[sp,#0x44]
        0x080050e6:    2800        .(      CMP      r0,#0
        0x080050e8:    d003        ..      BEQ      0x80050f2 ; btod_internal_div + 490
        0x080050ea:    2108        .!      MOVS     r1,#8
        0x080050ec:    4608        .F      MOV      r0,r1
        0x080050ee:    2000        .       MOVS     r0,#0
        0x080050f0:    46c0        .F      MOV      r8,r8
        0x080050f2:    9808        ..      LDR      r0,[sp,#0x20]
        0x080050f4:    9909        ..      LDR      r1,[sp,#0x24]
        0x080050f6:    9a01        ..      LDR      r2,[sp,#4]
        0x080050f8:    9b00        ..      LDR      r3,[sp,#0]
        0x080050fa:    6800        .h      LDR      r0,[r0,#0]
        0x080050fc:    6809        .h      LDR      r1,[r1,#0]
        0x080050fe:    4048        H@      EORS     r0,r0,r1
        0x08005100:    0fc1        ..      LSRS     r1,r0,#31
        0x08005102:    9807        ..      LDR      r0,[sp,#0x1c]
        0x08005104:    07c9        ..      LSLS     r1,r1,#31
        0x08005106:    4321        !C      ORRS     r1,r1,r4
        0x08005108:    6082        .`      STR      r2,[r0,#8]
        0x0800510a:    c00a        ..      STM      r0!,{r1,r3}
        0x0800510c:    b00b        ..      ADD      sp,sp,#0x2c
        0x0800510e:    bdf0        ..      POP      {r4-r7,pc}
    _btod_emul
        0x08005110:    b500        ..      PUSH     {lr}
        0x08005112:    b085        ..      SUB      sp,sp,#0x14
        0x08005114:    9301        ..      STR      r3,[sp,#4]
        0x08005116:    9200        ..      STR      r2,[sp,#0]
        0x08005118:    460a        .F      MOV      r2,r1
        0x0800511a:    4601        .F      MOV      r1,r0
        0x0800511c:    2300        .#      MOVS     r3,#0
        0x0800511e:    a802        ..      ADD      r0,sp,#8
        0x08005120:    f7fffdfc    ....    BL       btod_internal_mul ; 0x8004d1c
        0x08005124:    a802        ..      ADD      r0,sp,#8
        0x08005126:    c807        ..      LDM      r0,{r0-r2}
        0x08005128:    b005        ..      ADD      sp,sp,#0x14
        0x0800512a:    bd00        ..      POP      {pc}
    _btod_emuld
        0x0800512c:    b5ff        ..      PUSH     {r0-r7,lr}
        0x0800512e:    460a        .F      MOV      r2,r1
        0x08005130:    461f        .F      MOV      r7,r3
        0x08005132:    b085        ..      SUB      sp,sp,#0x14
        0x08005134:    9907        ..      LDR      r1,[sp,#0x1c]
        0x08005136:    9301        ..      STR      r3,[sp,#4]
        0x08005138:    2301        .#      MOVS     r3,#1
        0x0800513a:    9100        ..      STR      r1,[sp,#0]
        0x0800513c:    4601        .F      MOV      r1,r0
        0x0800513e:    a802        ..      ADD      r0,sp,#8
        0x08005140:    f7fffdec    ....    BL       btod_internal_mul ; 0x8004d1c
        0x08005144:    9902        ..      LDR      r1,[sp,#8]
        0x08005146:    9803        ..      LDR      r0,[sp,#0xc]
        0x08005148:    9e04        ..      LDR      r6,[sp,#0x10]
        0x0800514a:    0fca        ..      LSRS     r2,r1,#31
        0x0800514c:    0049        I.      LSLS     r1,r1,#1
        0x0800514e:    07d2        ..      LSLS     r2,r2,#31
        0x08005150:    9200        ..      STR      r2,[sp,#0]
        0x08005152:    220f        ."      MOVS     r2,#0xf
        0x08005154:    0849        I.      LSRS     r1,r1,#1
        0x08005156:    0292        ..      LSLS     r2,r2,#10
        0x08005158:    1a8c        ..      SUBS     r4,r1,r2
        0x0800515a:    2100        .!      MOVS     r1,#0
        0x0800515c:    2800        .(      CMP      r0,#0
        0x0800515e:    db00        ..      BLT      0x8005162 ; _btod_emuld + 54
        0x08005160:    460c        .F      MOV      r4,r1
        0x08005162:    0045        E.      LSLS     r5,r0,#1
        0x08005164:    4813        .H      LDR      r0,[pc,#76] ; [0x80051b4] = 0x7ff
        0x08005166:    086d        m.      LSRS     r5,r5,#1
        0x08005168:    4284        .B      CMP      r4,r0
        0x0800516a:    d314        ..      BCC      0x8005196 ; _btod_emuld + 106
        0x0800516c:    9a07        ..      LDR      r2,[sp,#0x1c]
        0x0800516e:    2a00        .*      CMP      r2,#0
        0x08005170:    da04        ..      BGE      0x800517c ; _btod_emuld + 80
        0x08005172:    1e44        D.      SUBS     r4,r0,#1
        0x08005174:    2600        .&      MOVS     r6,#0
        0x08005176:    4d10        .M      LDR      r5,[pc,#64] ; [0x80051b8] = 0x7fffffff
        0x08005178:    43f6        .C      MVNS     r6,r6
        0x0800517a:    e002        ..      B        0x8005182 ; _btod_emuld + 86
        0x0800517c:    4604        .F      MOV      r4,r0
        0x0800517e:    460d        .F      MOV      r5,r1
        0x08005180:    460e        .F      MOV      r6,r1
        0x08005182:    2110        .!      MOVS     r1,#0x10
        0x08005184:    4608        .F      MOV      r0,r1
        0x08005186:    2000        .       MOVS     r0,#0
        0x08005188:    46c0        .F      MOV      r8,r8
        0x0800518a:    2f00        ./      CMP      r7,#0
        0x0800518c:    d003        ..      BEQ      0x8005196 ; _btod_emuld + 106
        0x0800518e:    2104        .!      MOVS     r1,#4
        0x08005190:    4608        .F      MOV      r0,r1
        0x08005192:    2000        .       MOVS     r0,#0
        0x08005194:    46c0        .F      MOV      r8,r8
        0x08005196:    0520         .      LSLS     r0,r4,#20
        0x08005198:    0ae9        ..      LSRS     r1,r5,#11
        0x0800519a:    4308        .C      ORRS     r0,r0,r1
        0x0800519c:    9900        ..      LDR      r1,[sp,#0]
        0x0800519e:    4308        .C      ORRS     r0,r0,r1
        0x080051a0:    0569        i.      LSLS     r1,r5,#21
        0x080051a2:    0af2        ..      LSRS     r2,r6,#11
        0x080051a4:    4311        .C      ORRS     r1,r1,r2
        0x080051a6:    e6ad        ..      B        0x8004f04 ; btod_internal_mul + 488
    $d
        0x080051a8:    ffffc002    ....    DCD    4294950914
        0x080051ac:    00003c01    .<..    DCD    15361
        0x080051b0:    00003fff    .?..    DCD    16383
        0x080051b4:    000007ff    ....    DCD    2047
        0x080051b8:    7fffffff    ....    DCD    2147483647
    $t
    _btod_ediv
        0x080051bc:    b500        ..      PUSH     {lr}
        0x080051be:    b085        ..      SUB      sp,sp,#0x14
        0x080051c0:    9301        ..      STR      r3,[sp,#4]
        0x080051c2:    9200        ..      STR      r2,[sp,#0]
        0x080051c4:    460a        .F      MOV      r2,r1
        0x080051c6:    4601        .F      MOV      r1,r0
        0x080051c8:    2300        .#      MOVS     r3,#0
        0x080051ca:    a802        ..      ADD      r0,sp,#8
        0x080051cc:    f7fffe9c    ....    BL       btod_internal_div ; 0x8004f08
        0x080051d0:    a802        ..      ADD      r0,sp,#8
        0x080051d2:    c807        ..      LDM      r0,{r0-r2}
        0x080051d4:    e7a8        ..      B        0x8005128 ; _btod_emul + 24
    _btod_edivd
        0x080051d6:    b5ff        ..      PUSH     {r0-r7,lr}
        0x080051d8:    460a        .F      MOV      r2,r1
        0x080051da:    461f        .F      MOV      r7,r3
        0x080051dc:    b085        ..      SUB      sp,sp,#0x14
        0x080051de:    9907        ..      LDR      r1,[sp,#0x1c]
        0x080051e0:    9301        ..      STR      r3,[sp,#4]
        0x080051e2:    2301        .#      MOVS     r3,#1
        0x080051e4:    9100        ..      STR      r1,[sp,#0]
        0x080051e6:    4601        .F      MOV      r1,r0
        0x080051e8:    a802        ..      ADD      r0,sp,#8
        0x080051ea:    f7fffe8d    ....    BL       btod_internal_div ; 0x8004f08
        0x080051ee:    9902        ..      LDR      r1,[sp,#8]
        0x080051f0:    9803        ..      LDR      r0,[sp,#0xc]
        0x080051f2:    9e04        ..      LDR      r6,[sp,#0x10]
        0x080051f4:    0fca        ..      LSRS     r2,r1,#31
        0x080051f6:    0049        I.      LSLS     r1,r1,#1
        0x080051f8:    07d2        ..      LSLS     r2,r2,#31
        0x080051fa:    9200        ..      STR      r2,[sp,#0]
        0x080051fc:    220f        ."      MOVS     r2,#0xf
        0x080051fe:    0849        I.      LSRS     r1,r1,#1
        0x08005200:    0292        ..      LSLS     r2,r2,#10
        0x08005202:    1a8c        ..      SUBS     r4,r1,r2
        0x08005204:    2100        .!      MOVS     r1,#0
        0x08005206:    2800        .(      CMP      r0,#0
        0x08005208:    db00        ..      BLT      0x800520c ; _btod_edivd + 54
        0x0800520a:    460c        .F      MOV      r4,r1
        0x0800520c:    0045        E.      LSLS     r5,r0,#1
        0x0800520e:    4811        .H      LDR      r0,[pc,#68] ; [0x8005254] = 0x7ff
        0x08005210:    086d        m.      LSRS     r5,r5,#1
        0x08005212:    4284        .B      CMP      r4,r0
        0x08005214:    d314        ..      BCC      0x8005240 ; _btod_edivd + 106
        0x08005216:    9a07        ..      LDR      r2,[sp,#0x1c]
        0x08005218:    2a00        .*      CMP      r2,#0
        0x0800521a:    da04        ..      BGE      0x8005226 ; _btod_edivd + 80
        0x0800521c:    1e44        D.      SUBS     r4,r0,#1
        0x0800521e:    2600        .&      MOVS     r6,#0
        0x08005220:    4d0d        .M      LDR      r5,[pc,#52] ; [0x8005258] = 0x7fffffff
        0x08005222:    43f6        .C      MVNS     r6,r6
        0x08005224:    e002        ..      B        0x800522c ; _btod_edivd + 86
        0x08005226:    4604        .F      MOV      r4,r0
        0x08005228:    460d        .F      MOV      r5,r1
        0x0800522a:    460e        .F      MOV      r6,r1
        0x0800522c:    2110        .!      MOVS     r1,#0x10
        0x0800522e:    4608        .F      MOV      r0,r1
        0x08005230:    2000        .       MOVS     r0,#0
        0x08005232:    46c0        .F      MOV      r8,r8
        0x08005234:    2f00        ./      CMP      r7,#0
        0x08005236:    d003        ..      BEQ      0x8005240 ; _btod_edivd + 106
        0x08005238:    2104        .!      MOVS     r1,#4
        0x0800523a:    4608        .F      MOV      r0,r1
        0x0800523c:    2000        .       MOVS     r0,#0
        0x0800523e:    46c0        .F      MOV      r8,r8
        0x08005240:    0520         .      LSLS     r0,r4,#20
        0x08005242:    0ae9        ..      LSRS     r1,r5,#11
        0x08005244:    4308        .C      ORRS     r0,r0,r1
        0x08005246:    9900        ..      LDR      r1,[sp,#0]
        0x08005248:    4308        .C      ORRS     r0,r0,r1
        0x0800524a:    0569        i.      LSLS     r1,r5,#21
        0x0800524c:    0af2        ..      LSRS     r2,r6,#11
        0x0800524e:    4311        .C      ORRS     r1,r1,r2
        0x08005250:    e658        X.      B        0x8004f04 ; btod_internal_mul + 488
    $d
        0x08005252:    0000        ..      DCW    0
        0x08005254:    000007ff    ....    DCD    2047
        0x08005258:    7fffffff    ....    DCD    2147483647
    $t
    .text
    __fpl_dcmp_InfNaN
        0x0800525c:    b5f8        ..      PUSH     {r3-r7,lr}
        0x0800525e:    4c26        &L      LDR      r4,[pc,#152] ; [0x80052f8] = 0xffe00000
        0x08005260:    004e        N.      LSLS     r6,r1,#1
        0x08005262:    9d06        ..      LDR      r5,[sp,#0x18]
        0x08005264:    42a6        .B      CMP      r6,r4
        0x08005266:    d80a        ..      BHI      0x800527e ; __fpl_dcmp_InfNaN + 34
        0x08005268:    42a6        .B      CMP      r6,r4
        0x0800526a:    d101        ..      BNE      0x8005270 ; __fpl_dcmp_InfNaN + 20
        0x0800526c:    2800        .(      CMP      r0,#0
        0x0800526e:    d106        ..      BNE      0x800527e ; __fpl_dcmp_InfNaN + 34
        0x08005270:    005e        ^.      LSLS     r6,r3,#1
        0x08005272:    42a6        .B      CMP      r6,r4
        0x08005274:    d803        ..      BHI      0x800527e ; __fpl_dcmp_InfNaN + 34
        0x08005276:    42a6        .B      CMP      r6,r4
        0x08005278:    d10a        ..      BNE      0x8005290 ; __fpl_dcmp_InfNaN + 52
        0x0800527a:    2a00        .*      CMP      r2,#0
        0x0800527c:    d008        ..      BEQ      0x8005290 ; __fpl_dcmp_InfNaN + 52
        0x0800527e:    240d        .$      MOVS     r4,#0xd
        0x08005280:    0424        $.      LSLS     r4,r4,#16
        0x08005282:    4225        %B      TST      r5,r4
        0x08005284:    d033        3.      BEQ      0x80052ee ; __fpl_dcmp_InfNaN + 146
        0x08005286:    4629        )F      MOV      r1,r5
        0x08005288:    2000        .       MOVS     r0,#0
        0x0800528a:    f000f883    ....    BL       __fpl_cmpreturn ; 0x8005394
        0x0800528e:    bdf8        ..      POP      {r3-r7,pc}
        0x08005290:    460c        .F      MOV      r4,r1
        0x08005292:    431c        .C      ORRS     r4,r4,r3
        0x08005294:    d411        ..      BMI      0x80052ba ; __fpl_dcmp_InfNaN + 94
        0x08005296:    4299        .B      CMP      r1,r3
        0x08005298:    d007        ..      BEQ      0x80052aa ; __fpl_dcmp_InfNaN + 78
        0x0800529a:    1ac8        ..      SUBS     r0,r1,r3
        0x0800529c:    d302        ..      BCC      0x80052a4 ; __fpl_dcmp_InfNaN + 72
        0x0800529e:    f3ef8000    ....    MRS      r0,APSR ; formerly CPSR
        0x080052a2:    bdf8        ..      POP      {r3-r7,pc}
        0x080052a4:    f3ef8000    ....    MRS      r0,APSR ; formerly CPSR
        0x080052a8:    bdf8        ..      POP      {r3-r7,pc}
        0x080052aa:    1a80        ..      SUBS     r0,r0,r2
        0x080052ac:    d302        ..      BCC      0x80052b4 ; __fpl_dcmp_InfNaN + 88
        0x080052ae:    f3ef8000    ....    MRS      r0,APSR ; formerly CPSR
        0x080052b2:    bdf8        ..      POP      {r3-r7,pc}
        0x080052b4:    f3ef8000    ....    MRS      r0,APSR ; formerly CPSR
        0x080052b8:    bdf8        ..      POP      {r3-r7,pc}
        0x080052ba:    2409        .$      MOVS     r4,#9
        0x080052bc:    0724        $.      LSLS     r4,r4,#28
        0x080052be:    00e5        ..      LSLS     r5,r4,#3
        0x080052c0:    428b        .B      CMP      r3,r1
        0x080052c2:    d007        ..      BEQ      0x80052d4 ; __fpl_dcmp_InfNaN + 120
        0x080052c4:    1a58        X.      SUBS     r0,r3,r1
        0x080052c6:    d302        ..      BCC      0x80052ce ; __fpl_dcmp_InfNaN + 114
        0x080052c8:    f3ef8000    ....    MRS      r0,APSR ; formerly CPSR
        0x080052cc:    e006        ..      B        0x80052dc ; __fpl_dcmp_InfNaN + 128
        0x080052ce:    f3ef8000    ....    MRS      r0,APSR ; formerly CPSR
        0x080052d2:    e007        ..      B        0x80052e4 ; __fpl_dcmp_InfNaN + 136
        0x080052d4:    1a10        ..      SUBS     r0,r2,r0
        0x080052d6:    d303        ..      BCC      0x80052e0 ; __fpl_dcmp_InfNaN + 132
        0x080052d8:    f3ef8000    ....    MRS      r0,APSR ; formerly CPSR
        0x080052dc:    43a0        .C      BICS     r0,r0,r4
        0x080052de:    e003        ..      B        0x80052e8 ; __fpl_dcmp_InfNaN + 140
        0x080052e0:    f3ef8000    ....    MRS      r0,APSR ; formerly CPSR
        0x080052e4:    43a0        .C      BICS     r0,r0,r4
        0x080052e6:    4328        (C      ORRS     r0,r0,r5
        0x080052e8:    f3808800    ....    MSR      APSR_nzcvq,r0 ; formerly CPSR_f
        0x080052ec:    bdf8        ..      POP      {r3-r7,pc}
        0x080052ee:    9500        ..      STR      r5,[sp,#0]
        0x080052f0:    f000f868    ..h.    BL       __fpl_dcheck_NaN2 ; 0x80053c4
        0x080052f4:    bdf8        ..      POP      {r3-r7,pc}
    $d
        0x080052f6:    0000        ..      DCW    0
        0x080052f8:    ffe00000    ....    DCD    4292870144
    $t
    .text
    exit
        0x080052fc:    b510        ..      PUSH     {r4,lr}
        0x080052fe:    4604        .F      MOV      r4,r0
        0x08005300:    46c0        .F      MOV      r8,r8
        0x08005302:    46c0        .F      MOV      r8,r8
        0x08005304:    4620         F      MOV      r0,r4
        0x08005306:    f7faffc1    ....    BL       __rt_exit ; 0x800028c
        0x0800530a:    bd10        ..      POP      {r4,pc}
    .text
    strcmp
        0x0800530c:    4602        .F      MOV      r2,r0
        0x0800530e:    b570        p.      PUSH     {r4-r6,lr}
        0x08005310:    430a        .C      ORRS     r2,r2,r1
        0x08005312:    0792        ..      LSLS     r2,r2,#30
        0x08005314:    d12a        *.      BNE      0x800536c ; strcmp + 96
        0x08005316:    4d1e        .M      LDR      r5,[pc,#120] ; [0x8005390] = 0x1010101
        0x08005318:    01ee        ..      LSLS     r6,r5,#7
        0x0800531a:    c804        ..      LDM      r0!,{r2}
        0x0800531c:    c908        ..      LDM      r1!,{r3}
        0x0800531e:    1b54        T.      SUBS     r4,r2,r5
        0x08005320:    4394        .C      BICS     r4,r4,r2
        0x08005322:    4034        4@      ANDS     r4,r4,r6
        0x08005324:    d017        ..      BEQ      0x8005356 ; strcmp + 74
        0x08005326:    b2d0        ..      UXTB     r0,r2
        0x08005328:    b2d9        ..      UXTB     r1,r3
        0x0800532a:    1a40        @.      SUBS     r0,r0,r1
        0x0800532c:    0621        !.      LSLS     r1,r4,#24
        0x0800532e:    4301        .C      ORRS     r1,r1,r0
        0x08005330:    d110        ..      BNE      0x8005354 ; strcmp + 72
        0x08005332:    b290        ..      UXTH     r0,r2
        0x08005334:    b299        ..      UXTH     r1,r3
        0x08005336:    1a40        @.      SUBS     r0,r0,r1
        0x08005338:    0421        !.      LSLS     r1,r4,#16
        0x0800533a:    4301        .C      ORRS     r1,r1,r0
        0x0800533c:    d10a        ..      BNE      0x8005354 ; strcmp + 72
        0x0800533e:    0210        ..      LSLS     r0,r2,#8
        0x08005340:    0219        ..      LSLS     r1,r3,#8
        0x08005342:    0a00        ..      LSRS     r0,r0,#8
        0x08005344:    0a09        ..      LSRS     r1,r1,#8
        0x08005346:    1a40        @.      SUBS     r0,r0,r1
        0x08005348:    0221        !.      LSLS     r1,r4,#8
        0x0800534a:    4301        .C      ORRS     r1,r1,r0
        0x0800534c:    d102        ..      BNE      0x8005354 ; strcmp + 72
        0x0800534e:    0e10        ..      LSRS     r0,r2,#24
        0x08005350:    0e19        ..      LSRS     r1,r3,#24
        0x08005352:    1a40        @.      SUBS     r0,r0,r1
        0x08005354:    bd70        p.      POP      {r4-r6,pc}
        0x08005356:    429a        .B      CMP      r2,r3
        0x08005358:    d0df        ..      BEQ      0x800531a ; strcmp + 14
        0x0800535a:    ba10        ..      REV      r0,r2
        0x0800535c:    ba19        ..      REV      r1,r3
        0x0800535e:    4288        .B      CMP      r0,r1
        0x08005360:    d901        ..      BLS      0x8005366 ; strcmp + 90
        0x08005362:    2001        .       MOVS     r0,#1
        0x08005364:    bd70        p.      POP      {r4-r6,pc}
        0x08005366:    2000        .       MOVS     r0,#0
        0x08005368:    43c0        .C      MVNS     r0,r0
        0x0800536a:    bd70        p.      POP      {r4-r6,pc}
        0x0800536c:    7802        .x      LDRB     r2,[r0,#0]
        0x0800536e:    780b        .x      LDRB     r3,[r1,#0]
        0x08005370:    1c40        @.      ADDS     r0,r0,#1
        0x08005372:    1c49        I.      ADDS     r1,r1,#1
        0x08005374:    2a00        .*      CMP      r2,#0
        0x08005376:    d009        ..      BEQ      0x800538c ; strcmp + 128
        0x08005378:    429a        .B      CMP      r2,r3
        0x0800537a:    d107        ..      BNE      0x800538c ; strcmp + 128
        0x0800537c:    7802        .x      LDRB     r2,[r0,#0]
        0x0800537e:    780b        .x      LDRB     r3,[r1,#0]
        0x08005380:    1c40        @.      ADDS     r0,r0,#1
        0x08005382:    1c49        I.      ADDS     r1,r1,#1
        0x08005384:    2a00        .*      CMP      r2,#0
        0x08005386:    d001        ..      BEQ      0x800538c ; strcmp + 128
        0x08005388:    429a        .B      CMP      r2,r3
        0x0800538a:    d0ef        ..      BEQ      0x800536c ; strcmp + 96
        0x0800538c:    1ad0        ..      SUBS     r0,r2,r3
        0x0800538e:    bd70        p.      POP      {r4-r6,pc}
    $d
        0x08005390:    01010101    ....    DCD    16843009
    $t
    .text
    __fpl_cmpreturn
        0x08005394:    02c8        ..      LSLS     r0,r1,#11
        0x08005396:    d512        ..      BPL      0x80053be ; __fpl_cmpreturn + 42
        0x08005398:    0348        H.      LSLS     r0,r1,#13
        0x0800539a:    0f40        @.      LSRS     r0,r0,#29
        0x0800539c:    2800        .(      CMP      r0,#0
        0x0800539e:    d004        ..      BEQ      0x80053aa ; __fpl_cmpreturn + 22
        0x080053a0:    03c8        ..      LSLS     r0,r1,#15
        0x080053a2:    43c0        .C      MVNS     r0,r0
        0x080053a4:    2101        .!      MOVS     r1,#1
        0x080053a6:    4088        .@      LSLS     r0,r0,r1
        0x080053a8:    4770        pG      BX       lr
        0x080053aa:    f3ef8000    ....    MRS      r0,APSR ; formerly CPSR
        0x080053ae:    0100        ..      LSLS     r0,r0,#4
        0x080053b0:    0900        ..      LSRS     r0,r0,#4
        0x080053b2:    2103        .!      MOVS     r1,#3
        0x080053b4:    0709        ..      LSLS     r1,r1,#28
        0x080053b6:    4308        .C      ORRS     r0,r0,r1
        0x080053b8:    f3808800    ....    MSR      APSR_nzcvq,r0 ; formerly CPSR_f
        0x080053bc:    4770        pG      BX       lr
        0x080053be:    2000        .       MOVS     r0,#0
        0x080053c0:    4770        pG      BX       lr
        0x080053c2:    0000        ..      MOVS     r0,r0
    .text
    __fpl_dcheck_NaN2
        0x080053c4:    b510        ..      PUSH     {r4,lr}
        0x080053c6:    2000        .       MOVS     r0,#0
        0x080053c8:    4902        .I      LDR      r1,[pc,#8] ; [0x80053d4] = 0x7ff80000
        0x080053ca:    9a02        ..      LDR      r2,[sp,#8]
        0x080053cc:    f000f804    ....    BL       __fpl_return_NaN ; 0x80053d8
        0x080053d0:    bd10        ..      POP      {r4,pc}
    $d
        0x080053d2:    0000        ..      DCW    0
        0x080053d4:    7ff80000    ....    DCD    2146959360
    $t
    .text
    __fpl_return_NaN
        0x080053d8:    b510        ..      PUSH     {r4,lr}
        0x080053da:    460c        .F      MOV      r4,r1
        0x080053dc:    0711        ..      LSLS     r1,r2,#28
        0x080053de:    0f09        ..      LSRS     r1,r1,#28
        0x080053e0:    2909        .)      CMP      r1,#9
        0x080053e2:    d004        ..      BEQ      0x80053ee ; __fpl_return_NaN + 22
        0x080053e4:    290a        .)      CMP      r1,#0xa
        0x080053e6:    d00a        ..      BEQ      0x80053fe ; __fpl_return_NaN + 38
        0x080053e8:    2908        .)      CMP      r1,#8
        0x080053ea:    d10c        ..      BNE      0x8005406 ; __fpl_return_NaN + 46
        0x080053ec:    e004        ..      B        0x80053f8 ; __fpl_return_NaN + 32
        0x080053ee:    4611        .F      MOV      r1,r2
        0x080053f0:    2008        .       MOVS     r0,#8
        0x080053f2:    f7ffffcf    ....    BL       __fpl_cmpreturn ; 0x8005394
        0x080053f6:    e006        ..      B        0x8005406 ; __fpl_return_NaN + 46
        0x080053f8:    0651        Q.      LSLS     r1,r2,#25
        0x080053fa:    d506        ..      BPL      0x800540a ; __fpl_return_NaN + 50
        0x080053fc:    e001        ..      B        0x8005402 ; __fpl_return_NaN + 42
        0x080053fe:    0651        Q.      LSLS     r1,r2,#25
        0x08005400:    d501        ..      BPL      0x8005406 ; __fpl_return_NaN + 46
        0x08005402:    2001        .       MOVS     r0,#1
        0x08005404:    07c0        ..      LSLS     r0,r0,#31
        0x08005406:    4621        !F      MOV      r1,r4
        0x08005408:    bd10        ..      POP      {r4,pc}
        0x0800540a:    06d1        ..      LSLS     r1,r2,#27
        0x0800540c:    d507        ..      BPL      0x800541e ; __fpl_return_NaN + 70
        0x0800540e:    0101        ..      LSLS     r1,r0,#4
        0x08005410:    0909        ..      LSRS     r1,r1,#4
        0x08005412:    08cc        ..      LSRS     r4,r1,#3
        0x08005414:    0749        I.      LSLS     r1,r1,#29
        0x08005416:    0e00        ..      LSRS     r0,r0,#24
        0x08005418:    0600        ..      LSLS     r0,r0,#24
        0x0800541a:    4304        .C      ORRS     r4,r4,r0
        0x0800541c:    e009        ..      B        0x8005432 ; __fpl_return_NaN + 90
        0x0800541e:    0f41        A.      LSRS     r1,r0,#29
        0x08005420:    0220         .      LSLS     r0,r4,#8
        0x08005422:    0749        I.      LSLS     r1,r1,#29
        0x08005424:    0a00        ..      LSRS     r0,r0,#8
        0x08005426:    4301        .C      ORRS     r1,r1,r0
        0x08005428:    0e20         .      LSRS     r0,r4,#24
        0x0800542a:    0600        ..      LSLS     r0,r0,#24
        0x0800542c:    221d        ."      MOVS     r2,#0x1d
        0x0800542e:    41d1        .A      RORS     r1,r1,r2
        0x08005430:    4301        .C      ORRS     r1,r1,r0
        0x08005432:    4608        .F      MOV      r0,r1
        0x08005434:    e7e7        ..      B        0x8005406 ; __fpl_return_NaN + 46
    .text
    __decompress
    __decompress0
        0x08005436:    b530        0.      PUSH     {r4,r5,lr}
        0x08005438:    188c        ..      ADDS     r4,r1,r2
        0x0800543a:    7802        .x      LDRB     r2,[r0,#0]
        0x0800543c:    1c40        @.      ADDS     r0,r0,#1
        0x0800543e:    0713        ..      LSLS     r3,r2,#28
        0x08005440:    0f1b        ..      LSRS     r3,r3,#28
        0x08005442:    d101        ..      BNE      0x8005448 ; __decompress + 18
        0x08005444:    7803        .x      LDRB     r3,[r0,#0]
        0x08005446:    1c40        @.      ADDS     r0,r0,#1
        0x08005448:    0912        ..      LSRS     r2,r2,#4
        0x0800544a:    d106        ..      BNE      0x800545a ; __decompress + 36
        0x0800544c:    7802        .x      LDRB     r2,[r0,#0]
        0x0800544e:    1c40        @.      ADDS     r0,r0,#1
        0x08005450:    e003        ..      B        0x800545a ; __decompress + 36
        0x08005452:    7805        .x      LDRB     r5,[r0,#0]
        0x08005454:    1c40        @.      ADDS     r0,r0,#1
        0x08005456:    700d        .p      STRB     r5,[r1,#0]
        0x08005458:    1c49        I.      ADDS     r1,r1,#1
        0x0800545a:    1e5b        [.      SUBS     r3,r3,#1
        0x0800545c:    d1f9        ..      BNE      0x8005452 ; __decompress + 28
        0x0800545e:    e001        ..      B        0x8005464 ; __decompress + 46
        0x08005460:    700b        .p      STRB     r3,[r1,#0]
        0x08005462:    1c49        I.      ADDS     r1,r1,#1
        0x08005464:    1e52        R.      SUBS     r2,r2,#1
        0x08005466:    d1fb        ..      BNE      0x8005460 ; __decompress + 42
        0x08005468:    42a1        .B      CMP      r1,r4
        0x0800546a:    d3e6        ..      BCC      0x800543a ; __decompress + 4
        0x0800546c:    2000        .       MOVS     r0,#0
        0x0800546e:    bd30        0.      POP      {r4,r5,pc}
    $t.8
    cfar_abs_threshold_cfg
        0x08005470:    4901        .I      LDR      r1,[pc,#4] ; [0x8005478] = 0x40010028
        0x08005472:    6008        .`      STR      r0,[r1,#0]
        0x08005474:    4770        pG      BX       lr
        0x08005476:    46c0        .F      MOV      r8,r8
    $d.9
    __arm_cp.4_0
        0x08005478:    40010028    (..@    DCD    1073807400
    $t.10
    cfar_det_bmap_addr_cfg
        0x0800547c:    b510        ..      PUSH     {r4,lr}
        0x0800547e:    2303        .#      MOVS     r3,#3
        0x08005480:    079c        ..      LSLS     r4,r3,#30
        0x08005482:    0380        ..      LSLS     r0,r0,#14
        0x08005484:    1900        ..      ADDS     r0,r0,r4
        0x08005486:    4c07        .L      LDR      r4,[pc,#28] ; [0x80054a4] = 0xffff0000
        0x08005488:    4004        .@      ANDS     r4,r4,r0
        0x0800548a:    0418        ..      LSLS     r0,r3,#16
        0x0800548c:    1809        ..      ADDS     r1,r1,r0
        0x0800548e:    0889        ..      LSRS     r1,r1,#2
        0x08005490:    b289        ..      UXTH     r1,r1
        0x08005492:    1909        ..      ADDS     r1,r1,r4
        0x08005494:    4b04        .K      LDR      r3,[pc,#16] ; [0x80054a8] = 0x4001002c
        0x08005496:    6019        .`      STR      r1,[r3,#0]
        0x08005498:    1810        ..      ADDS     r0,r2,r0
        0x0800549a:    0880        ..      LSRS     r0,r0,#2
        0x0800549c:    b280        ..      UXTH     r0,r0
        0x0800549e:    6058        X`      STR      r0,[r3,#4]
        0x080054a0:    bd10        ..      POP      {r4,pc}
        0x080054a2:    46c0        .F      MOV      r8,r8
    $d.11
    __arm_cp.5_0
        0x080054a4:    ffff0000    ....    DCD    4294901760
    __arm_cp.5_1
        0x080054a8:    4001002c    ,..@    DCD    1073807404
    $t.0
    cfar_enable
        0x080054ac:    492f        /I      LDR      r1,[pc,#188] ; [0x800556c] = 0x40010020
        0x080054ae:    680a        .h      LDR      r2,[r1,#0]
        0x080054b0:    2301        .#      MOVS     r3,#1
        0x080054b2:    439a        .C      BICS     r2,r2,r3
        0x080054b4:    1810        ..      ADDS     r0,r2,r0
        0x080054b6:    6008        .`      STR      r0,[r1,#0]
        0x080054b8:    4770        pG      BX       lr
        0x080054ba:    46c0        .F      MOV      r8,r8
    cfar_irq_callback_set
        0x080054bc:    4910        .I      LDR      r1,[pc,#64] ; [0x8005500] = 0x200011b4
        0x080054be:    6008        .`      STR      r0,[r1,#0]
        0x080054c0:    4770        pG      BX       lr
        0x080054c2:    46c0        .F      MOV      r8,r8
    cfar_irq_enable
        0x080054c4:    1e41        A.      SUBS     r1,r0,#1
        0x080054c6:    4188        .A      SBCS     r0,r0,r1
        0x080054c8:    0140        @.      LSLS     r0,r0,#5
        0x080054ca:    490c        .I      LDR      r1,[pc,#48] ; [0x80054fc] = 0x40010034
        0x080054cc:    680a        .h      LDR      r2,[r1,#0]
        0x080054ce:    2320         #      MOVS     r3,#0x20
        0x080054d0:    439a        .C      BICS     r2,r2,r3
        0x080054d2:    4302        .C      ORRS     r2,r2,r0
        0x080054d4:    600a        .`      STR      r2,[r1,#0]
        0x080054d6:    2001        .       MOVS     r0,#1
        0x080054d8:    0380        ..      LSLS     r0,r0,#14
        0x080054da:    4901        .I      LDR      r1,[pc,#4] ; [0x80054e0] = 0xe000e100
        0x080054dc:    6008        .`      STR      r0,[r1,#0]
        0x080054de:    4770        pG      BX       lr
    $d.3
    __arm_cp.1_1
        0x080054e0:    e000e100    ....    DCD    3758153984
    $t.14
    cfar_isr
        0x080054e4:    b580        ..      PUSH     {r7,lr}
        0x080054e6:    2001        .       MOVS     r0,#1
        0x080054e8:    0340        @.      LSLS     r0,r0,#13
        0x080054ea:    4904        .I      LDR      r1,[pc,#16] ; [0x80054fc] = 0x40010034
        0x080054ec:    680a        .h      LDR      r2,[r1,#0]
        0x080054ee:    4302        .C      ORRS     r2,r2,r0
        0x080054f0:    600a        .`      STR      r2,[r1,#0]
        0x080054f2:    4803        .H      LDR      r0,[pc,#12] ; [0x8005500] = 0x200011b4
        0x080054f4:    6800        .h      LDR      r0,[r0,#0]
        0x080054f6:    4780        .G      BLX      r0
        0x080054f8:    bd80        ..      POP      {r7,pc}
        0x080054fa:    46c0        .F      MOV      r8,r8
    $d.15
    __arm_cp.7_0
        0x080054fc:    40010034    4..@    DCD    1073807412
    __arm_cp.7_1
        0x08005500:    200011b4    ...     DCD    536875444
    $t.6
    cfar_range_dim_cfg
        0x08005504:    b5b0        ..      PUSH     {r4,r5,r7,lr}
        0x08005506:    2207        ."      MOVS     r2,#7
        0x08005508:    4002        .@      ANDS     r2,r2,r0
        0x0800550a:    21ff        .!      MOVS     r1,#0xff
        0x0800550c:    01cb        ..      LSLS     r3,r1,#7
        0x0800550e:    0a44        D.      LSRS     r4,r0,#9
        0x08005510:    401c        .@      ANDS     r4,r4,r3
        0x08005512:    18a2        ..      ADDS     r2,r4,r2
        0x08005514:    0943        C.      LSRS     r3,r0,#5
        0x08005516:    2478        x$      MOVS     r4,#0x78
        0x08005518:    4023        #@      ANDS     r3,r3,r4
        0x0800551a:    3378        x3      ADDS     r3,r3,#0x78
        0x0800551c:    4023        #@      ANDS     r3,r3,r4
        0x0800551e:    18d2        ..      ADDS     r2,r2,r3
        0x08005520:    4b12        .K      LDR      r3,[pc,#72] ; [0x800556c] = 0x40010020
        0x08005522:    685c        \h      LDR      r4,[r3,#4]
        0x08005524:    4d05        .M      LDR      r5,[pc,#20] ; [0x800553c] = 0xffff8000
        0x08005526:    4025        %@      ANDS     r5,r5,r4
        0x08005528:    1952        R.      ADDS     r2,r2,r5
        0x0800552a:    605a        Z`      STR      r2,[r3,#4]
        0x0800552c:    0409        ..      LSLS     r1,r1,#16
        0x0800552e:    681a        .h      LDR      r2,[r3,#0]
        0x08005530:    438a        .C      BICS     r2,r2,r1
        0x08005532:    0e00        ..      LSRS     r0,r0,#24
        0x08005534:    0400        ..      LSLS     r0,r0,#16
        0x08005536:    1810        ..      ADDS     r0,r2,r0
        0x08005538:    6018        .`      STR      r0,[r3,#0]
        0x0800553a:    bdb0        ..      POP      {r4,r5,r7,pc}
    $d.7
    __arm_cp.3_1
        0x0800553c:    ffff8000    ....    DCD    4294934528
    $t.4
    cfar_vel_dim_cfg
        0x08005540:    0981        ..      LSRS     r1,r0,#6
        0x08005542:    220c        ."      MOVS     r2,#0xc
        0x08005544:    400a        .@      ANDS     r2,r2,r1
        0x08005546:    07c1        ..      LSLS     r1,r0,#31
        0x08005548:    0f89        ..      LSRS     r1,r1,#30
        0x0800554a:    1889        ..      ADDS     r1,r1,r2
        0x0800554c:    0e02        ..      LSRS     r2,r0,#24
        0x0800554e:    0212        ..      LSLS     r2,r2,#8
        0x08005550:    1889        ..      ADDS     r1,r1,r2
        0x08005552:    0b00        ..      LSRS     r0,r0,#12
        0x08005554:    22f0        ."      MOVS     r2,#0xf0
        0x08005556:    4002        .@      ANDS     r2,r2,r0
        0x08005558:    32f0        .2      ADDS     r2,r2,#0xf0
        0x0800555a:    b2d0        ..      UXTB     r0,r2
        0x0800555c:    1808        ..      ADDS     r0,r1,r0
        0x0800555e:    4903        .I      LDR      r1,[pc,#12] ; [0x800556c] = 0x40010020
        0x08005560:    680a        .h      LDR      r2,[r1,#0]
        0x08005562:    4b03        .K      LDR      r3,[pc,#12] ; [0x8005570] = 0xffff0001
        0x08005564:    4013        .@      ANDS     r3,r3,r2
        0x08005566:    18c0        ..      ADDS     r0,r0,r3
        0x08005568:    6008        .`      STR      r0,[r1,#0]
        0x0800556a:    4770        pG      BX       lr
    $d.5
    __arm_cp.2_0
        0x0800556c:    40010020     ..@    DCD    1073807392
    __arm_cp.2_1
        0x08005570:    ffff0001    ....    DCD    4294901761
    $t.20
    dma_clear_block_done_flag
        0x08005574:    0049        I.      LSLS     r1,r1,#1
        0x08005576:    4adc        .J      LDR      r2,[pc,#880] ; [0x80058e8] = 0x8007408
        0x08005578:    5a51        QZ      LDRH     r1,[r2,r1]
        0x0800557a:    1808        ..      ADDS     r0,r1,r0
        0x0800557c:    69c1        .i      LDR      r1,[r0,#0x1c]
        0x0800557e:    6982        .i      LDR      r2,[r0,#0x18]
        0x08005580:    6182        .a      STR      r2,[r0,#0x18]
        0x08005582:    2201        ."      MOVS     r2,#1
        0x08005584:    0312        ..      LSLS     r2,r2,#12
        0x08005586:    4391        .C      BICS     r1,r1,r2
        0x08005588:    61c1        .a      STR      r1,[r0,#0x1c]
        0x0800558a:    4770        pG      BX       lr
    dma_clear_it_block
        0x0800558c:    4aa8        .J      LDR      r2,[pc,#672] ; [0x8005830] = 0x8007404
        0x0800558e:    5c51        Q\      LDRB     r1,[r2,r1]
        0x08005590:    220d        ."      MOVS     r2,#0xd
        0x08005592:    0192        ..      LSLS     r2,r2,#6
        0x08005594:    5081        .P      STR      r1,[r0,r2]
        0x08005596:    1880        ..      ADDS     r0,r0,r2
        0x08005598:    2100        .!      MOVS     r1,#0
        0x0800559a:    6041        A`      STR      r1,[r0,#4]
        0x0800559c:    4770        pG      BX       lr
        0x0800559e:    46c0        .F      MOV      r8,r8
    dma_clear_it_dst_tran
        0x080055a0:    4aa3        .J      LDR      r2,[pc,#652] ; [0x8005830] = 0x8007404
        0x080055a2:    5c51        Q\      LDRB     r1,[r2,r1]
        0x080055a4:    2235        5"      MOVS     r2,#0x35
        0x080055a6:    0112        ..      LSLS     r2,r2,#4
        0x080055a8:    5081        .P      STR      r1,[r0,r2]
        0x080055aa:    1880        ..      ADDS     r0,r0,r2
        0x080055ac:    2100        .!      MOVS     r1,#0
        0x080055ae:    6041        A`      STR      r1,[r0,#4]
        0x080055b0:    4770        pG      BX       lr
        0x080055b2:    46c0        .F      MOV      r8,r8
    dma_clear_it_error
        0x080055b4:    4a9e        .J      LDR      r2,[pc,#632] ; [0x8005830] = 0x8007404
        0x080055b6:    5c51        Q\      LDRB     r1,[r2,r1]
        0x080055b8:    226b        k"      MOVS     r2,#0x6b
        0x080055ba:    00d2        ..      LSLS     r2,r2,#3
        0x080055bc:    5081        .P      STR      r1,[r0,r2]
        0x080055be:    1880        ..      ADDS     r0,r0,r2
        0x080055c0:    2100        .!      MOVS     r1,#0
        0x080055c2:    6041        A`      STR      r1,[r0,#4]
        0x080055c4:    4770        pG      BX       lr
        0x080055c6:    46c0        .F      MOV      r8,r8
    dma_clear_it_src_tran
        0x080055c8:    4a99        .J      LDR      r2,[pc,#612] ; [0x8005830] = 0x8007404
        0x080055ca:    5c51        Q\      LDRB     r1,[r2,r1]
        0x080055cc:    2269        i"      MOVS     r2,#0x69
        0x080055ce:    00d2        ..      LSLS     r2,r2,#3
        0x080055d0:    5081        .P      STR      r1,[r0,r2]
        0x080055d2:    1880        ..      ADDS     r0,r0,r2
        0x080055d4:    2100        .!      MOVS     r1,#0
        0x080055d6:    6041        A`      STR      r1,[r0,#4]
        0x080055d8:    4770        pG      BX       lr
        0x080055da:    46c0        .F      MOV      r8,r8
    dma_clear_it_tfr
        0x080055dc:    4a94        .J      LDR      r2,[pc,#592] ; [0x8005830] = 0x8007404
        0x080055de:    5c51        Q\      LDRB     r1,[r2,r1]
        0x080055e0:    2267        g"      MOVS     r2,#0x67
        0x080055e2:    00d2        ..      LSLS     r2,r2,#3
        0x080055e4:    5081        .P      STR      r1,[r0,r2]
        0x080055e6:    1880        ..      ADDS     r0,r0,r2
        0x080055e8:    2100        .!      MOVS     r1,#0
        0x080055ea:    6041        A`      STR      r1,[r0,#4]
        0x080055ec:    4770        pG      BX       lr
        0x080055ee:    46c0        .F      MOV      r8,r8
    dma_disable_channel
        0x080055f0:    4a8f        .J      LDR      r2,[pc,#572] ; [0x8005830] = 0x8007404
        0x080055f2:    5c51        Q\      LDRB     r1,[r2,r1]
        0x080055f4:    0209        ..      LSLS     r1,r1,#8
        0x080055f6:    221d        ."      MOVS     r2,#0x1d
        0x080055f8:    0152        R.      LSLS     r2,r2,#5
        0x080055fa:    5081        .P      STR      r1,[r0,r2]
        0x080055fc:    1880        ..      ADDS     r0,r0,r2
        0x080055fe:    2100        .!      MOVS     r1,#0
        0x08005600:    6041        A`      STR      r1,[r0,#4]
        0x08005602:    4770        pG      BX       lr
    dma_disable_it_block
        0x08005604:    4a8a        .J      LDR      r2,[pc,#552] ; [0x8005830] = 0x8007404
        0x08005606:    5c51        Q\      LDRB     r1,[r2,r1]
        0x08005608:    0209        ..      LSLS     r1,r1,#8
        0x0800560a:    2263        c"      MOVS     r2,#0x63
        0x0800560c:    00d2        ..      LSLS     r2,r2,#3
        0x0800560e:    5081        .P      STR      r1,[r0,r2]
        0x08005610:    1880        ..      ADDS     r0,r0,r2
        0x08005612:    2100        .!      MOVS     r1,#0
        0x08005614:    6041        A`      STR      r1,[r0,#4]
        0x08005616:    4770        pG      BX       lr
    dma_disable_it_dst_tran
        0x08005618:    4a85        .J      LDR      r2,[pc,#532] ; [0x8005830] = 0x8007404
        0x0800561a:    5c51        Q\      LDRB     r1,[r2,r1]
        0x0800561c:    0209        ..      LSLS     r1,r1,#8
        0x0800561e:    2265        e"      MOVS     r2,#0x65
        0x08005620:    00d2        ..      LSLS     r2,r2,#3
        0x08005622:    5081        .P      STR      r1,[r0,r2]
        0x08005624:    1880        ..      ADDS     r0,r0,r2
        0x08005626:    2100        .!      MOVS     r1,#0
        0x08005628:    6041        A`      STR      r1,[r0,#4]
        0x0800562a:    4770        pG      BX       lr
    dma_disable_it_error
        0x0800562c:    4a80        .J      LDR      r2,[pc,#512] ; [0x8005830] = 0x8007404
        0x0800562e:    5c51        Q\      LDRB     r1,[r2,r1]
        0x08005630:    0209        ..      LSLS     r1,r1,#8
        0x08005632:    2233        3"      MOVS     r2,#0x33
        0x08005634:    0112        ..      LSLS     r2,r2,#4
        0x08005636:    5081        .P      STR      r1,[r0,r2]
        0x08005638:    1880        ..      ADDS     r0,r0,r2
        0x0800563a:    2100        .!      MOVS     r1,#0
        0x0800563c:    6041        A`      STR      r1,[r0,#4]
        0x0800563e:    4770        pG      BX       lr
    dma_disable_it_src_tran
        0x08005640:    4a7b        {J      LDR      r2,[pc,#492] ; [0x8005830] = 0x8007404
        0x08005642:    5c51        Q\      LDRB     r1,[r2,r1]
        0x08005644:    0209        ..      LSLS     r1,r1,#8
        0x08005646:    2219        ."      MOVS     r2,#0x19
        0x08005648:    0152        R.      LSLS     r2,r2,#5
        0x0800564a:    5081        .P      STR      r1,[r0,r2]
        0x0800564c:    1880        ..      ADDS     r0,r0,r2
        0x0800564e:    2100        .!      MOVS     r1,#0
        0x08005650:    6041        A`      STR      r1,[r0,#4]
        0x08005652:    4770        pG      BX       lr
    dma_disable_it_tfr
        0x08005654:    4a76        vJ      LDR      r2,[pc,#472] ; [0x8005830] = 0x8007404
        0x08005656:    5c51        Q\      LDRB     r1,[r2,r1]
        0x08005658:    0209        ..      LSLS     r1,r1,#8
        0x0800565a:    2231        1"      MOVS     r2,#0x31
        0x0800565c:    0112        ..      LSLS     r2,r2,#4
        0x0800565e:    5081        .P      STR      r1,[r0,r2]
        0x08005660:    1880        ..      ADDS     r0,r0,r2
        0x08005662:    2100        .!      MOVS     r1,#0
        0x08005664:    6041        A`      STR      r1,[r0,#4]
        0x08005666:    4770        pG      BX       lr
    dma_enable_channel
        0x08005668:    4a71        qJ      LDR      r2,[pc,#452] ; [0x8005830] = 0x8007404
        0x0800566a:    5c51        Q\      LDRB     r1,[r2,r1]
        0x0800566c:    020a        ..      LSLS     r2,r1,#8
        0x0800566e:    1851        Q.      ADDS     r1,r2,r1
        0x08005670:    221d        ."      MOVS     r2,#0x1d
        0x08005672:    0152        R.      LSLS     r2,r2,#5
        0x08005674:    5081        .P      STR      r1,[r0,r2]
        0x08005676:    1880        ..      ADDS     r0,r0,r2
        0x08005678:    2100        .!      MOVS     r1,#0
        0x0800567a:    6041        A`      STR      r1,[r0,#4]
        0x0800567c:    4770        pG      BX       lr
        0x0800567e:    46c0        .F      MOV      r8,r8
    dma_enable_global
        0x08005680:    b5b0        ..      PUSH     {r4,r5,r7,lr}
        0x08005682:    2173        s!      MOVS     r1,#0x73
        0x08005684:    00c9        ..      LSLS     r1,r1,#3
        0x08005686:    1842        B.      ADDS     r2,r0,r1
        0x08005688:    6853        Sh      LDR      r3,[r2,#4]
        0x0800568a:    5844        DX      LDR      r4,[r0,r1]
        0x0800568c:    2501        .%      MOVS     r5,#1
        0x0800568e:    4325        %C      ORRS     r5,r5,r4
        0x08005690:    5045        EP      STR      r5,[r0,r1]
        0x08005692:    6053        S`      STR      r3,[r2,#4]
        0x08005694:    bdb0        ..      POP      {r4,r5,r7,pc}
        0x08005696:    0000        ..      MOVS     r0,r0
    dma_enable_it_block
        0x08005698:    4a65        eJ      LDR      r2,[pc,#404] ; [0x8005830] = 0x8007404
        0x0800569a:    5c51        Q\      LDRB     r1,[r2,r1]
        0x0800569c:    020a        ..      LSLS     r2,r1,#8
        0x0800569e:    1851        Q.      ADDS     r1,r2,r1
        0x080056a0:    2263        c"      MOVS     r2,#0x63
        0x080056a2:    00d2        ..      LSLS     r2,r2,#3
        0x080056a4:    5081        .P      STR      r1,[r0,r2]
        0x080056a6:    1880        ..      ADDS     r0,r0,r2
        0x080056a8:    2100        .!      MOVS     r1,#0
        0x080056aa:    6041        A`      STR      r1,[r0,#4]
        0x080056ac:    4770        pG      BX       lr
        0x080056ae:    46c0        .F      MOV      r8,r8
    dma_enable_it_dst_tran
        0x080056b0:    4a5f        _J      LDR      r2,[pc,#380] ; [0x8005830] = 0x8007404
        0x080056b2:    5c51        Q\      LDRB     r1,[r2,r1]
        0x080056b4:    020a        ..      LSLS     r2,r1,#8
        0x080056b6:    1851        Q.      ADDS     r1,r2,r1
        0x080056b8:    2265        e"      MOVS     r2,#0x65
        0x080056ba:    00d2        ..      LSLS     r2,r2,#3
        0x080056bc:    5081        .P      STR      r1,[r0,r2]
        0x080056be:    1880        ..      ADDS     r0,r0,r2
        0x080056c0:    2100        .!      MOVS     r1,#0
        0x080056c2:    6041        A`      STR      r1,[r0,#4]
        0x080056c4:    4770        pG      BX       lr
        0x080056c6:    46c0        .F      MOV      r8,r8
    dma_enable_it_error
        0x080056c8:    4a59        YJ      LDR      r2,[pc,#356] ; [0x8005830] = 0x8007404
        0x080056ca:    5c51        Q\      LDRB     r1,[r2,r1]
        0x080056cc:    020a        ..      LSLS     r2,r1,#8
        0x080056ce:    1851        Q.      ADDS     r1,r2,r1
        0x080056d0:    2233        3"      MOVS     r2,#0x33
        0x080056d2:    0112        ..      LSLS     r2,r2,#4
        0x080056d4:    5081        .P      STR      r1,[r0,r2]
        0x080056d6:    1880        ..      ADDS     r0,r0,r2
        0x080056d8:    2100        .!      MOVS     r1,#0
        0x080056da:    6041        A`      STR      r1,[r0,#4]
        0x080056dc:    4770        pG      BX       lr
        0x080056de:    46c0        .F      MOV      r8,r8
    dma_enable_it_src_tran
        0x080056e0:    4a53        SJ      LDR      r2,[pc,#332] ; [0x8005830] = 0x8007404
        0x080056e2:    5c51        Q\      LDRB     r1,[r2,r1]
        0x080056e4:    020a        ..      LSLS     r2,r1,#8
        0x080056e6:    1851        Q.      ADDS     r1,r2,r1
        0x080056e8:    2219        ."      MOVS     r2,#0x19
        0x080056ea:    0152        R.      LSLS     r2,r2,#5
        0x080056ec:    5081        .P      STR      r1,[r0,r2]
        0x080056ee:    1880        ..      ADDS     r0,r0,r2
        0x080056f0:    2100        .!      MOVS     r1,#0
        0x080056f2:    6041        A`      STR      r1,[r0,#4]
        0x080056f4:    4770        pG      BX       lr
        0x080056f6:    46c0        .F      MOV      r8,r8
    dma_enable_it_tfr
        0x080056f8:    4a4d        MJ      LDR      r2,[pc,#308] ; [0x8005830] = 0x8007404
        0x080056fa:    5c51        Q\      LDRB     r1,[r2,r1]
        0x080056fc:    020a        ..      LSLS     r2,r1,#8
        0x080056fe:    1851        Q.      ADDS     r1,r2,r1
        0x08005700:    2231        1"      MOVS     r2,#0x31
        0x08005702:    0112        ..      LSLS     r2,r2,#4
        0x08005704:    5081        .P      STR      r1,[r0,r2]
        0x08005706:    1880        ..      ADDS     r0,r0,r2
        0x08005708:    2100        .!      MOVS     r1,#0
        0x0800570a:    6041        A`      STR      r1,[r0,#4]
        0x0800570c:    4770        pG      BX       lr
        0x0800570e:    46c0        .F      MOV      r8,r8
    dma_get_raw_tfr
        0x08005710:    220b        ."      MOVS     r2,#0xb
        0x08005712:    0192        ..      LSLS     r2,r2,#6
        0x08005714:    1883        ..      ADDS     r3,r0,r2
        0x08005716:    685b        [h      LDR      r3,[r3,#4]
        0x08005718:    4b45        EK      LDR      r3,[pc,#276] ; [0x8005830] = 0x8007404
        0x0800571a:    5c59        Y\      LDRB     r1,[r3,r1]
        0x0800571c:    5880        .X      LDR      r0,[r0,r2]
        0x0800571e:    4008        .@      ANDS     r0,r0,r1
        0x08005720:    1e41        A.      SUBS     r1,r0,#1
        0x08005722:    4188        .A      SBCS     r0,r0,r1
        0x08005724:    4770        pG      BX       lr
        0x08005726:    46c0        .F      MOV      r8,r8
    dma_get_status_block
        0x08005728:    222f        /"      MOVS     r2,#0x2f
        0x0800572a:    0112        ..      LSLS     r2,r2,#4
        0x0800572c:    1883        ..      ADDS     r3,r0,r2
        0x0800572e:    685b        [h      LDR      r3,[r3,#4]
        0x08005730:    4b3f        ?K      LDR      r3,[pc,#252] ; [0x8005830] = 0x8007404
        0x08005732:    5c59        Y\      LDRB     r1,[r3,r1]
        0x08005734:    5880        .X      LDR      r0,[r0,r2]
        0x08005736:    4008        .@      ANDS     r0,r0,r1
        0x08005738:    1e41        A.      SUBS     r1,r0,#1
        0x0800573a:    4188        .A      SBCS     r0,r0,r1
        0x0800573c:    4770        pG      BX       lr
        0x0800573e:    46c0        .F      MOV      r8,r8
    dma_get_status_dst_tran
        0x08005740:    2203        ."      MOVS     r2,#3
        0x08005742:    0212        ..      LSLS     r2,r2,#8
        0x08005744:    1883        ..      ADDS     r3,r0,r2
        0x08005746:    685b        [h      LDR      r3,[r3,#4]
        0x08005748:    4b39        9K      LDR      r3,[pc,#228] ; [0x8005830] = 0x8007404
        0x0800574a:    5c59        Y\      LDRB     r1,[r3,r1]
        0x0800574c:    5880        .X      LDR      r0,[r0,r2]
        0x0800574e:    4008        .@      ANDS     r0,r0,r1
        0x08005750:    1e41        A.      SUBS     r1,r0,#1
        0x08005752:    4188        .A      SBCS     r0,r0,r1
        0x08005754:    4770        pG      BX       lr
        0x08005756:    46c0        .F      MOV      r8,r8
    dma_get_status_error
        0x08005758:    2261        a"      MOVS     r2,#0x61
        0x0800575a:    00d2        ..      LSLS     r2,r2,#3
        0x0800575c:    1883        ..      ADDS     r3,r0,r2
        0x0800575e:    685b        [h      LDR      r3,[r3,#4]
        0x08005760:    4b33        3K      LDR      r3,[pc,#204] ; [0x8005830] = 0x8007404
        0x08005762:    5c59        Y\      LDRB     r1,[r3,r1]
        0x08005764:    5880        .X      LDR      r0,[r0,r2]
        0x08005766:    4008        .@      ANDS     r0,r0,r1
        0x08005768:    1e41        A.      SUBS     r1,r0,#1
        0x0800576a:    4188        .A      SBCS     r0,r0,r1
        0x0800576c:    4770        pG      BX       lr
        0x0800576e:    46c0        .F      MOV      r8,r8
    dma_get_status_src_tran
        0x08005770:    225f        _"      MOVS     r2,#0x5f
        0x08005772:    00d2        ..      LSLS     r2,r2,#3
        0x08005774:    1883        ..      ADDS     r3,r0,r2
        0x08005776:    685b        [h      LDR      r3,[r3,#4]
        0x08005778:    4b2d        -K      LDR      r3,[pc,#180] ; [0x8005830] = 0x8007404
        0x0800577a:    5c59        Y\      LDRB     r1,[r3,r1]
        0x0800577c:    5880        .X      LDR      r0,[r0,r2]
        0x0800577e:    4008        .@      ANDS     r0,r0,r1
        0x08005780:    1e41        A.      SUBS     r1,r0,#1
        0x08005782:    4188        .A      SBCS     r0,r0,r1
        0x08005784:    4770        pG      BX       lr
        0x08005786:    46c0        .F      MOV      r8,r8
    dma_get_status_tfr
        0x08005788:    225d        ]"      MOVS     r2,#0x5d
        0x0800578a:    00d2        ..      LSLS     r2,r2,#3
        0x0800578c:    1883        ..      ADDS     r3,r0,r2
        0x0800578e:    685b        [h      LDR      r3,[r3,#4]
        0x08005790:    4b27        'K      LDR      r3,[pc,#156] ; [0x8005830] = 0x8007404
        0x08005792:    5c59        Y\      LDRB     r1,[r3,r1]
        0x08005794:    5880        .X      LDR      r0,[r0,r2]
        0x08005796:    4008        .@      ANDS     r0,r0,r1
        0x08005798:    1e41        A.      SUBS     r1,r0,#1
        0x0800579a:    4188        .A      SBCS     r0,r0,r1
        0x0800579c:    4770        pG      BX       lr
        0x0800579e:    46c0        .F      MOV      r8,r8
    dma_is_active_channel
        0x080057a0:    221d        ."      MOVS     r2,#0x1d
        0x080057a2:    0152        R.      LSLS     r2,r2,#5
        0x080057a4:    1883        ..      ADDS     r3,r0,r2
        0x080057a6:    685b        [h      LDR      r3,[r3,#4]
        0x080057a8:    4b21        !K      LDR      r3,[pc,#132] ; [0x8005830] = 0x8007404
        0x080057aa:    5c59        Y\      LDRB     r1,[r3,r1]
        0x080057ac:    5880        .X      LDR      r0,[r0,r2]
        0x080057ae:    4008        .@      ANDS     r0,r0,r1
        0x080057b0:    1e41        A.      SUBS     r1,r0,#1
        0x080057b2:    4188        .A      SBCS     r0,r0,r1
        0x080057b4:    4770        pG      BX       lr
        0x080057b6:    46c0        .F      MOV      r8,r8
    dma_is_enabled_it_block
        0x080057b8:    2263        c"      MOVS     r2,#0x63
        0x080057ba:    00d2        ..      LSLS     r2,r2,#3
        0x080057bc:    1883        ..      ADDS     r3,r0,r2
        0x080057be:    685b        [h      LDR      r3,[r3,#4]
        0x080057c0:    4b1b        .K      LDR      r3,[pc,#108] ; [0x8005830] = 0x8007404
        0x080057c2:    5c59        Y\      LDRB     r1,[r3,r1]
        0x080057c4:    5880        .X      LDR      r0,[r0,r2]
        0x080057c6:    4008        .@      ANDS     r0,r0,r1
        0x080057c8:    1e41        A.      SUBS     r1,r0,#1
        0x080057ca:    4188        .A      SBCS     r0,r0,r1
        0x080057cc:    4770        pG      BX       lr
        0x080057ce:    46c0        .F      MOV      r8,r8
    dma_is_enabled_it_dst_tran
        0x080057d0:    2265        e"      MOVS     r2,#0x65
        0x080057d2:    00d2        ..      LSLS     r2,r2,#3
        0x080057d4:    1883        ..      ADDS     r3,r0,r2
        0x080057d6:    685b        [h      LDR      r3,[r3,#4]
        0x080057d8:    4b15        .K      LDR      r3,[pc,#84] ; [0x8005830] = 0x8007404
        0x080057da:    5c59        Y\      LDRB     r1,[r3,r1]
        0x080057dc:    5880        .X      LDR      r0,[r0,r2]
        0x080057de:    4008        .@      ANDS     r0,r0,r1
        0x080057e0:    1e41        A.      SUBS     r1,r0,#1
        0x080057e2:    4188        .A      SBCS     r0,r0,r1
        0x080057e4:    4770        pG      BX       lr
        0x080057e6:    46c0        .F      MOV      r8,r8
    dma_is_enabled_it_error
        0x080057e8:    2233        3"      MOVS     r2,#0x33
        0x080057ea:    0112        ..      LSLS     r2,r2,#4
        0x080057ec:    1883        ..      ADDS     r3,r0,r2
        0x080057ee:    685b        [h      LDR      r3,[r3,#4]
        0x080057f0:    4b0f        .K      LDR      r3,[pc,#60] ; [0x8005830] = 0x8007404
        0x080057f2:    5c59        Y\      LDRB     r1,[r3,r1]
        0x080057f4:    5880        .X      LDR      r0,[r0,r2]
        0x080057f6:    4008        .@      ANDS     r0,r0,r1
        0x080057f8:    1e41        A.      SUBS     r1,r0,#1
        0x080057fa:    4188        .A      SBCS     r0,r0,r1
        0x080057fc:    4770        pG      BX       lr
        0x080057fe:    46c0        .F      MOV      r8,r8
    dma_is_enabled_it_src_tran
        0x08005800:    2219        ."      MOVS     r2,#0x19
        0x08005802:    0152        R.      LSLS     r2,r2,#5
        0x08005804:    1883        ..      ADDS     r3,r0,r2
        0x08005806:    685b        [h      LDR      r3,[r3,#4]
        0x08005808:    4b09        .K      LDR      r3,[pc,#36] ; [0x8005830] = 0x8007404
        0x0800580a:    5c59        Y\      LDRB     r1,[r3,r1]
        0x0800580c:    5880        .X      LDR      r0,[r0,r2]
        0x0800580e:    4008        .@      ANDS     r0,r0,r1
        0x08005810:    1e41        A.      SUBS     r1,r0,#1
        0x08005812:    4188        .A      SBCS     r0,r0,r1
        0x08005814:    4770        pG      BX       lr
        0x08005816:    46c0        .F      MOV      r8,r8
    dma_is_enabled_it_tfr
        0x08005818:    2231        1"      MOVS     r2,#0x31
        0x0800581a:    0112        ..      LSLS     r2,r2,#4
        0x0800581c:    1883        ..      ADDS     r3,r0,r2
        0x0800581e:    685b        [h      LDR      r3,[r3,#4]
        0x08005820:    4b03        .K      LDR      r3,[pc,#12] ; [0x8005830] = 0x8007404
        0x08005822:    5c59        Y\      LDRB     r1,[r3,r1]
        0x08005824:    5880        .X      LDR      r0,[r0,r2]
        0x08005826:    4008        .@      ANDS     r0,r0,r1
        0x08005828:    1e41        A.      SUBS     r1,r0,#1
        0x0800582a:    4188        .A      SBCS     r0,r0,r1
        0x0800582c:    4770        pG      BX       lr
        0x0800582e:    46c0        .F      MOV      r8,r8
    $d.199
    __arm_cp.99_0
        0x08005830:    08007404    .t..    DCD    134247428
    $t.24
    dma_set_block_transfer_size
        0x08005834:    0049        I.      LSLS     r1,r1,#1
        0x08005836:    4bdd        .K      LDR      r3,[pc,#884] ; [0x8005bac] = 0x8007408
        0x08005838:    5a59        YZ      LDRH     r1,[r3,r1]
        0x0800583a:    1808        ..      ADDS     r0,r1,r0
        0x0800583c:    69c1        .i      LDR      r1,[r0,#0x1c]
        0x0800583e:    6983        .i      LDR      r3,[r0,#0x18]
        0x08005840:    6183        .a      STR      r3,[r0,#0x18]
        0x08005842:    4b03        .K      LDR      r3,[pc,#12] ; [0x8005850] = 0xfff
        0x08005844:    4013        .@      ANDS     r3,r3,r2
        0x08005846:    4a03        .J      LDR      r2,[pc,#12] ; [0x8005854] = 0xfffff000
        0x08005848:    400a        .@      ANDS     r2,r2,r1
        0x0800584a:    18d1        ..      ADDS     r1,r2,r3
        0x0800584c:    61c1        .a      STR      r1,[r0,#0x1c]
        0x0800584e:    4770        pG      BX       lr
    $d.25
    __arm_cp.12_1
        0x08005850:    00000fff    ....    DCD    4095
    __arm_cp.12_2
        0x08005854:    fffff000    ....    DCD    4294963200
    $t.170
    dma_set_channel_priority
        0x08005858:    0049        I.      LSLS     r1,r1,#1
        0x0800585a:    4bdc        .K      LDR      r3,[pc,#880] ; [0x8005bcc] = 0x8007408
        0x0800585c:    5a59        YZ      LDRH     r1,[r3,r1]
        0x0800585e:    1808        ..      ADDS     r0,r1,r0
        0x08005860:    6c01        .l      LDR      r1,[r0,#0x40]
        0x08005862:    6c43        Cl      LDR      r3,[r0,#0x44]
        0x08005864:    6443        Cd      STR      r3,[r0,#0x44]
        0x08005866:    23e0        .#      MOVS     r3,#0xe0
        0x08005868:    4399        .C      BICS     r1,r1,r3
        0x0800586a:    0752        R.      LSLS     r2,r2,#29
        0x0800586c:    0e12        ..      LSRS     r2,r2,#24
        0x0800586e:    1889        ..      ADDS     r1,r1,r2
        0x08005870:    6401        .d      STR      r1,[r0,#0x40]
        0x08005872:    4770        pG      BX       lr
    dma_set_channel_suspend
        0x08005874:    0049        I.      LSLS     r1,r1,#1
        0x08005876:    4bde        .K      LDR      r3,[pc,#888] ; [0x8005bf0] = 0x8007408
        0x08005878:    5a59        YZ      LDRH     r1,[r3,r1]
        0x0800587a:    1808        ..      ADDS     r0,r1,r0
        0x0800587c:    6c01        .l      LDR      r1,[r0,#0x40]
        0x0800587e:    6c43        Cl      LDR      r3,[r0,#0x44]
        0x08005880:    6443        Cd      STR      r3,[r0,#0x44]
        0x08005882:    2301        .#      MOVS     r3,#1
        0x08005884:    021b        ..      LSLS     r3,r3,#8
        0x08005886:    4399        .C      BICS     r1,r1,r3
        0x08005888:    07d2        ..      LSLS     r2,r2,#31
        0x0800588a:    0dd2        ..      LSRS     r2,r2,#23
        0x0800588c:    1889        ..      ADDS     r1,r1,r2
        0x0800588e:    6401        .d      STR      r1,[r0,#0x40]
        0x08005890:    4770        pG      BX       lr
        0x08005892:    46c0        .F      MOV      r8,r8
    dma_set_dst_addr
        0x08005894:    0049        I.      LSLS     r1,r1,#1
        0x08005896:    4bde        .K      LDR      r3,[pc,#888] ; [0x8005c10] = 0x8007408
        0x08005898:    5a59        YZ      LDRH     r1,[r3,r1]
        0x0800589a:    1808        ..      ADDS     r0,r1,r0
        0x0800589c:    6881        .h      LDR      r1,[r0,#8]
        0x0800589e:    68c1        .h      LDR      r1,[r0,#0xc]
        0x080058a0:    60c1        .`      STR      r1,[r0,#0xc]
        0x080058a2:    6082        .`      STR      r2,[r0,#8]
        0x080058a4:    4770        pG      BX       lr
        0x080058a6:    46c0        .F      MOV      r8,r8
    dma_set_dst_addr_inc
        0x080058a8:    0049        I.      LSLS     r1,r1,#1
        0x080058aa:    4bd9        .K      LDR      r3,[pc,#868] ; [0x8005c10] = 0x8007408
        0x080058ac:    5a59        YZ      LDRH     r1,[r3,r1]
        0x080058ae:    1808        ..      ADDS     r0,r1,r0
        0x080058b0:    6981        .i      LDR      r1,[r0,#0x18]
        0x080058b2:    69c3        .i      LDR      r3,[r0,#0x1c]
        0x080058b4:    61c3        .a      STR      r3,[r0,#0x1c]
        0x080058b6:    2303        .#      MOVS     r3,#3
        0x080058b8:    01db        ..      LSLS     r3,r3,#7
        0x080058ba:    4399        .C      BICS     r1,r1,r3
        0x080058bc:    0792        ..      LSLS     r2,r2,#30
        0x080058be:    0dd2        ..      LSRS     r2,r2,#23
        0x080058c0:    1889        ..      ADDS     r1,r1,r2
        0x080058c2:    6181        .a      STR      r1,[r0,#0x18]
        0x080058c4:    4770        pG      BX       lr
        0x080058c6:    46c0        .F      MOV      r8,r8
    dma_set_dst_burst_length
        0x080058c8:    0049        I.      LSLS     r1,r1,#1
        0x080058ca:    4bdc        .K      LDR      r3,[pc,#880] ; [0x8005c3c] = 0x8007408
        0x080058cc:    5a59        YZ      LDRH     r1,[r3,r1]
        0x080058ce:    1808        ..      ADDS     r0,r1,r0
        0x080058d0:    6981        .i      LDR      r1,[r0,#0x18]
        0x080058d2:    69c3        .i      LDR      r3,[r0,#0x1c]
        0x080058d4:    61c3        .a      STR      r3,[r0,#0x1c]
        0x080058d6:    2307        .#      MOVS     r3,#7
        0x080058d8:    02db        ..      LSLS     r3,r3,#11
        0x080058da:    4399        .C      BICS     r1,r1,r3
        0x080058dc:    0752        R.      LSLS     r2,r2,#29
        0x080058de:    0c92        ..      LSRS     r2,r2,#18
        0x080058e0:    1889        ..      ADDS     r1,r1,r2
        0x080058e2:    6181        .a      STR      r1,[r0,#0x18]
        0x080058e4:    4770        pG      BX       lr
        0x080058e6:    46c0        .F      MOV      r8,r8
    $d.37
    __arm_cp.18_0
        0x080058e8:    08007408    .t..    DCD    134247432
    $t.116
    dma_set_dst_handshake_if
        0x080058ec:    0049        I.      LSLS     r1,r1,#1
        0x080058ee:    4bdc        .K      LDR      r3,[pc,#880] ; [0x8005c60] = 0x8007408
        0x080058f0:    5a59        YZ      LDRH     r1,[r3,r1]
        0x080058f2:    1808        ..      ADDS     r0,r1,r0
        0x080058f4:    6c41        Al      LDR      r1,[r0,#0x44]
        0x080058f6:    6c03        .l      LDR      r3,[r0,#0x40]
        0x080058f8:    6403        .d      STR      r3,[r0,#0x40]
        0x080058fa:    230f        .#      MOVS     r3,#0xf
        0x080058fc:    02db        ..      LSLS     r3,r3,#11
        0x080058fe:    4399        .C      BICS     r1,r1,r3
        0x08005900:    0712        ..      LSLS     r2,r2,#28
        0x08005902:    0c52        R.      LSRS     r2,r2,#17
        0x08005904:    1889        ..      ADDS     r1,r1,r2
        0x08005906:    6441        Ad      STR      r1,[r0,#0x44]
        0x08005908:    4770        pG      BX       lr
        0x0800590a:    46c0        .F      MOV      r8,r8
    dma_set_dst_handshake_polarity
        0x0800590c:    0049        I.      LSLS     r1,r1,#1
        0x0800590e:    4bdd        .K      LDR      r3,[pc,#884] ; [0x8005c84] = 0x8007408
        0x08005910:    5a59        YZ      LDRH     r1,[r3,r1]
        0x08005912:    1808        ..      ADDS     r0,r1,r0
        0x08005914:    6c01        .l      LDR      r1,[r0,#0x40]
        0x08005916:    6c43        Cl      LDR      r3,[r0,#0x44]
        0x08005918:    6443        Cd      STR      r3,[r0,#0x44]
        0x0800591a:    2301        .#      MOVS     r3,#1
        0x0800591c:    049b        ..      LSLS     r3,r3,#18
        0x0800591e:    4399        .C      BICS     r1,r1,r3
        0x08005920:    07d2        ..      LSLS     r2,r2,#31
        0x08005922:    0b52        R.      LSRS     r2,r2,#13
        0x08005924:    1889        ..      ADDS     r1,r1,r2
        0x08005926:    6401        .d      STR      r1,[r0,#0x40]
        0x08005928:    4770        pG      BX       lr
        0x0800592a:    46c0        .F      MOV      r8,r8
    dma_set_dst_handshake_type
        0x0800592c:    0049        I.      LSLS     r1,r1,#1
        0x0800592e:    4bde        .K      LDR      r3,[pc,#888] ; [0x8005ca8] = 0x8007408
        0x08005930:    5a59        YZ      LDRH     r1,[r3,r1]
        0x08005932:    1808        ..      ADDS     r0,r1,r0
        0x08005934:    6c01        .l      LDR      r1,[r0,#0x40]
        0x08005936:    6c43        Cl      LDR      r3,[r0,#0x44]
        0x08005938:    6443        Cd      STR      r3,[r0,#0x44]
        0x0800593a:    2301        .#      MOVS     r3,#1
        0x0800593c:    029b        ..      LSLS     r3,r3,#10
        0x0800593e:    4399        .C      BICS     r1,r1,r3
        0x08005940:    07d2        ..      LSLS     r2,r2,#31
        0x08005942:    0d52        R.      LSRS     r2,r2,#21
        0x08005944:    1889        ..      ADDS     r1,r1,r2
        0x08005946:    6401        .d      STR      r1,[r0,#0x40]
        0x08005948:    4770        pG      BX       lr
        0x0800594a:    46c0        .F      MOV      r8,r8
    dma_set_dst_linked_list_en
        0x0800594c:    0049        I.      LSLS     r1,r1,#1
        0x0800594e:    4be4        .K      LDR      r3,[pc,#912] ; [0x8005ce0] = 0x8007408
        0x08005950:    5a59        YZ      LDRH     r1,[r3,r1]
        0x08005952:    1808        ..      ADDS     r0,r1,r0
        0x08005954:    6981        .i      LDR      r1,[r0,#0x18]
        0x08005956:    69c3        .i      LDR      r3,[r0,#0x1c]
        0x08005958:    61c3        .a      STR      r3,[r0,#0x1c]
        0x0800595a:    2301        .#      MOVS     r3,#1
        0x0800595c:    06db        ..      LSLS     r3,r3,#27
        0x0800595e:    4399        .C      BICS     r1,r1,r3
        0x08005960:    07d2        ..      LSLS     r2,r2,#31
        0x08005962:    0912        ..      LSRS     r2,r2,#4
        0x08005964:    1889        ..      ADDS     r1,r1,r2
        0x08005966:    6181        .a      STR      r1,[r0,#0x18]
        0x08005968:    4770        pG      BX       lr
        0x0800596a:    46c0        .F      MOV      r8,r8
    dma_set_dst_reload_en
        0x0800596c:    0049        I.      LSLS     r1,r1,#1
        0x0800596e:    4be4        .K      LDR      r3,[pc,#912] ; [0x8005d00] = 0x8007408
        0x08005970:    5a59        YZ      LDRH     r1,[r3,r1]
        0x08005972:    1808        ..      ADDS     r0,r1,r0
        0x08005974:    6c01        .l      LDR      r1,[r0,#0x40]
        0x08005976:    6c43        Cl      LDR      r3,[r0,#0x44]
        0x08005978:    6443        Cd      STR      r3,[r0,#0x44]
        0x0800597a:    2301        .#      MOVS     r3,#1
        0x0800597c:    07db        ..      LSLS     r3,r3,#31
        0x0800597e:    4399        .C      BICS     r1,r1,r3
        0x08005980:    07d2        ..      LSLS     r2,r2,#31
        0x08005982:    1889        ..      ADDS     r1,r1,r2
        0x08005984:    6401        .d      STR      r1,[r0,#0x40]
        0x08005986:    4770        pG      BX       lr
    dma_set_dst_scatter_cnt
        0x08005988:    0049        I.      LSLS     r1,r1,#1
        0x0800598a:    4be5        .K      LDR      r3,[pc,#916] ; [0x8005d20] = 0x8007408
        0x0800598c:    5a59        YZ      LDRH     r1,[r3,r1]
        0x0800598e:    1808        ..      ADDS     r0,r1,r0
        0x08005990:    6d01        .m      LDR      r1,[r0,#0x50]
        0x08005992:    6d43        Cm      LDR      r3,[r0,#0x54]
        0x08005994:    6543        Ce      STR      r3,[r0,#0x54]
        0x08005996:    4b9f        .K      LDR      r3,[pc,#636] ; [0x8005c14] = 0xfffff
        0x08005998:    400b        .@      ANDS     r3,r3,r1
        0x0800599a:    0511        ..      LSLS     r1,r2,#20
        0x0800599c:    1859        Y.      ADDS     r1,r3,r1
        0x0800599e:    6501        .e      STR      r1,[r0,#0x50]
        0x080059a0:    4770        pG      BX       lr
        0x080059a2:    46c0        .F      MOV      r8,r8
    dma_set_dst_scatter_en
        0x080059a4:    0049        I.      LSLS     r1,r1,#1
        0x080059a6:    4bde        .K      LDR      r3,[pc,#888] ; [0x8005d20] = 0x8007408
        0x080059a8:    5a59        YZ      LDRH     r1,[r3,r1]
        0x080059aa:    1808        ..      ADDS     r0,r1,r0
        0x080059ac:    6981        .i      LDR      r1,[r0,#0x18]
        0x080059ae:    69c3        .i      LDR      r3,[r0,#0x1c]
        0x080059b0:    61c3        .a      STR      r3,[r0,#0x1c]
        0x080059b2:    2301        .#      MOVS     r3,#1
        0x080059b4:    049b        ..      LSLS     r3,r3,#18
        0x080059b6:    4399        .C      BICS     r1,r1,r3
        0x080059b8:    07d2        ..      LSLS     r2,r2,#31
        0x080059ba:    0b52        R.      LSRS     r2,r2,#13
        0x080059bc:    1889        ..      ADDS     r1,r1,r2
        0x080059be:    6181        .a      STR      r1,[r0,#0x18]
        0x080059c0:    4770        pG      BX       lr
        0x080059c2:    46c0        .F      MOV      r8,r8
    dma_set_dst_scatter_interval
        0x080059c4:    0049        I.      LSLS     r1,r1,#1
        0x080059c6:    4bd6        .K      LDR      r3,[pc,#856] ; [0x8005d20] = 0x8007408
        0x080059c8:    5a59        YZ      LDRH     r1,[r3,r1]
        0x080059ca:    1808        ..      ADDS     r0,r1,r0
        0x080059cc:    6d01        .m      LDR      r1,[r0,#0x50]
        0x080059ce:    6d43        Cm      LDR      r3,[r0,#0x54]
        0x080059d0:    6543        Ce      STR      r3,[r0,#0x54]
        0x080059d2:    4b90        .K      LDR      r3,[pc,#576] ; [0x8005c14] = 0xfffff
        0x080059d4:    4013        .@      ANDS     r3,r3,r2
        0x080059d6:    4a90        .J      LDR      r2,[pc,#576] ; [0x8005c18] = 0xfff00000
        0x080059d8:    400a        .@      ANDS     r2,r2,r1
        0x080059da:    18d1        ..      ADDS     r1,r2,r3
        0x080059dc:    6501        .e      STR      r1,[r0,#0x50]
        0x080059de:    4770        pG      BX       lr
    dma_set_dst_status_addr
        0x080059e0:    0049        I.      LSLS     r1,r1,#1
        0x080059e2:    4bcf        .K      LDR      r3,[pc,#828] ; [0x8005d20] = 0x8007408
        0x080059e4:    5a59        YZ      LDRH     r1,[r3,r1]
        0x080059e6:    1808        ..      ADDS     r0,r1,r0
        0x080059e8:    6b81        .k      LDR      r1,[r0,#0x38]
        0x080059ea:    6bc1        .k      LDR      r1,[r0,#0x3c]
        0x080059ec:    63c1        .c      STR      r1,[r0,#0x3c]
        0x080059ee:    6382        .c      STR      r2,[r0,#0x38]
        0x080059f0:    4770        pG      BX       lr
        0x080059f2:    46c0        .F      MOV      r8,r8
    dma_set_dst_status_update_en
        0x080059f4:    0049        I.      LSLS     r1,r1,#1
        0x080059f6:    4bca        .K      LDR      r3,[pc,#808] ; [0x8005d20] = 0x8007408
        0x080059f8:    5a59        YZ      LDRH     r1,[r3,r1]
        0x080059fa:    1808        ..      ADDS     r0,r1,r0
        0x080059fc:    6c41        Al      LDR      r1,[r0,#0x44]
        0x080059fe:    6c03        .l      LDR      r3,[r0,#0x40]
        0x08005a00:    6403        .d      STR      r3,[r0,#0x40]
        0x08005a02:    2320         #      MOVS     r3,#0x20
        0x08005a04:    4399        .C      BICS     r1,r1,r3
        0x08005a06:    07d2        ..      LSLS     r2,r2,#31
        0x08005a08:    0e92        ..      LSRS     r2,r2,#26
        0x08005a0a:    1889        ..      ADDS     r1,r1,r2
        0x08005a0c:    6441        Ad      STR      r1,[r0,#0x44]
        0x08005a0e:    4770        pG      BX       lr
    dma_set_dst_tr_width
        0x08005a10:    0049        I.      LSLS     r1,r1,#1
        0x08005a12:    4bc3        .K      LDR      r3,[pc,#780] ; [0x8005d20] = 0x8007408
        0x08005a14:    5a59        YZ      LDRH     r1,[r3,r1]
        0x08005a16:    1808        ..      ADDS     r0,r1,r0
        0x08005a18:    6981        .i      LDR      r1,[r0,#0x18]
        0x08005a1a:    69c3        .i      LDR      r3,[r0,#0x1c]
        0x08005a1c:    61c3        .a      STR      r3,[r0,#0x1c]
        0x08005a1e:    230e        .#      MOVS     r3,#0xe
        0x08005a20:    4399        .C      BICS     r1,r1,r3
        0x08005a22:    0752        R.      LSLS     r2,r2,#29
        0x08005a24:    0f12        ..      LSRS     r2,r2,#28
        0x08005a26:    1889        ..      ADDS     r1,r1,r2
        0x08005a28:    6181        .a      STR      r1,[r0,#0x18]
        0x08005a2a:    4770        pG      BX       lr
    dma_set_fifo_mode
        0x08005a2c:    0049        I.      LSLS     r1,r1,#1
        0x08005a2e:    4bbc        .K      LDR      r3,[pc,#752] ; [0x8005d20] = 0x8007408
        0x08005a30:    5a59        YZ      LDRH     r1,[r3,r1]
        0x08005a32:    1808        ..      ADDS     r0,r1,r0
        0x08005a34:    6c41        Al      LDR      r1,[r0,#0x44]
        0x08005a36:    6c03        .l      LDR      r3,[r0,#0x40]
        0x08005a38:    6403        .d      STR      r3,[r0,#0x40]
        0x08005a3a:    2302        .#      MOVS     r3,#2
        0x08005a3c:    4399        .C      BICS     r1,r1,r3
        0x08005a3e:    07d2        ..      LSLS     r2,r2,#31
        0x08005a40:    0f92        ..      LSRS     r2,r2,#30
        0x08005a42:    1889        ..      ADDS     r1,r1,r2
        0x08005a44:    6441        Ad      STR      r1,[r0,#0x44]
        0x08005a46:    4770        pG      BX       lr
    dma_set_flow_control_mode
        0x08005a48:    0049        I.      LSLS     r1,r1,#1
        0x08005a4a:    4bb5        .K      LDR      r3,[pc,#724] ; [0x8005d20] = 0x8007408
        0x08005a4c:    5a59        YZ      LDRH     r1,[r3,r1]
        0x08005a4e:    1808        ..      ADDS     r0,r1,r0
        0x08005a50:    6c41        Al      LDR      r1,[r0,#0x44]
        0x08005a52:    6c03        .l      LDR      r3,[r0,#0x40]
        0x08005a54:    6403        .d      STR      r3,[r0,#0x40]
        0x08005a56:    2301        .#      MOVS     r3,#1
        0x08005a58:    401a        .@      ANDS     r2,r2,r3
        0x08005a5a:    4399        .C      BICS     r1,r1,r3
        0x08005a5c:    1889        ..      ADDS     r1,r1,r2
        0x08005a5e:    6441        Ad      STR      r1,[r0,#0x44]
        0x08005a60:    4770        pG      BX       lr
        0x08005a62:    46c0        .F      MOV      r8,r8
    dma_set_flowctrl
        0x08005a64:    0049        I.      LSLS     r1,r1,#1
        0x08005a66:    4bae        .K      LDR      r3,[pc,#696] ; [0x8005d20] = 0x8007408
        0x08005a68:    5a59        YZ      LDRH     r1,[r3,r1]
        0x08005a6a:    1808        ..      ADDS     r0,r1,r0
        0x08005a6c:    6981        .i      LDR      r1,[r0,#0x18]
        0x08005a6e:    69c3        .i      LDR      r3,[r0,#0x1c]
        0x08005a70:    61c3        .a      STR      r3,[r0,#0x1c]
        0x08005a72:    2307        .#      MOVS     r3,#7
        0x08005a74:    051b        ..      LSLS     r3,r3,#20
        0x08005a76:    4399        .C      BICS     r1,r1,r3
        0x08005a78:    0752        R.      LSLS     r2,r2,#29
        0x08005a7a:    0a52        R.      LSRS     r2,r2,#9
        0x08005a7c:    1889        ..      ADDS     r1,r1,r2
        0x08005a7e:    6181        .a      STR      r1,[r0,#0x18]
        0x08005a80:    4770        pG      BX       lr
        0x08005a82:    46c0        .F      MOV      r8,r8
    dma_set_int_en
        0x08005a84:    0049        I.      LSLS     r1,r1,#1
        0x08005a86:    4ba6        .K      LDR      r3,[pc,#664] ; [0x8005d20] = 0x8007408
        0x08005a88:    5a59        YZ      LDRH     r1,[r3,r1]
        0x08005a8a:    1808        ..      ADDS     r0,r1,r0
        0x08005a8c:    6981        .i      LDR      r1,[r0,#0x18]
        0x08005a8e:    69c3        .i      LDR      r3,[r0,#0x1c]
        0x08005a90:    61c3        .a      STR      r3,[r0,#0x1c]
        0x08005a92:    2301        .#      MOVS     r3,#1
        0x08005a94:    401a        .@      ANDS     r2,r2,r3
        0x08005a96:    4399        .C      BICS     r1,r1,r3
        0x08005a98:    1889        ..      ADDS     r1,r1,r2
        0x08005a9a:    6181        .a      STR      r1,[r0,#0x18]
        0x08005a9c:    4770        pG      BX       lr
        0x08005a9e:    46c0        .F      MOV      r8,r8
    dma_set_linked_list_loc
        0x08005aa0:    0049        I.      LSLS     r1,r1,#1
        0x08005aa2:    4b9f        .K      LDR      r3,[pc,#636] ; [0x8005d20] = 0x8007408
        0x08005aa4:    5a59        YZ      LDRH     r1,[r3,r1]
        0x08005aa6:    1808        ..      ADDS     r0,r1,r0
        0x08005aa8:    6901        .i      LDR      r1,[r0,#0x10]
        0x08005aaa:    6943        Ci      LDR      r3,[r0,#0x14]
        0x08005aac:    6143        Ca      STR      r3,[r0,#0x14]
        0x08005aae:    2303        .#      MOVS     r3,#3
        0x08005ab0:    439a        .C      BICS     r2,r2,r3
        0x08005ab2:    4019        .@      ANDS     r1,r1,r3
        0x08005ab4:    1889        ..      ADDS     r1,r1,r2
        0x08005ab6:    6101        .a      STR      r1,[r0,#0x10]
        0x08005ab8:    4770        pG      BX       lr
        0x08005aba:    46c0        .F      MOV      r8,r8
    dma_set_lock_bus
        0x08005abc:    0049        I.      LSLS     r1,r1,#1
        0x08005abe:    4b98        .K      LDR      r3,[pc,#608] ; [0x8005d20] = 0x8007408
        0x08005ac0:    5a59        YZ      LDRH     r1,[r3,r1]
        0x08005ac2:    1808        ..      ADDS     r0,r1,r0
        0x08005ac4:    6c01        .l      LDR      r1,[r0,#0x40]
        0x08005ac6:    6c43        Cl      LDR      r3,[r0,#0x44]
        0x08005ac8:    6443        Cd      STR      r3,[r0,#0x44]
        0x08005aca:    2301        .#      MOVS     r3,#1
        0x08005acc:    045b        [.      LSLS     r3,r3,#17
        0x08005ace:    4399        .C      BICS     r1,r1,r3
        0x08005ad0:    07d2        ..      LSLS     r2,r2,#31
        0x08005ad2:    0b92        ..      LSRS     r2,r2,#14
        0x08005ad4:    1889        ..      ADDS     r1,r1,r2
        0x08005ad6:    6401        .d      STR      r1,[r0,#0x40]
        0x08005ad8:    4770        pG      BX       lr
        0x08005ada:    46c0        .F      MOV      r8,r8
    dma_set_lock_bus_level
        0x08005adc:    0049        I.      LSLS     r1,r1,#1
        0x08005ade:    4b90        .K      LDR      r3,[pc,#576] ; [0x8005d20] = 0x8007408
        0x08005ae0:    5a59        YZ      LDRH     r1,[r3,r1]
        0x08005ae2:    1808        ..      ADDS     r0,r1,r0
        0x08005ae4:    6c01        .l      LDR      r1,[r0,#0x40]
        0x08005ae6:    6c43        Cl      LDR      r3,[r0,#0x44]
        0x08005ae8:    6443        Cd      STR      r3,[r0,#0x44]
        0x08005aea:    2303        .#      MOVS     r3,#3
        0x08005aec:    039b        ..      LSLS     r3,r3,#14
        0x08005aee:    4399        .C      BICS     r1,r1,r3
        0x08005af0:    0792        ..      LSLS     r2,r2,#30
        0x08005af2:    0c12        ..      LSRS     r2,r2,#16
        0x08005af4:    1889        ..      ADDS     r1,r1,r2
        0x08005af6:    6401        .d      STR      r1,[r0,#0x40]
        0x08005af8:    4770        pG      BX       lr
        0x08005afa:    46c0        .F      MOV      r8,r8
    dma_set_lock_channel
        0x08005afc:    0049        I.      LSLS     r1,r1,#1
        0x08005afe:    4b88        .K      LDR      r3,[pc,#544] ; [0x8005d20] = 0x8007408
        0x08005b00:    5a59        YZ      LDRH     r1,[r3,r1]
        0x08005b02:    1808        ..      ADDS     r0,r1,r0
        0x08005b04:    6c01        .l      LDR      r1,[r0,#0x40]
        0x08005b06:    6c43        Cl      LDR      r3,[r0,#0x44]
        0x08005b08:    6443        Cd      STR      r3,[r0,#0x44]
        0x08005b0a:    2301        .#      MOVS     r3,#1
        0x08005b0c:    041b        ..      LSLS     r3,r3,#16
        0x08005b0e:    4399        .C      BICS     r1,r1,r3
        0x08005b10:    07d2        ..      LSLS     r2,r2,#31
        0x08005b12:    0bd2        ..      LSRS     r2,r2,#15
        0x08005b14:    1889        ..      ADDS     r1,r1,r2
        0x08005b16:    6401        .d      STR      r1,[r0,#0x40]
        0x08005b18:    4770        pG      BX       lr
        0x08005b1a:    46c0        .F      MOV      r8,r8
    dma_set_lock_channel_level
        0x08005b1c:    0049        I.      LSLS     r1,r1,#1
        0x08005b1e:    4b80        .K      LDR      r3,[pc,#512] ; [0x8005d20] = 0x8007408
        0x08005b20:    5a59        YZ      LDRH     r1,[r3,r1]
        0x08005b22:    1808        ..      ADDS     r0,r1,r0
        0x08005b24:    6c01        .l      LDR      r1,[r0,#0x40]
        0x08005b26:    6c43        Cl      LDR      r3,[r0,#0x44]
        0x08005b28:    6443        Cd      STR      r3,[r0,#0x44]
        0x08005b2a:    2303        .#      MOVS     r3,#3
        0x08005b2c:    031b        ..      LSLS     r3,r3,#12
        0x08005b2e:    4399        .C      BICS     r1,r1,r3
        0x08005b30:    0792        ..      LSLS     r2,r2,#30
        0x08005b32:    0c92        ..      LSRS     r2,r2,#18
        0x08005b34:    1889        ..      ADDS     r1,r1,r2
        0x08005b36:    6401        .d      STR      r1,[r0,#0x40]
        0x08005b38:    4770        pG      BX       lr
        0x08005b3a:    46c0        .F      MOV      r8,r8
    dma_set_protection_control
        0x08005b3c:    0049        I.      LSLS     r1,r1,#1
        0x08005b3e:    4b78        xK      LDR      r3,[pc,#480] ; [0x8005d20] = 0x8007408
        0x08005b40:    5a59        YZ      LDRH     r1,[r3,r1]
        0x08005b42:    1808        ..      ADDS     r0,r1,r0
        0x08005b44:    6c41        Al      LDR      r1,[r0,#0x44]
        0x08005b46:    6c03        .l      LDR      r3,[r0,#0x40]
        0x08005b48:    6403        .d      STR      r3,[r0,#0x40]
        0x08005b4a:    231c        .#      MOVS     r3,#0x1c
        0x08005b4c:    4399        .C      BICS     r1,r1,r3
        0x08005b4e:    0752        R.      LSLS     r2,r2,#29
        0x08005b50:    0ed2        ..      LSRS     r2,r2,#27
        0x08005b52:    1889        ..      ADDS     r1,r1,r2
        0x08005b54:    6441        Ad      STR      r1,[r0,#0x44]
        0x08005b56:    4770        pG      BX       lr
    dma_set_src_addr
        0x08005b58:    b510        ..      PUSH     {r4,lr}
        0x08005b5a:    0049        I.      LSLS     r1,r1,#1
        0x08005b5c:    4b70        pK      LDR      r3,[pc,#448] ; [0x8005d20] = 0x8007408
        0x08005b5e:    5a59        YZ      LDRH     r1,[r3,r1]
        0x08005b60:    580b        .X      LDR      r3,[r1,r0]
        0x08005b62:    180b        ..      ADDS     r3,r1,r0
        0x08005b64:    685c        \h      LDR      r4,[r3,#4]
        0x08005b66:    500a        .P      STR      r2,[r1,r0]
        0x08005b68:    605c        \`      STR      r4,[r3,#4]
        0x08005b6a:    bd10        ..      POP      {r4,pc}
    dma_set_src_addr_inc
        0x08005b6c:    0049        I.      LSLS     r1,r1,#1
        0x08005b6e:    4b6c        lK      LDR      r3,[pc,#432] ; [0x8005d20] = 0x8007408
        0x08005b70:    5a59        YZ      LDRH     r1,[r3,r1]
        0x08005b72:    1808        ..      ADDS     r0,r1,r0
        0x08005b74:    6981        .i      LDR      r1,[r0,#0x18]
        0x08005b76:    69c3        .i      LDR      r3,[r0,#0x1c]
        0x08005b78:    61c3        .a      STR      r3,[r0,#0x1c]
        0x08005b7a:    2303        .#      MOVS     r3,#3
        0x08005b7c:    025b        [.      LSLS     r3,r3,#9
        0x08005b7e:    4399        .C      BICS     r1,r1,r3
        0x08005b80:    0792        ..      LSLS     r2,r2,#30
        0x08005b82:    0d52        R.      LSRS     r2,r2,#21
        0x08005b84:    1889        ..      ADDS     r1,r1,r2
        0x08005b86:    6181        .a      STR      r1,[r0,#0x18]
        0x08005b88:    4770        pG      BX       lr
        0x08005b8a:    46c0        .F      MOV      r8,r8
    dma_set_src_burst_length
        0x08005b8c:    0049        I.      LSLS     r1,r1,#1
        0x08005b8e:    4b64        dK      LDR      r3,[pc,#400] ; [0x8005d20] = 0x8007408
        0x08005b90:    5a59        YZ      LDRH     r1,[r3,r1]
        0x08005b92:    1808        ..      ADDS     r0,r1,r0
        0x08005b94:    6981        .i      LDR      r1,[r0,#0x18]
        0x08005b96:    69c3        .i      LDR      r3,[r0,#0x1c]
        0x08005b98:    61c3        .a      STR      r3,[r0,#0x1c]
        0x08005b9a:    2307        .#      MOVS     r3,#7
        0x08005b9c:    039b        ..      LSLS     r3,r3,#14
        0x08005b9e:    4399        .C      BICS     r1,r1,r3
        0x08005ba0:    0752        R.      LSLS     r2,r2,#29
        0x08005ba2:    0bd2        ..      LSRS     r2,r2,#15
        0x08005ba4:    1889        ..      ADDS     r1,r1,r2
        0x08005ba6:    6181        .a      STR      r1,[r0,#0x18]
        0x08005ba8:    4770        pG      BX       lr
        0x08005baa:    46c0        .F      MOV      r8,r8
    $d.33
    __arm_cp.16_0
        0x08005bac:    08007408    .t..    DCD    134247432
    $t.64
    dma_set_src_gather_cnt
        0x08005bb0:    0049        I.      LSLS     r1,r1,#1
        0x08005bb2:    4b5b        [K      LDR      r3,[pc,#364] ; [0x8005d20] = 0x8007408
        0x08005bb4:    5a59        YZ      LDRH     r1,[r3,r1]
        0x08005bb6:    1808        ..      ADDS     r0,r1,r0
        0x08005bb8:    6c81        .l      LDR      r1,[r0,#0x48]
        0x08005bba:    6cc3        .l      LDR      r3,[r0,#0x4c]
        0x08005bbc:    64c3        .d      STR      r3,[r0,#0x4c]
        0x08005bbe:    4b15        .K      LDR      r3,[pc,#84] ; [0x8005c14] = 0xfffff
        0x08005bc0:    400b        .@      ANDS     r3,r3,r1
        0x08005bc2:    0511        ..      LSLS     r1,r2,#20
        0x08005bc4:    1859        Y.      ADDS     r1,r3,r1
        0x08005bc6:    6481        .d      STR      r1,[r0,#0x48]
        0x08005bc8:    4770        pG      BX       lr
        0x08005bca:    46c0        .F      MOV      r8,r8
    $d.65
    __arm_cp.32_0
        0x08005bcc:    08007408    .t..    DCD    134247432
    $t.60
    dma_set_src_gather_en
        0x08005bd0:    0049        I.      LSLS     r1,r1,#1
        0x08005bd2:    4b53        SK      LDR      r3,[pc,#332] ; [0x8005d20] = 0x8007408
        0x08005bd4:    5a59        YZ      LDRH     r1,[r3,r1]
        0x08005bd6:    1808        ..      ADDS     r0,r1,r0
        0x08005bd8:    6981        .i      LDR      r1,[r0,#0x18]
        0x08005bda:    69c3        .i      LDR      r3,[r0,#0x1c]
        0x08005bdc:    61c3        .a      STR      r3,[r0,#0x1c]
        0x08005bde:    2301        .#      MOVS     r3,#1
        0x08005be0:    045b        [.      LSLS     r3,r3,#17
        0x08005be2:    4399        .C      BICS     r1,r1,r3
        0x08005be4:    07d2        ..      LSLS     r2,r2,#31
        0x08005be6:    0b92        ..      LSRS     r2,r2,#14
        0x08005be8:    1889        ..      ADDS     r1,r1,r2
        0x08005bea:    6181        .a      STR      r1,[r0,#0x18]
        0x08005bec:    4770        pG      BX       lr
        0x08005bee:    46c0        .F      MOV      r8,r8
    $d.61
    __arm_cp.30_0
        0x08005bf0:    08007408    .t..    DCD    134247432
    $t.68
    dma_set_src_gather_interval
        0x08005bf4:    0049        I.      LSLS     r1,r1,#1
        0x08005bf6:    4b4a        JK      LDR      r3,[pc,#296] ; [0x8005d20] = 0x8007408
        0x08005bf8:    5a59        YZ      LDRH     r1,[r3,r1]
        0x08005bfa:    1808        ..      ADDS     r0,r1,r0
        0x08005bfc:    6c81        .l      LDR      r1,[r0,#0x48]
        0x08005bfe:    6cc3        .l      LDR      r3,[r0,#0x4c]
        0x08005c00:    64c3        .d      STR      r3,[r0,#0x4c]
        0x08005c02:    4b04        .K      LDR      r3,[pc,#16] ; [0x8005c14] = 0xfffff
        0x08005c04:    4013        .@      ANDS     r3,r3,r2
        0x08005c06:    4a04        .J      LDR      r2,[pc,#16] ; [0x8005c18] = 0xfff00000
        0x08005c08:    400a        .@      ANDS     r2,r2,r1
        0x08005c0a:    18d1        ..      ADDS     r1,r2,r3
        0x08005c0c:    6481        .d      STR      r1,[r0,#0x48]
        0x08005c0e:    4770        pG      BX       lr
    $d.69
    __arm_cp.34_0
        0x08005c10:    08007408    .t..    DCD    134247432
    __arm_cp.34_1
        0x08005c14:    000fffff    ....    DCD    1048575
    __arm_cp.34_2
        0x08005c18:    fff00000    ....    DCD    4293918720
    $t.112
    dma_set_src_handshake_if
        0x08005c1c:    0049        I.      LSLS     r1,r1,#1
        0x08005c1e:    4b40        @K      LDR      r3,[pc,#256] ; [0x8005d20] = 0x8007408
        0x08005c20:    5a59        YZ      LDRH     r1,[r3,r1]
        0x08005c22:    1808        ..      ADDS     r0,r1,r0
        0x08005c24:    6c41        Al      LDR      r1,[r0,#0x44]
        0x08005c26:    6c03        .l      LDR      r3,[r0,#0x40]
        0x08005c28:    6403        .d      STR      r3,[r0,#0x40]
        0x08005c2a:    230f        .#      MOVS     r3,#0xf
        0x08005c2c:    01db        ..      LSLS     r3,r3,#7
        0x08005c2e:    4399        .C      BICS     r1,r1,r3
        0x08005c30:    0712        ..      LSLS     r2,r2,#28
        0x08005c32:    0d52        R.      LSRS     r2,r2,#21
        0x08005c34:    1889        ..      ADDS     r1,r1,r2
        0x08005c36:    6441        Ad      STR      r1,[r0,#0x44]
        0x08005c38:    4770        pG      BX       lr
        0x08005c3a:    46c0        .F      MOV      r8,r8
    $d.113
    __arm_cp.56_0
        0x08005c3c:    08007408    .t..    DCD    134247432
    $t.120
    dma_set_src_handshake_polarity
        0x08005c40:    0049        I.      LSLS     r1,r1,#1
        0x08005c42:    4b37        7K      LDR      r3,[pc,#220] ; [0x8005d20] = 0x8007408
        0x08005c44:    5a59        YZ      LDRH     r1,[r3,r1]
        0x08005c46:    1808        ..      ADDS     r0,r1,r0
        0x08005c48:    6c01        .l      LDR      r1,[r0,#0x40]
        0x08005c4a:    6c43        Cl      LDR      r3,[r0,#0x44]
        0x08005c4c:    6443        Cd      STR      r3,[r0,#0x44]
        0x08005c4e:    2301        .#      MOVS     r3,#1
        0x08005c50:    04db        ..      LSLS     r3,r3,#19
        0x08005c52:    4399        .C      BICS     r1,r1,r3
        0x08005c54:    07d2        ..      LSLS     r2,r2,#31
        0x08005c56:    0b12        ..      LSRS     r2,r2,#12
        0x08005c58:    1889        ..      ADDS     r1,r1,r2
        0x08005c5a:    6401        .d      STR      r1,[r0,#0x40]
        0x08005c5c:    4770        pG      BX       lr
        0x08005c5e:    46c0        .F      MOV      r8,r8
    $d.121
    __arm_cp.60_0
        0x08005c60:    08007408    .t..    DCD    134247432
    $t.104
    dma_set_src_handshake_type
        0x08005c64:    0049        I.      LSLS     r1,r1,#1
        0x08005c66:    4b2e        .K      LDR      r3,[pc,#184] ; [0x8005d20] = 0x8007408
        0x08005c68:    5a59        YZ      LDRH     r1,[r3,r1]
        0x08005c6a:    1808        ..      ADDS     r0,r1,r0
        0x08005c6c:    6c01        .l      LDR      r1,[r0,#0x40]
        0x08005c6e:    6c43        Cl      LDR      r3,[r0,#0x44]
        0x08005c70:    6443        Cd      STR      r3,[r0,#0x44]
        0x08005c72:    2301        .#      MOVS     r3,#1
        0x08005c74:    02db        ..      LSLS     r3,r3,#11
        0x08005c76:    4399        .C      BICS     r1,r1,r3
        0x08005c78:    07d2        ..      LSLS     r2,r2,#31
        0x08005c7a:    0d12        ..      LSRS     r2,r2,#20
        0x08005c7c:    1889        ..      ADDS     r1,r1,r2
        0x08005c7e:    6401        .d      STR      r1,[r0,#0x40]
        0x08005c80:    4770        pG      BX       lr
        0x08005c82:    46c0        .F      MOV      r8,r8
    $d.105
    __arm_cp.52_0
        0x08005c84:    08007408    .t..    DCD    134247432
    $t.12
    dma_set_src_linked_list_en
        0x08005c88:    0049        I.      LSLS     r1,r1,#1
        0x08005c8a:    4b25        %K      LDR      r3,[pc,#148] ; [0x8005d20] = 0x8007408
        0x08005c8c:    5a59        YZ      LDRH     r1,[r3,r1]
        0x08005c8e:    1808        ..      ADDS     r0,r1,r0
        0x08005c90:    6981        .i      LDR      r1,[r0,#0x18]
        0x08005c92:    69c3        .i      LDR      r3,[r0,#0x1c]
        0x08005c94:    61c3        .a      STR      r3,[r0,#0x1c]
        0x08005c96:    2301        .#      MOVS     r3,#1
        0x08005c98:    071b        ..      LSLS     r3,r3,#28
        0x08005c9a:    4399        .C      BICS     r1,r1,r3
        0x08005c9c:    07d2        ..      LSLS     r2,r2,#31
        0x08005c9e:    08d2        ..      LSRS     r2,r2,#3
        0x08005ca0:    1889        ..      ADDS     r1,r1,r2
        0x08005ca2:    6181        .a      STR      r1,[r0,#0x18]
        0x08005ca4:    4770        pG      BX       lr
        0x08005ca6:    46c0        .F      MOV      r8,r8
    $d.13
    __arm_cp.6_0
        0x08005ca8:    08007408    .t..    DCD    134247432
    $t.144
    dma_set_src_realod_en
        0x08005cac:    0049        I.      LSLS     r1,r1,#1
        0x08005cae:    4b1c        .K      LDR      r3,[pc,#112] ; [0x8005d20] = 0x8007408
        0x08005cb0:    5a59        YZ      LDRH     r1,[r3,r1]
        0x08005cb2:    1808        ..      ADDS     r0,r1,r0
        0x08005cb4:    6c01        .l      LDR      r1,[r0,#0x40]
        0x08005cb6:    6c43        Cl      LDR      r3,[r0,#0x44]
        0x08005cb8:    6443        Cd      STR      r3,[r0,#0x44]
        0x08005cba:    2301        .#      MOVS     r3,#1
        0x08005cbc:    079b        ..      LSLS     r3,r3,#30
        0x08005cbe:    4399        .C      BICS     r1,r1,r3
        0x08005cc0:    07d2        ..      LSLS     r2,r2,#31
        0x08005cc2:    0852        R.      LSRS     r2,r2,#1
        0x08005cc4:    1889        ..      ADDS     r1,r1,r2
        0x08005cc6:    6401        .d      STR      r1,[r0,#0x40]
        0x08005cc8:    4770        pG      BX       lr
        0x08005cca:    46c0        .F      MOV      r8,r8
    dma_set_src_status_addr
        0x08005ccc:    0049        I.      LSLS     r1,r1,#1
        0x08005cce:    4b14        .K      LDR      r3,[pc,#80] ; [0x8005d20] = 0x8007408
        0x08005cd0:    5a59        YZ      LDRH     r1,[r3,r1]
        0x08005cd2:    1808        ..      ADDS     r0,r1,r0
        0x08005cd4:    6b01        .k      LDR      r1,[r0,#0x30]
        0x08005cd6:    6b41        Ak      LDR      r1,[r0,#0x34]
        0x08005cd8:    6341        Ac      STR      r1,[r0,#0x34]
        0x08005cda:    6302        .c      STR      r2,[r0,#0x30]
        0x08005cdc:    4770        pG      BX       lr
        0x08005cde:    46c0        .F      MOV      r8,r8
    $d.89
    __arm_cp.44_0
        0x08005ce0:    08007408    .t..    DCD    134247432
    $t.84
    dma_set_src_status_update_en
        0x08005ce4:    0049        I.      LSLS     r1,r1,#1
        0x08005ce6:    4b0e        .K      LDR      r3,[pc,#56] ; [0x8005d20] = 0x8007408
        0x08005ce8:    5a59        YZ      LDRH     r1,[r3,r1]
        0x08005cea:    1808        ..      ADDS     r0,r1,r0
        0x08005cec:    6c41        Al      LDR      r1,[r0,#0x44]
        0x08005cee:    6c03        .l      LDR      r3,[r0,#0x40]
        0x08005cf0:    6403        .d      STR      r3,[r0,#0x40]
        0x08005cf2:    2340        @#      MOVS     r3,#0x40
        0x08005cf4:    4399        .C      BICS     r1,r1,r3
        0x08005cf6:    07d2        ..      LSLS     r2,r2,#31
        0x08005cf8:    0e52        R.      LSRS     r2,r2,#25
        0x08005cfa:    1889        ..      ADDS     r1,r1,r2
        0x08005cfc:    6441        Ad      STR      r1,[r0,#0x44]
        0x08005cfe:    4770        pG      BX       lr
    $d.85
    __arm_cp.42_0
        0x08005d00:    08007408    .t..    DCD    134247432
    $t.48
    dma_set_src_tr_width
        0x08005d04:    0049        I.      LSLS     r1,r1,#1
        0x08005d06:    4b06        .K      LDR      r3,[pc,#24] ; [0x8005d20] = 0x8007408
        0x08005d08:    5a59        YZ      LDRH     r1,[r3,r1]
        0x08005d0a:    1808        ..      ADDS     r0,r1,r0
        0x08005d0c:    6981        .i      LDR      r1,[r0,#0x18]
        0x08005d0e:    69c3        .i      LDR      r3,[r0,#0x1c]
        0x08005d10:    61c3        .a      STR      r3,[r0,#0x1c]
        0x08005d12:    2370        p#      MOVS     r3,#0x70
        0x08005d14:    4399        .C      BICS     r1,r1,r3
        0x08005d16:    0752        R.      LSLS     r2,r2,#29
        0x08005d18:    0e52        R.      LSRS     r2,r2,#25
        0x08005d1a:    1889        ..      ADDS     r1,r1,r2
        0x08005d1c:    6181        .a      STR      r1,[r0,#0x18]
        0x08005d1e:    4770        pG      BX       lr
    $d.49
    __arm_cp.24_0
        0x08005d20:    08007408    .t..    DCD    134247432
    $t.30
    fft_adc_1d_fft_cfg
        0x08005d24:    b5f0        ..      PUSH     {r4-r7,lr}
        0x08005d26:    4cad        .L      LDR      r4,[pc,#692] ; [0x8005fdc] = 0x40010000
        0x08005d28:    6825        %h      LDR      r5,[r4,#0]
        0x08005d2a:    2602        .&      MOVS     r6,#2
        0x08005d2c:    43b5        .C      BICS     r5,r5,r6
        0x08005d2e:    6025        %`      STR      r5,[r4,#0]
        0x08005d30:    0405        ..      LSLS     r5,r0,#16
        0x08005d32:    4e17        .N      LDR      r6,[pc,#92] ; [0x8005d90] = 0x7fe00000
        0x08005d34:    402e        .@      ANDS     r6,r6,r5
        0x08005d36:    251e        .%      MOVS     r5,#0x1e
        0x08005d38:    4005        .@      ANDS     r5,r5,r0
        0x08005d3a:    070f        ..      LSLS     r7,r1,#28
        0x08005d3c:    0aff        ..      LSRS     r7,r7,#11
        0x08005d3e:    197d        }.      ADDS     r5,r7,r5
        0x08005d40:    19ad        ..      ADDS     r5,r5,r6
        0x08005d42:    6866        fh      LDR      r6,[r4,#4]
        0x08005d44:    4f13        .O      LDR      r7,[pc,#76] ; [0x8005d94] = 0x1ffe1
        0x08005d46:    4037        7@      ANDS     r7,r7,r6
        0x08005d48:    19ed        ..      ADDS     r5,r5,r7
        0x08005d4a:    6065        e`      STR      r5,[r4,#4]
        0x08005d4c:    0c05        ..      LSRS     r5,r0,#16
        0x08005d4e:    1e6d        m.      SUBS     r5,r5,#1
        0x08005d50:    4e61        aN      LDR      r6,[pc,#388] ; [0x8005ed8] = 0x3ff
        0x08005d52:    402e        .@      ANDS     r6,r6,r5
        0x08005d54:    0292        ..      LSLS     r2,r2,#10
        0x08005d56:    4d38        8M      LDR      r5,[pc,#224] ; [0x8005e38] = 0xffc00
        0x08005d58:    1952        R.      ADDS     r2,r2,r5
        0x08005d5a:    402a        *@      ANDS     r2,r2,r5
        0x08005d5c:    1992        ..      ADDS     r2,r2,r6
        0x08005d5e:    60e2        .`      STR      r2,[r4,#0xc]
        0x08005d60:    0189        ..      LSLS     r1,r1,#6
        0x08005d62:    4a5e        ^J      LDR      r2,[pc,#376] ; [0x8005edc] = 0xffc00000
        0x08005d64:    1889        ..      ADDS     r1,r1,r2
        0x08005d66:    4011        .@      ANDS     r1,r1,r2
        0x08005d68:    60a1        .`      STR      r1,[r4,#8]
        0x08005d6a:    2103        .!      MOVS     r1,#3
        0x08005d6c:    078a        ..      LSLS     r2,r1,#30
        0x08005d6e:    9d05        ..      LDR      r5,[sp,#0x14]
        0x08005d70:    03ad        ..      LSLS     r5,r5,#14
        0x08005d72:    18aa        ..      ADDS     r2,r5,r2
        0x08005d74:    4de3        .M      LDR      r5,[pc,#908] ; [0x8006104] = 0xffff0000
        0x08005d76:    4015        .@      ANDS     r5,r5,r2
        0x08005d78:    0409        ..      LSLS     r1,r1,#16
        0x08005d7a:    1859        Y.      ADDS     r1,r3,r1
        0x08005d7c:    0889        ..      LSRS     r1,r1,#2
        0x08005d7e:    b289        ..      UXTH     r1,r1
        0x08005d80:    1949        I.      ADDS     r1,r1,r5
        0x08005d82:    6121        !a      STR      r1,[r4,#0x10]
        0x08005d84:    07c0        ..      LSLS     r0,r0,#31
        0x08005d86:    0f80        ..      LSRS     r0,r0,#30
        0x08005d88:    6821        !h      LDR      r1,[r4,#0]
        0x08005d8a:    4301        .C      ORRS     r1,r1,r0
        0x08005d8c:    6021        !`      STR      r1,[r4,#0]
        0x08005d8e:    bdf0        ..      POP      {r4-r7,pc}
    $d.31
    __arm_cp.15_1
        0x08005d90:    7fe00000    ....    DCD    2145386496
    __arm_cp.15_2
        0x08005d94:    0001ffe1    ....    DCD    131041
    $t.28
    fft_adc_1d_fft_enable
        0x08005d98:    4970        pI      LDR      r1,[pc,#448] ; [0x8005f5c] = 0x40010004
        0x08005d9a:    680a        .h      LDR      r2,[r1,#0]
        0x08005d9c:    2301        .#      MOVS     r3,#1
        0x08005d9e:    439a        .C      BICS     r2,r2,r3
        0x08005da0:    1810        ..      ADDS     r0,r2,r0
        0x08005da2:    6008        .`      STR      r0,[r1,#0]
        0x08005da4:    4770        pG      BX       lr
        0x08005da6:    46c0        .F      MOV      r8,r8
    fft_adc_2d_fft_cfg
        0x08005da8:    b5f0        ..      PUSH     {r4-r7,lr}
        0x08005daa:    b081        ..      SUB      sp,sp,#4
        0x08005dac:    9300        ..      STR      r3,[sp,#0]
        0x08005dae:    4613        .F      MOV      r3,r2
        0x08005db0:    460a        .F      MOV      r2,r1
        0x08005db2:    4601        .F      MOV      r1,r0
        0x08005db4:    240f        .$      MOVS     r4,#0xf
        0x08005db6:    0466        f.      LSLS     r6,r4,#17
        0x08005db8:    03c4        ..      LSLS     r4,r0,#15
        0x08005dba:    4034        4@      ANDS     r4,r4,r6
        0x08005dbc:    0bc5        ..      LSRS     r5,r0,#15
        0x08005dbe:    271e        .'      MOVS     r7,#0x1e
        0x08005dc0:    402f        /@      ANDS     r7,r7,r5
        0x08005dc2:    193f        ?.      ADDS     r7,r7,r4
        0x08005dc4:    4c85        .L      LDR      r4,[pc,#532] ; [0x8005fdc] = 0x40010000
        0x08005dc6:    6860        `h      LDR      r0,[r4,#4]
        0x08005dc8:    4d1a        .M      LDR      r5,[pc,#104] ; [0x8005e34] = 0x1ffe0
        0x08005dca:    4028        (@      ANDS     r0,r0,r5
        0x08005dcc:    1838        8.      ADDS     r0,r7,r0
        0x08005dce:    1c40        @.      ADDS     r0,r0,#1
        0x08005dd0:    6060        ``      STR      r0,[r4,#4]
        0x08005dd2:    0208        ..      LSLS     r0,r1,#8
        0x08005dd4:    4030        0@      ANDS     r0,r0,r6
        0x08005dd6:    07ce        ..      LSLS     r6,r1,#31
        0x08005dd8:    0ab6        ..      LSRS     r6,r6,#10
        0x08005dda:    0717        ..      LSLS     r7,r2,#28
        0x08005ddc:    0eff        ..      LSRS     r7,r7,#27
        0x08005dde:    19be        ..      ADDS     r6,r7,r6
        0x08005de0:    1830        0.      ADDS     r0,r6,r0
        0x08005de2:    0192        ..      LSLS     r2,r2,#6
        0x08005de4:    4e3d        =N      LDR      r6,[pc,#244] ; [0x8005edc] = 0xffc00000
        0x08005de6:    1992        ..      ADDS     r2,r2,r6
        0x08005de8:    4032        2@      ANDS     r2,r2,r6
        0x08005dea:    1880        ..      ADDS     r0,r0,r2
        0x08005dec:    1c6a        j.      ADDS     r2,r5,#1
        0x08005dee:    68a5        .h      LDR      r5,[r4,#8]
        0x08005df0:    4015        .@      ANDS     r5,r5,r2
        0x08005df2:    1940        @.      ADDS     r0,r0,r5
        0x08005df4:    60a0        .`      STR      r0,[r4,#8]
        0x08005df6:    0c18        ..      LSRS     r0,r3,#16
        0x08005df8:    1e40        @.      SUBS     r0,r0,#1
        0x08005dfa:    4abf        .J      LDR      r2,[pc,#764] ; [0x80060f8] = 0x3ff
        0x08005dfc:    4002        .@      ANDS     r2,r2,r0
        0x08005dfe:    0298        ..      LSLS     r0,r3,#10
        0x08005e00:    4bbf        .K      LDR      r3,[pc,#764] ; [0x8006100] = 0xffc00
        0x08005e02:    18c0        ..      ADDS     r0,r0,r3
        0x08005e04:    4018        .@      ANDS     r0,r0,r3
        0x08005e06:    1880        ..      ADDS     r0,r0,r2
        0x08005e08:    60e0        .`      STR      r0,[r4,#0xc]
        0x08005e0a:    2003        .       MOVS     r0,#3
        0x08005e0c:    0782        ..      LSLS     r2,r0,#30
        0x08005e0e:    9b06        ..      LDR      r3,[sp,#0x18]
        0x08005e10:    039b        ..      LSLS     r3,r3,#14
        0x08005e12:    189a        ..      ADDS     r2,r3,r2
        0x08005e14:    4bbb        .K      LDR      r3,[pc,#748] ; [0x8006104] = 0xffff0000
        0x08005e16:    4013        .@      ANDS     r3,r3,r2
        0x08005e18:    0400        ..      LSLS     r0,r0,#16
        0x08005e1a:    9a00        ..      LDR      r2,[sp,#0]
        0x08005e1c:    1810        ..      ADDS     r0,r2,r0
        0x08005e1e:    0880        ..      LSRS     r0,r0,#2
        0x08005e20:    b280        ..      UXTH     r0,r0
        0x08005e22:    18c0        ..      ADDS     r0,r0,r3
        0x08005e24:    6120         a      STR      r0,[r4,#0x10]
        0x08005e26:    2002        .       MOVS     r0,#2
        0x08005e28:    4008        .@      ANDS     r0,r0,r1
        0x08005e2a:    6821        !h      LDR      r1,[r4,#0]
        0x08005e2c:    4301        .C      ORRS     r1,r1,r0
        0x08005e2e:    6021        !`      STR      r1,[r4,#0]
        0x08005e30:    b001        ..      ADD      sp,sp,#4
        0x08005e32:    bdf0        ..      POP      {r4-r7,pc}
    $d.35
    __arm_cp.17_1
        0x08005e34:    0001ffe0    ....    DCD    131040
    __arm_cp.17_4
        0x08005e38:    000ffc00    ....    DCD    1047552
    $t.32
    fft_adc_2d_fft_enable
        0x08005e3c:    4903        .I      LDR      r1,[pc,#12] ; [0x8005e4c] = 0x40010008
        0x08005e3e:    680a        .h      LDR      r2,[r1,#0]
        0x08005e40:    2301        .#      MOVS     r3,#1
        0x08005e42:    439a        .C      BICS     r2,r2,r3
        0x08005e44:    1810        ..      ADDS     r0,r2,r0
        0x08005e46:    6008        .`      STR      r0,[r1,#0]
        0x08005e48:    4770        pG      BX       lr
        0x08005e4a:    46c0        .F      MOV      r8,r8
    $d.33
    __arm_cp.16_0
        0x08005e4c:    40010008    ...@    DCD    1073807368
    $t.26
    fft_adc_fft_addr_set
        0x08005e50:    b510        ..      PUSH     {r4,lr}
        0x08005e52:    4a07        .J      LDR      r2,[pc,#28] ; [0x8005e70] = 0x40010010
        0x08005e54:    6813        .h      LDR      r3,[r2,#0]
        0x08005e56:    2303        .#      MOVS     r3,#3
        0x08005e58:    079c        ..      LSLS     r4,r3,#30
        0x08005e5a:    0389        ..      LSLS     r1,r1,#14
        0x08005e5c:    1909        ..      ADDS     r1,r1,r4
        0x08005e5e:    4ca9        .L      LDR      r4,[pc,#676] ; [0x8006104] = 0xffff0000
        0x08005e60:    400c        .@      ANDS     r4,r4,r1
        0x08005e62:    0419        ..      LSLS     r1,r3,#16
        0x08005e64:    1840        @.      ADDS     r0,r0,r1
        0x08005e66:    0880        ..      LSRS     r0,r0,#2
        0x08005e68:    b280        ..      UXTH     r0,r0
        0x08005e6a:    1820         .      ADDS     r0,r4,r0
        0x08005e6c:    6010        .`      STR      r0,[r2,#0]
        0x08005e6e:    bd10        ..      POP      {r4,pc}
    $d.27
    __arm_cp.13_0
        0x08005e70:    40010010    ...@    DCD    1073807376
    $t.24
    fft_adc_rdat_addr_set
        0x08005e74:    4959        YI      LDR      r1,[pc,#356] ; [0x8005fdc] = 0x40010000
        0x08005e76:    680a        .h      LDR      r2,[r1,#0]
        0x08005e78:    4b16        .K      LDR      r3,[pc,#88] ; [0x8005ed4] = 0xfff0000f
        0x08005e7a:    4013        .@      ANDS     r3,r3,r2
        0x08005e7c:    2203        ."      MOVS     r2,#3
        0x08005e7e:    0492        ..      LSLS     r2,r2,#18
        0x08005e80:    0080        ..      LSLS     r0,r0,#2
        0x08005e82:    1880        ..      ADDS     r0,r0,r2
        0x08005e84:    4a16        .J      LDR      r2,[pc,#88] ; [0x8005ee0] = 0xffff0
        0x08005e86:    4002        .@      ANDS     r2,r2,r0
        0x08005e88:    1898        ..      ADDS     r0,r3,r2
        0x08005e8a:    6008        .`      STR      r0,[r1,#0]
        0x08005e8c:    4770        pG      BX       lr
        0x08005e8e:    46c0        .F      MOV      r8,r8
    fft_adc_rdat_cfg
        0x08005e90:    b5b0        ..      PUSH     {r4,r5,r7,lr}
        0x08005e92:    4b52        RK      LDR      r3,[pc,#328] ; [0x8005fdc] = 0x40010000
        0x08005e94:    681c        .h      LDR      r4,[r3,#0]
        0x08005e96:    2502        .%      MOVS     r5,#2
        0x08005e98:    43ac        .C      BICS     r4,r4,r5
        0x08005e9a:    601c        .`      STR      r4,[r3,#0]
        0x08005e9c:    681c        .h      LDR      r4,[r3,#0]
        0x08005e9e:    4d0d        .M      LDR      r5,[pc,#52] ; [0x8005ed4] = 0xfff0000f
        0x08005ea0:    4025        %@      ANDS     r5,r5,r4
        0x08005ea2:    601d        .`      STR      r5,[r3,#0]
        0x08005ea4:    0c04        ..      LSRS     r4,r0,#16
        0x08005ea6:    1e64        d.      SUBS     r4,r4,#1
        0x08005ea8:    4d93        .M      LDR      r5,[pc,#588] ; [0x80060f8] = 0x3ff
        0x08005eaa:    4025        %@      ANDS     r5,r5,r4
        0x08005eac:    60dd        .`      STR      r5,[r3,#0xc]
        0x08005eae:    0589        ..      LSLS     r1,r1,#22
        0x08005eb0:    4c0a        .L      LDR      r4,[pc,#40] ; [0x8005edc] = 0xffc00000
        0x08005eb2:    1909        ..      ADDS     r1,r1,r4
        0x08005eb4:    6099        .`      STR      r1,[r3,#8]
        0x08005eb6:    07c0        ..      LSLS     r0,r0,#31
        0x08005eb8:    0f80        ..      LSRS     r0,r0,#30
        0x08005eba:    6819        .h      LDR      r1,[r3,#0]
        0x08005ebc:    4301        .C      ORRS     r1,r1,r0
        0x08005ebe:    6019        .`      STR      r1,[r3,#0]
        0x08005ec0:    2003        .       MOVS     r0,#3
        0x08005ec2:    0480        ..      LSLS     r0,r0,#18
        0x08005ec4:    0091        ..      LSLS     r1,r2,#2
        0x08005ec6:    1808        ..      ADDS     r0,r1,r0
        0x08005ec8:    4905        .I      LDR      r1,[pc,#20] ; [0x8005ee0] = 0xffff0
        0x08005eca:    4001        .@      ANDS     r1,r1,r0
        0x08005ecc:    6818        .h      LDR      r0,[r3,#0]
        0x08005ece:    4308        .C      ORRS     r0,r0,r1
        0x08005ed0:    6018        .`      STR      r0,[r3,#0]
        0x08005ed2:    bdb0        ..      POP      {r4,r5,r7,pc}
    $d.23
    __arm_cp.11_1
        0x08005ed4:    fff0000f    ....    DCD    4293918735
    __arm_cp.11_2
        0x08005ed8:    000003ff    ....    DCD    1023
    __arm_cp.11_3
        0x08005edc:    ffc00000    ....    DCD    4290772992
    __arm_cp.11_4
        0x08005ee0:    000ffff0    ....    DCD    1048560
    $t.20
    fft_adc_rdat_enable
        0x08005ee4:    1e41        A.      SUBS     r1,r0,#1
        0x08005ee6:    4188        .A      SBCS     r0,r0,r1
        0x08005ee8:    0080        ..      LSLS     r0,r0,#2
        0x08005eea:    493c        <I      LDR      r1,[pc,#240] ; [0x8005fdc] = 0x40010000
        0x08005eec:    680a        .h      LDR      r2,[r1,#0]
        0x08005eee:    2304        .#      MOVS     r3,#4
        0x08005ef0:    439a        .C      BICS     r2,r2,r3
        0x08005ef2:    4302        .C      ORRS     r2,r2,r0
        0x08005ef4:    600a        .`      STR      r2,[r1,#0]
        0x08005ef6:    4770        pG      BX       lr
    fft_adc_win_cfg
        0x08005ef8:    b5b0        ..      PUSH     {r4,r5,r7,lr}
        0x08005efa:    2201        ."      MOVS     r2,#1
        0x08005efc:    0414        ..      LSLS     r4,r2,#16
        0x08005efe:    4b0a        .K      LDR      r3,[pc,#40] ; [0x8005f28] = 0x1ffc0
        0x08005f00:    4a16        .J      LDR      r2,[pc,#88] ; [0x8005f5c] = 0x40010004
        0x08005f02:    4d0a        .M      LDR      r5,[pc,#40] ; [0x8005f2c] = 0xfffe003f
        0x08005f04:    2901        .)      CMP      r1,#1
        0x08005f06:    d107        ..      BNE      0x8005f18 ; fft_adc_win_cfg + 32
        0x08005f08:    6811        .h      LDR      r1,[r2,#0]
        0x08005f0a:    4029        )@      ANDS     r1,r1,r5
        0x08005f0c:    0100        ..      LSLS     r0,r0,#4
        0x08005f0e:    1900        ..      ADDS     r0,r0,r4
        0x08005f10:    4018        .@      ANDS     r0,r0,r3
        0x08005f12:    4308        .C      ORRS     r0,r0,r1
        0x08005f14:    6010        .`      STR      r0,[r2,#0]
        0x08005f16:    bdb0        ..      POP      {r4,r5,r7,pc}
        0x08005f18:    6851        Qh      LDR      r1,[r2,#4]
        0x08005f1a:    4029        )@      ANDS     r1,r1,r5
        0x08005f1c:    0100        ..      LSLS     r0,r0,#4
        0x08005f1e:    1900        ..      ADDS     r0,r0,r4
        0x08005f20:    4018        .@      ANDS     r0,r0,r3
        0x08005f22:    4308        .C      ORRS     r0,r0,r1
        0x08005f24:    6050        P`      STR      r0,[r2,#4]
        0x08005f26:    bdb0        ..      POP      {r4,r5,r7,pc}
    $d.13
    __arm_cp.6_0
        0x08005f28:    0001ffc0    ....    DCD    131008
    __arm_cp.6_2
        0x08005f2c:    fffe003f    ?...    DCD    4294836287
    $t.10
    fft_adc_win_enable
        0x08005f30:    4a0a        .J      LDR      r2,[pc,#40] ; [0x8005f5c] = 0x40010004
        0x08005f32:    2901        .)      CMP      r1,#1
        0x08005f34:    d108        ..      BNE      0x8005f48 ; fft_adc_win_enable + 24
        0x08005f36:    1e41        A.      SUBS     r1,r0,#1
        0x08005f38:    4188        .A      SBCS     r0,r0,r1
        0x08005f3a:    0140        @.      LSLS     r0,r0,#5
        0x08005f3c:    6811        .h      LDR      r1,[r2,#0]
        0x08005f3e:    2320         #      MOVS     r3,#0x20
        0x08005f40:    4399        .C      BICS     r1,r1,r3
        0x08005f42:    4301        .C      ORRS     r1,r1,r0
        0x08005f44:    6011        .`      STR      r1,[r2,#0]
        0x08005f46:    4770        pG      BX       lr
        0x08005f48:    1e41        A.      SUBS     r1,r0,#1
        0x08005f4a:    4188        .A      SBCS     r0,r0,r1
        0x08005f4c:    0140        @.      LSLS     r0,r0,#5
        0x08005f4e:    6851        Qh      LDR      r1,[r2,#4]
        0x08005f50:    2320         #      MOVS     r3,#0x20
        0x08005f52:    4399        .C      BICS     r1,r1,r3
        0x08005f54:    4301        .C      ORRS     r1,r1,r0
        0x08005f56:    6051        Q`      STR      r1,[r2,#4]
        0x08005f58:    4770        pG      BX       lr
        0x08005f5a:    46c0        .F      MOV      r8,r8
    $d.11
    __arm_cp.5_0
        0x08005f5c:    40010004    ...@    DCD    1073807364
    $t.14
    fft_dc_cut_enable
        0x08005f60:    1e41        A.      SUBS     r1,r0,#1
        0x08005f62:    4188        .A      SBCS     r0,r0,r1
        0x08005f64:    00c0        ..      LSLS     r0,r0,#3
        0x08005f66:    491d        .I      LDR      r1,[pc,#116] ; [0x8005fdc] = 0x40010000
        0x08005f68:    680a        .h      LDR      r2,[r1,#0]
        0x08005f6a:    2308        .#      MOVS     r3,#8
        0x08005f6c:    439a        .C      BICS     r2,r2,r3
        0x08005f6e:    4302        .C      ORRS     r2,r2,r0
        0x08005f70:    600a        .`      STR      r2,[r1,#0]
        0x08005f72:    4770        pG      BX       lr
    fft_dev_deinit
        0x08005f74:    2001        .       MOVS     r0,#1
        0x08005f76:    43c0        .C      MVNS     r0,r0
        0x08005f78:    4918        .I      LDR      r1,[pc,#96] ; [0x8005fdc] = 0x40010000
        0x08005f7a:    680a        .h      LDR      r2,[r1,#0]
        0x08005f7c:    4002        .@      ANDS     r2,r2,r0
        0x08005f7e:    600a        .`      STR      r2,[r1,#0]
        0x08005f80:    6b4a        Jk      LDR      r2,[r1,#0x34]
        0x08005f82:    2302        .#      MOVS     r3,#2
        0x08005f84:    439a        .C      BICS     r2,r2,r3
        0x08005f86:    634a        Jc      STR      r2,[r1,#0x34]
        0x08005f88:    6b4a        Jk      LDR      r2,[r1,#0x34]
        0x08005f8a:    2304        .#      MOVS     r3,#4
        0x08005f8c:    439a        .C      BICS     r2,r2,r3
        0x08005f8e:    634a        Jc      STR      r2,[r1,#0x34]
        0x08005f90:    6b4a        Jk      LDR      r2,[r1,#0x34]
        0x08005f92:    2308        .#      MOVS     r3,#8
        0x08005f94:    439a        .C      BICS     r2,r2,r3
        0x08005f96:    634a        Jc      STR      r2,[r1,#0x34]
        0x08005f98:    684a        Jh      LDR      r2,[r1,#4]
        0x08005f9a:    4002        .@      ANDS     r2,r2,r0
        0x08005f9c:    604a        J`      STR      r2,[r1,#4]
        0x08005f9e:    688a        .h      LDR      r2,[r1,#8]
        0x08005fa0:    4002        .@      ANDS     r2,r2,r0
        0x08005fa2:    608a        .`      STR      r2,[r1,#8]
        0x08005fa4:    4770        pG      BX       lr
        0x08005fa6:    46c0        .F      MOV      r8,r8
    fft_dev_init
        0x08005fa8:    480c        .H      LDR      r0,[pc,#48] ; [0x8005fdc] = 0x40010000
        0x08005faa:    6802        .h      LDR      r2,[r0,#0]
        0x08005fac:    2101        .!      MOVS     r1,#1
        0x08005fae:    438a        .C      BICS     r2,r2,r1
        0x08005fb0:    6002        .`      STR      r2,[r0,#0]
        0x08005fb2:    6802        .h      LDR      r2,[r0,#0]
        0x08005fb4:    430a        .C      ORRS     r2,r2,r1
        0x08005fb6:    6002        .`      STR      r2,[r0,#0]
        0x08005fb8:    22ff        ."      MOVS     r2,#0xff
        0x08005fba:    0212        ..      LSLS     r2,r2,#8
        0x08005fbc:    6b43        Ck      LDR      r3,[r0,#0x34]
        0x08005fbe:    4313        .C      ORRS     r3,r3,r2
        0x08005fc0:    6343        Cc      STR      r3,[r0,#0x34]
        0x08005fc2:    6b43        Ck      LDR      r3,[r0,#0x34]
        0x08005fc4:    4393        .C      BICS     r3,r3,r2
        0x08005fc6:    6343        Cc      STR      r3,[r0,#0x34]
        0x08005fc8:    6b42        Bk      LDR      r2,[r0,#0x34]
        0x08005fca:    2380        .#      MOVS     r3,#0x80
        0x08005fcc:    4313        .C      ORRS     r3,r3,r2
        0x08005fce:    224e        N"      MOVS     r2,#0x4e
        0x08005fd0:    4393        .C      BICS     r3,r3,r2
        0x08005fd2:    6343        Cc      STR      r3,[r0,#0x34]
        0x08005fd4:    0388        ..      LSLS     r0,r1,#14
        0x08005fd6:    4921        !I      LDR      r1,[pc,#132] ; [0x800605c] = 0xe000e100
        0x08005fd8:    6008        .`      STR      r0,[r1,#0]
        0x08005fda:    4770        pG      BX       lr
    $d.1
    __arm_cp.0_0
        0x08005fdc:    40010000    ...@    DCD    1073807360
    $t.16
    fft_input_data_type_set
        0x08005fe0:    495d        ]I      LDR      r1,[pc,#372] ; [0x8006158] = 0x40010014
        0x08005fe2:    680a        .h      LDR      r2,[r1,#0]
        0x08005fe4:    2304        .#      MOVS     r3,#4
        0x08005fe6:    439a        .C      BICS     r2,r2,r3
        0x08005fe8:    07c0        ..      LSLS     r0,r0,#31
        0x08005fea:    0f40        @.      LSRS     r0,r0,#29
        0x08005fec:    1810        ..      ADDS     r0,r2,r0
        0x08005fee:    6008        .`      STR      r0,[r1,#0]
        0x08005ff0:    4770        pG      BX       lr
        0x08005ff2:    46c0        .F      MOV      r8,r8
    fft_irq_callback_set
        0x08005ff4:    4927        'I      LDR      r1,[pc,#156] ; [0x8006094] = 0x200011b8
        0x08005ff6:    6008        .`      STR      r0,[r1,#0]
        0x08005ff8:    4770        pG      BX       lr
        0x08005ffa:    46c0        .F      MOV      r8,r8
    fft_irq_enable
        0x08005ffc:    4a13        .J      LDR      r2,[pc,#76] ; [0x800604c] = 0x40010034
        0x08005ffe:    2800        .(      CMP      r0,#0
        0x08006000:    d010        ..      BEQ      0x8006024 ; fft_irq_enable + 40
        0x08006002:    1e4b        K.      SUBS     r3,r1,#1
        0x08006004:    b2d9        ..      UXTB     r1,r3
        0x08006006:    2001        .       MOVS     r0,#1
        0x08006008:    2902        .)      CMP      r1,#2
        0x0800600a:    4601        .F      MOV      r1,r0
        0x0800600c:    d803        ..      BHI      0x8006016 ; fft_irq_enable + 26
        0x0800600e:    b259        Y.      SXTB     r1,r3
        0x08006010:    0089        ..      LSLS     r1,r1,#2
        0x08006012:    a30f        ..      ADR      r3,{pc}+0x3e ; 0x8006050
        0x08006014:    5859        YX      LDR      r1,[r3,r1]
        0x08006016:    6813        .h      LDR      r3,[r2,#0]
        0x08006018:    430b        .C      ORRS     r3,r3,r1
        0x0800601a:    6013        .`      STR      r3,[r2,#0]
        0x0800601c:    0380        ..      LSLS     r0,r0,#14
        0x0800601e:    490f        .I      LDR      r1,[pc,#60] ; [0x800605c] = 0xe000e100
        0x08006020:    6008        .`      STR      r0,[r1,#0]
        0x08006022:    4770        pG      BX       lr
        0x08006024:    2903        .)      CMP      r1,#3
        0x08006026:    d006        ..      BEQ      0x8006036 ; fft_irq_enable + 58
        0x08006028:    2902        .)      CMP      r1,#2
        0x0800602a:    d007        ..      BEQ      0x800603c ; fft_irq_enable + 64
        0x0800602c:    2901        .)      CMP      r1,#1
        0x0800602e:    d108        ..      BNE      0x8006042 ; fft_irq_enable + 70
        0x08006030:    6810        .h      LDR      r0,[r2,#0]
        0x08006032:    2102        .!      MOVS     r1,#2
        0x08006034:    e007        ..      B        0x8006046 ; fft_irq_enable + 74
        0x08006036:    6810        .h      LDR      r0,[r2,#0]
        0x08006038:    2108        .!      MOVS     r1,#8
        0x0800603a:    e004        ..      B        0x8006046 ; fft_irq_enable + 74
        0x0800603c:    6810        .h      LDR      r0,[r2,#0]
        0x0800603e:    2104        .!      MOVS     r1,#4
        0x08006040:    e001        ..      B        0x8006046 ; fft_irq_enable + 74
        0x08006042:    6810        .h      LDR      r0,[r2,#0]
        0x08006044:    2101        .!      MOVS     r1,#1
        0x08006046:    4388        .C      BICS     r0,r0,r1
        0x08006048:    6010        .`      STR      r0,[r2,#0]
        0x0800604a:    4770        pG      BX       lr
    $d.3
    __arm_cp.1_0
        0x0800604c:    40010034    4..@    DCD    1073807412
        0x08006050:    00000002    ....    DCD    2
        0x08006054:    00000004    ....    DCD    4
        0x08006058:    00000008    ....    DCD    8
    __arm_cp.1_2
        0x0800605c:    e000e100    ....    DCD    3758153984
    $t.40
    fft_isr
        0x08006060:    b5f0        ..      PUSH     {r4-r7,lr}
        0x08006062:    b081        ..      SUB      sp,sp,#4
        0x08006064:    4604        .F      MOV      r4,r0
        0x08006066:    2500        .%      MOVS     r5,#0
        0x08006068:    4e09        .N      LDR      r6,[pc,#36] ; [0x8006090] = 0x40010034
        0x0800606a:    4f0a        .O      LDR      r7,[pc,#40] ; [0x8006094] = 0x200011b8
        0x0800606c:    4620         F      MOV      r0,r4
        0x0800606e:    40e8        .@      LSRS     r0,r0,r5
        0x08006070:    07c0        ..      LSLS     r0,r0,#31
        0x08006072:    d008        ..      BEQ      0x8006086 ; fft_isr + 38
        0x08006074:    6839        9h      LDR      r1,[r7,#0]
        0x08006076:    b2e8        ..      UXTB     r0,r5
        0x08006078:    4788        .G      BLX      r1
        0x0800607a:    2001        .       MOVS     r0,#1
        0x0800607c:    0200        ..      LSLS     r0,r0,#8
        0x0800607e:    40a8        .@      LSLS     r0,r0,r5
        0x08006080:    6831        1h      LDR      r1,[r6,#0]
        0x08006082:    4301        .C      ORRS     r1,r1,r0
        0x08006084:    6031        1`      STR      r1,[r6,#0]
        0x08006086:    1c6d        m.      ADDS     r5,r5,#1
        0x08006088:    2d04        .-      CMP      r5,#4
        0x0800608a:    d1ef        ..      BNE      0x800606c ; fft_isr + 12
        0x0800608c:    b001        ..      ADD      sp,sp,#4
        0x0800608e:    bdf0        ..      POP      {r4-r7,pc}
    $d.41
    __arm_cp.20_0
        0x08006090:    40010034    4..@    DCD    1073807412
    __arm_cp.20_1
        0x08006094:    200011b8    ...     DCD    536875448
    $t.36
    fft_user_fft_cfg
        0x08006098:    b5f0        ..      PUSH     {r4-r7,lr}
        0x0800609a:    0884        ..      LSRS     r4,r0,#2
        0x0800609c:    2508        .%      MOVS     r5,#8
        0x0800609e:    4025        %@      ANDS     r5,r5,r4
        0x080060a0:    070c        ..      LSLS     r4,r1,#28
        0x080060a2:    0a24        $.      LSRS     r4,r4,#8
        0x080060a4:    0106        ..      LSLS     r6,r0,#4
        0x080060a6:    b2f6        ..      UXTB     r6,r6
        0x080060a8:    1934        4.      ADDS     r4,r6,r4
        0x080060aa:    1965        e.      ADDS     r5,r4,r5
        0x080060ac:    4c2a        *L      LDR      r4,[pc,#168] ; [0x8006158] = 0x40010014
        0x080060ae:    6826        &h      LDR      r6,[r4,#0]
        0x080060b0:    4f10        .O      LDR      r7,[pc,#64] ; [0x80060f4] = 0xff0fff07
        0x080060b2:    4037        7@      ANDS     r7,r7,r6
        0x080060b4:    19ed        ..      ADDS     r5,r5,r7
        0x080060b6:    6025        %`      STR      r5,[r4,#0]
        0x080060b8:    0c09        ..      LSRS     r1,r1,#16
        0x080060ba:    1e49        I.      SUBS     r1,r1,#1
        0x080060bc:    4d0e        .M      LDR      r5,[pc,#56] ; [0x80060f8] = 0x3ff
        0x080060be:    400d        .@      ANDS     r5,r5,r1
        0x080060c0:    0511        ..      LSLS     r1,r2,#20
        0x080060c2:    4a0e        .J      LDR      r2,[pc,#56] ; [0x80060fc] = 0x3ff00000
        0x080060c4:    1889        ..      ADDS     r1,r1,r2
        0x080060c6:    4011        .@      ANDS     r1,r1,r2
        0x080060c8:    1949        I.      ADDS     r1,r1,r5
        0x080060ca:    0980        ..      LSRS     r0,r0,#6
        0x080060cc:    4a0c        .J      LDR      r2,[pc,#48] ; [0x8006100] = 0xffc00
        0x080060ce:    4010        .@      ANDS     r0,r0,r2
        0x080060d0:    1880        ..      ADDS     r0,r0,r2
        0x080060d2:    4010        .@      ANDS     r0,r0,r2
        0x080060d4:    1808        ..      ADDS     r0,r1,r0
        0x080060d6:    6060        ``      STR      r0,[r4,#4]
        0x080060d8:    2003        .       MOVS     r0,#3
        0x080060da:    0781        ..      LSLS     r1,r0,#30
        0x080060dc:    9a05        ..      LDR      r2,[sp,#0x14]
        0x080060de:    0392        ..      LSLS     r2,r2,#14
        0x080060e0:    1851        Q.      ADDS     r1,r2,r1
        0x080060e2:    4aae        .J      LDR      r2,[pc,#696] ; [0x800639c] = 0xffff0000
        0x080060e4:    400a        .@      ANDS     r2,r2,r1
        0x080060e6:    0400        ..      LSLS     r0,r0,#16
        0x080060e8:    1818        ..      ADDS     r0,r3,r0
        0x080060ea:    0880        ..      LSRS     r0,r0,#2
        0x080060ec:    b280        ..      UXTH     r0,r0
        0x080060ee:    1880        ..      ADDS     r0,r0,r2
        0x080060f0:    60a0        .`      STR      r0,[r4,#8]
        0x080060f2:    bdf0        ..      POP      {r4-r7,pc}
    $d.37
    __arm_cp.18_1
        0x080060f4:    ff0fff07    ....    DCD    4279238407
    __arm_cp.18_2
        0x080060f8:    000003ff    ....    DCD    1023
    __arm_cp.18_3
        0x080060fc:    3ff00000    ...?    DCD    1072693248
    __arm_cp.18_4
        0x08006100:    000ffc00    ....    DCD    1047552
    __arm_cp.18_5
        0x08006104:    ffff0000    ....    DCD    4294901760
    $t.38
    fft_user_fft_start
        0x08006108:    4813        .H      LDR      r0,[pc,#76] ; [0x8006158] = 0x40010014
        0x0800610a:    6801        .h      LDR      r1,[r0,#0]
        0x0800610c:    2202        ."      MOVS     r2,#2
        0x0800610e:    4311        .C      ORRS     r1,r1,r2
        0x08006110:    6001        .`      STR      r1,[r0,#0]
        0x08006112:    6801        .h      LDR      r1,[r0,#0]
        0x08006114:    4391        .C      BICS     r1,r1,r2
        0x08006116:    6001        .`      STR      r1,[r0,#0]
        0x08006118:    4770        pG      BX       lr
        0x0800611a:    46c0        .F      MOV      r8,r8
    fft_user_win_cfg
        0x0800611c:    490e        .I      LDR      r1,[pc,#56] ; [0x8006158] = 0x40010014
        0x0800611e:    680a        .h      LDR      r2,[r1,#0]
        0x08006120:    4b05        .K      LDR      r3,[pc,#20] ; [0x8006138] = 0xfff001ff
        0x08006122:    4013        .@      ANDS     r3,r3,r2
        0x08006124:    2201        ."      MOVS     r2,#1
        0x08006126:    04d2        ..      LSLS     r2,r2,#19
        0x08006128:    01c0        ..      LSLS     r0,r0,#7
        0x0800612a:    1880        ..      ADDS     r0,r0,r2
        0x0800612c:    4a03        .J      LDR      r2,[pc,#12] ; [0x800613c] = 0xffe00
        0x0800612e:    4002        .@      ANDS     r2,r2,r0
        0x08006130:    1898        ..      ADDS     r0,r3,r2
        0x08006132:    6008        .`      STR      r0,[r1,#0]
        0x08006134:    4770        pG      BX       lr
        0x08006136:    46c0        .F      MOV      r8,r8
    $d.9
    __arm_cp.4_1
        0x08006138:    fff001ff    ....    DCD    4293919231
    __arm_cp.4_2
        0x0800613c:    000ffe00    ....    DCD    1048064
    $t.6
    fft_user_win_enable
        0x08006140:    1e41        A.      SUBS     r1,r0,#1
        0x08006142:    4188        .A      SBCS     r0,r0,r1
        0x08006144:    0200        ..      LSLS     r0,r0,#8
        0x08006146:    2101        .!      MOVS     r1,#1
        0x08006148:    0209        ..      LSLS     r1,r1,#8
        0x0800614a:    4a03        .J      LDR      r2,[pc,#12] ; [0x8006158] = 0x40010014
        0x0800614c:    6813        .h      LDR      r3,[r2,#0]
        0x0800614e:    438b        .C      BICS     r3,r3,r1
        0x08006150:    4303        .C      ORRS     r3,r3,r0
        0x08006152:    6013        .`      STR      r3,[r2,#0]
        0x08006154:    4770        pG      BX       lr
        0x08006156:    46c0        .F      MOV      r8,r8
    $d.7
    __arm_cp.3_0
        0x08006158:    40010014    ...@    DCD    1073807380
    $t.42
    fmcw_afc_freq_set
        0x0800615c:    b570        p.      PUSH     {r4-r6,lr}
        0x0800615e:    4d15        .M      LDR      r5,[pc,#84] ; [0x80061b4] = 0x4010303c
        0x08006160:    7829        )x      LDRB     r1,[r5,#0]
        0x08006162:    247f        .$      MOVS     r4,#0x7f
        0x08006164:    4021        !@      ANDS     r1,r1,r4
        0x08006166:    7029        )p      STRB     r1,[r5,#0]
        0x08006168:    0080        ..      LSLS     r0,r0,#2
        0x0800616a:    a113        ..      ADR      r1,{pc}+0x4e ; 0x80061b8
        0x0800616c:    5808        .X      LDR      r0,[r1,r0]
        0x0800616e:    4e14        .N      LDR      r6,[pc,#80] ; [0x80061c0] = 0x40103061
        0x08006170:    7070        pp      STRB     r0,[r6,#1]
        0x08006172:    0a01        ..      LSRS     r1,r0,#8
        0x08006174:    70b1        .p      STRB     r1,[r6,#2]
        0x08006176:    03c0        ..      LSLS     r0,r0,#15
        0x08006178:    0fc0        ..      LSRS     r0,r0,#31
        0x0800617a:    70f0        .p      STRB     r0,[r6,#3]
        0x0800617c:    f7fcfbac    ....    BL       clock_xtal_type_get ; 0x80028d8
        0x08006180:    0040        @.      LSLS     r0,r0,#1
        0x08006182:    a110        ..      ADR      r1,{pc}+0x42 ; 0x80061c4
        0x08006184:    5a08        .Z      LDRH     r0,[r1,r0]
        0x08006186:    7130        0q      STRB     r0,[r6,#4]
        0x08006188:    05c0        ..      LSLS     r0,r0,#23
        0x0800618a:    0fc0        ..      LSRS     r0,r0,#31
        0x0800618c:    3010        .0      ADDS     r0,r0,#0x10
        0x0800618e:    7170        pq      STRB     r0,[r6,#5]
        0x08006190:    7830        0x      LDRB     r0,[r6,#0]
        0x08006192:    2101        .!      MOVS     r1,#1
        0x08006194:    4301        .C      ORRS     r1,r1,r0
        0x08006196:    7031        1p      STRB     r1,[r6,#0]
        0x08006198:    79b0        .y      LDRB     r0,[r6,#6]
        0x0800619a:    07c0        ..      LSLS     r0,r0,#31
        0x0800619c:    d0fc        ..      BEQ      0x8006198 ; fmcw_afc_freq_set + 60
        0x0800619e:    7830        0x      LDRB     r0,[r6,#0]
        0x080061a0:    21fe        .!      MOVS     r1,#0xfe
        0x080061a2:    4001        .@      ANDS     r1,r1,r0
        0x080061a4:    7031        1p      STRB     r1,[r6,#0]
        0x080061a6:    79f0        .y      LDRB     r0,[r6,#7]
        0x080061a8:    2180        .!      MOVS     r1,#0x80
        0x080061aa:    4301        .C      ORRS     r1,r1,r0
        0x080061ac:    7029        )p      STRB     r1,[r5,#0]
        0x080061ae:    4004        .@      ANDS     r4,r4,r0
        0x080061b0:    4620         F      MOV      r0,r4
        0x080061b2:    bd70        p.      POP      {r4-r6,pc}
    $d.43
    __arm_cp.21_0
        0x080061b4:    4010303c    <0.@    DCD    1074802748
    fmcw_afc_freq_set.cfg_Ntarget
        0x080061b8:    00009625    %...    DCD    38437
        0x080061bc:    00009143    C...    DCD    37187
    __arm_cp.21_2
        0x080061c0:    40103061    a0.@    DCD    1074802785
    fmcw_afc_freq_set.cfg_delay_cycle
        0x080061c4:    018601d6    ....    DCD    25559510
    $t.16
    pmu_clk_dcdc_set
        0x080061c8:    b570        p.      PUSH     {r4-r6,lr}
        0x080061ca:    4604        .F      MOV      r4,r0
        0x080061cc:    4d0e        .M      LDR      r5,[pc,#56] ; [0x8006208] = 0x40103405
        0x080061ce:    1f6e        n.      SUBS     r6,r5,#5
        0x080061d0:    f7fcfc22    ..".    BL       xtal_freq_get ; 0x8002a18
        0x080061d4:    7831        1x      LDRB     r1,[r6,#0]
        0x080061d6:    2208        ."      MOVS     r2,#8
        0x080061d8:    430a        .C      ORRS     r2,r2,r1
        0x080061da:    7032        2p      STRB     r2,[r6,#0]
        0x080061dc:    1900        ..      ADDS     r0,r0,r4
        0x080061de:    0840        @.      LSRS     r0,r0,#1
        0x080061e0:    4621        !F      MOV      r1,r4
        0x080061e2:    f7fdfc64    ..d.    BL       __aeabi_uidiv ; 0x8003aae
        0x080061e6:    7829        )x      LDRB     r1,[r5,#0]
        0x080061e8:    2207        ."      MOVS     r2,#7
        0x080061ea:    400a        .@      ANDS     r2,r2,r1
        0x080061ec:    00c0        ..      LSLS     r0,r0,#3
        0x080061ee:    1880        ..      ADDS     r0,r0,r2
        0x080061f0:    3808        .8      SUBS     r0,r0,#8
        0x080061f2:    7028        (p      STRB     r0,[r5,#0]
        0x080061f4:    7828        (x      LDRB     r0,[r5,#0]
        0x080061f6:    2102        .!      MOVS     r1,#2
        0x080061f8:    4301        .C      ORRS     r1,r1,r0
        0x080061fa:    7029        )p      STRB     r1,[r5,#0]
        0x080061fc:    7828        (x      LDRB     r0,[r5,#0]
        0x080061fe:    21fd        .!      MOVS     r1,#0xfd
        0x08006200:    4001        .@      ANDS     r1,r1,r0
        0x08006202:    7029        )p      STRB     r1,[r5,#0]
        0x08006204:    bd70        p.      POP      {r4-r6,pc}
        0x08006206:    46c0        .F      MOV      r8,r8
    $d.17
    __arm_cp.8_0
        0x08006208:    40103405    .4.@    DCD    1074803717
    $t.8
    pmu_por_osc_disable
        0x0800620c:    4802        .H      LDR      r0,[pc,#8] ; [0x8006218] = 0x4010344a
        0x0800620e:    7801        .x      LDRB     r1,[r0,#0]
        0x08006210:    22df        ."      MOVS     r2,#0xdf
        0x08006212:    400a        .@      ANDS     r2,r2,r1
        0x08006214:    7002        .p      STRB     r2,[r0,#0]
        0x08006216:    4770        pG      BX       lr
    $d.9
    __arm_cp.4_0
        0x08006218:    4010344a    J4.@    DCD    1074803786
    $t.10
    pmu_rf_pwr_on
        0x0800621c:    4802        .H      LDR      r0,[pc,#8] ; [0x8006228] = 0x40103466
        0x0800621e:    7801        .x      LDRB     r1,[r0,#0]
        0x08006220:    2280        ."      MOVS     r2,#0x80
        0x08006222:    430a        .C      ORRS     r2,r2,r1
        0x08006224:    7002        .p      STRB     r2,[r0,#0]
        0x08006226:    4770        pG      BX       lr
    $d.11
    __arm_cp.5_0
        0x08006228:    40103466    f4.@    DCD    1074803814
    $t.52
    pmu_set_dig_vcore
        0x0800622c:    2107        .!      MOVS     r1,#7
        0x0800622e:    4001        .@      ANDS     r1,r1,r0
        0x08006230:    4803        .H      LDR      r0,[pc,#12] ; [0x8006240] = 0x4010344f
        0x08006232:    7802        .x      LDRB     r2,[r0,#0]
        0x08006234:    23f8        .#      MOVS     r3,#0xf8
        0x08006236:    4013        .@      ANDS     r3,r3,r2
        0x08006238:    1859        Y.      ADDS     r1,r3,r1
        0x0800623a:    7001        .p      STRB     r1,[r0,#0]
        0x0800623c:    4770        pG      BX       lr
        0x0800623e:    46c0        .F      MOV      r8,r8
    $d.53
    __arm_cp.26_0
        0x08006240:    4010344f    O4.@    DCD    1074803791
    $t.48
    radar_ant_rx_num_get
        0x08006244:    4809        .H      LDR      r0,[pc,#36] ; [0x800626c] = 0x20001278
        0x08006246:    7800        .x      LDRB     r0,[r0,#0]
        0x08006248:    4770        pG      BX       lr
        0x0800624a:    46c0        .F      MOV      r8,r8
    radar_ant_rx_num_set
        0x0800624c:    1e40        @.      SUBS     r0,r0,#1
        0x0800624e:    1e41        A.      SUBS     r1,r0,#1
        0x08006250:    4188        .A      SBCS     r0,r0,r1
        0x08006252:    4906        .I      LDR      r1,[pc,#24] ; [0x800626c] = 0x20001278
        0x08006254:    7008        .p      STRB     r0,[r1,#0]
        0x08006256:    4770        pG      BX       lr
    radar_burst_init
        0x08006258:    b510        ..      PUSH     {r4,lr}
        0x0800625a:    4604        .F      MOV      r4,r0
        0x0800625c:    2001        .       MOVS     r0,#1
        0x0800625e:    4601        .F      MOV      r1,r0
        0x08006260:    f7fcfc7c    ..|.    BL       sys_clk_adc_sdm_inv_set ; 0x8002b5c
        0x08006264:    4801        .H      LDR      r0,[pc,#4] ; [0x800626c] = 0x20001278
        0x08006266:    7004        .p      STRB     r4,[r0,#0]
        0x08006268:    bd10        ..      POP      {r4,pc}
        0x0800626a:    46c0        .F      MOV      r8,r8
    $d.37
    __arm_cp.18_0
        0x0800626c:    20001278    x..     DCD    536875640
    $t.0
    radar_chirp_profile_config
        0x08006270:    b5f0        ..      PUSH     {r4-r7,lr}
        0x08006272:    b08d        ..      SUB      sp,sp,#0x34
        0x08006274:    460f        .F      MOV      r7,r1
        0x08006276:    9004        ..      STR      r0,[sp,#0x10]
        0x08006278:    6809        .h      LDR      r1,[r1,#0]
        0x0800627a:    6878        xh      LDR      r0,[r7,#4]
        0x0800627c:    9005        ..      STR      r0,[sp,#0x14]
        0x0800627e:    68b8        .h      LDR      r0,[r7,#8]
        0x08006280:    9001        ..      STR      r0,[sp,#4]
        0x08006282:    68fe        .h      LDR      r6,[r7,#0xc]
        0x08006284:    693c        <i      LDR      r4,[r7,#0x10]
        0x08006286:    9606        ..      STR      r6,[sp,#0x18]
        0x08006288:    4366        fC      MULS     r6,r4,r6
        0x0800628a:    6a38        8j      LDR      r0,[r7,#0x20]
        0x0800628c:    900a        ..      STR      r0,[sp,#0x28]
        0x0800628e:    6a78        xj      LDR      r0,[r7,#0x24]
        0x08006290:    6abd        .j      LDR      r5,[r7,#0x28]
        0x08006292:    69bb        .i      LDR      r3,[r7,#0x18]
        0x08006294:    2200        ."      MOVS     r2,#0
        0x08006296:    910c        ..      STR      r1,[sp,#0x30]
        0x08006298:    428d        .B      CMP      r5,r1
        0x0800629a:    900b        ..      STR      r0,[sp,#0x2c]
        0x0800629c:    9308        ..      STR      r3,[sp,#0x20]
        0x0800629e:    9407        ..      STR      r4,[sp,#0x1c]
        0x080062a0:    d91d        ..      BLS      0x80062de ; radar_chirp_profile_config + 110
        0x080062a2:    6af8        .j      LDR      r0,[r7,#0x2c]
        0x080062a4:    9009        ..      STR      r0,[sp,#0x24]
        0x080062a6:    207d        }       MOVS     r0,#0x7d
        0x080062a8:    00c1        ..      LSLS     r1,r0,#3
        0x080062aa:    4630        0F      MOV      r0,r6
        0x080062ac:    4614        .F      MOV      r4,r2
        0x080062ae:    f7fdfbfe    ....    BL       __aeabi_uidiv ; 0x8003aae
        0x080062b2:    4622        "F      MOV      r2,r4
        0x080062b4:    990c        ..      LDR      r1,[sp,#0x30]
        0x080062b6:    1840        @.      ADDS     r0,r0,r1
        0x080062b8:    4285        .B      CMP      r5,r0
        0x080062ba:    4621        !F      MOV      r1,r4
        0x080062bc:    462c        ,F      MOV      r4,r5
        0x080062be:    d810        ..      BHI      0x80062e2 ; radar_chirp_profile_config + 114
        0x080062c0:    00e0        ..      LSLS     r0,r4,#3
        0x080062c2:    1d00        ..      ADDS     r0,r0,#4
        0x080062c4:    210a        .!      MOVS     r1,#0xa
        0x080062c6:    f7fdfbf2    ....    BL       __aeabi_uidiv ; 0x8003aae
        0x080062ca:    4602        .F      MOV      r2,r0
        0x080062cc:    9909        ..      LDR      r1,[sp,#0x24]
        0x080062ce:    2900        .)      CMP      r1,#0
        0x080062d0:    d002        ..      BEQ      0x80062d8 ; radar_chirp_profile_config + 104
        0x080062d2:    0408        ..      LSLS     r0,r1,#16
        0x080062d4:    49d0        .I      LDR      r1,[pc,#832] ; [0x8006618] = 0xffff0000
        0x080062d6:    1841        A.      ADDS     r1,r0,r1
        0x080062d8:    2001        .       MOVS     r0,#1
        0x080062da:    4302        .C      ORRS     r2,r2,r0
        0x080062dc:    e001        ..      B        0x80062e2 ; radar_chirp_profile_config + 114
        0x080062de:    4611        .F      MOV      r1,r2
        0x080062e0:    462c        ,F      MOV      r4,r5
        0x080062e2:    2027        '       MOVS     r0,#0x27
        0x080062e4:    01c3        ..      LSLS     r3,r0,#7
        0x080062e6:    7d38        8}      LDRB     r0,[r7,#0x14]
        0x080062e8:    2800        .(      CMP      r0,#0
        0x080062ea:    9209        ..      STR      r2,[sp,#0x24]
        0x080062ec:    9103        ..      STR      r1,[sp,#0xc]
        0x080062ee:    9302        ..      STR      r3,[sp,#8]
        0x080062f0:    d010        ..      BEQ      0x8006314 ; radar_chirp_profile_config + 164
        0x080062f2:    2a00        .*      CMP      r2,#0
        0x080062f4:    9d0c        ..      LDR      r5,[sp,#0x30]
        0x080062f6:    d003        ..      BEQ      0x8006300 ; radar_chirp_profile_config + 144
        0x080062f8:    1b60        `.      SUBS     r0,r4,r5
        0x080062fa:    217d        }!      MOVS     r1,#0x7d
        0x080062fc:    00ce        ..      LSLS     r6,r1,#3
        0x080062fe:    4346        FC      MULS     r6,r0,r6
        0x08006300:    0170        p.      LSLS     r0,r6,#5
        0x08006302:    1818        ..      ADDS     r0,r3,r0
        0x08006304:    3008        .0      ADDS     r0,r0,#8
        0x08006306:    4926        &I      LDR      r1,[pc,#152] ; [0x80063a0] = 0x2710
        0x08006308:    f7fdfbd1    ....    BL       __aeabi_uidiv ; 0x8003aae
        0x0800630c:    0040        @.      LSLS     r0,r0,#1
        0x0800630e:    1c44        D.      ADDS     r4,r0,#1
        0x08006310:    9f01        ..      LDR      r7,[sp,#4]
        0x08006312:    e009        ..      B        0x8006328 ; radar_chirp_profile_config + 184
        0x08006314:    69f8        .i      LDR      r0,[r7,#0x1c]
        0x08006316:    0340        @.      LSLS     r0,r0,#13
        0x08006318:    18c0        ..      ADDS     r0,r0,r3
        0x0800631a:    4921        !I      LDR      r1,[pc,#132] ; [0x80063a0] = 0x2710
        0x0800631c:    f7fdfbc7    ....    BL       __aeabi_uidiv ; 0x8003aae
        0x08006320:    4c20         L      LDR      r4,[pc,#128] ; [0x80063a4] = 0x7fffe
        0x08006322:    4004        .@      ANDS     r4,r4,r0
        0x08006324:    9f01        ..      LDR      r7,[sp,#4]
        0x08006326:    9d0c        ..      LDR      r5,[sp,#0x30]
        0x08006328:    0b69        i.      LSRS     r1,r5,#13
        0x0800632a:    04e8        ..      LSLS     r0,r5,#19
        0x0800632c:    1d00        ..      ADDS     r0,r0,#4
        0x0800632e:    220a        ."      MOVS     r2,#0xa
        0x08006330:    2600        .&      MOVS     r6,#0
        0x08006332:    4633        3F      MOV      r3,r6
        0x08006334:    f7fdfa1f    ....    BL       __aeabi_uldivmod ; 0x8003776
        0x08006338:    9904        ..      LDR      r1,[sp,#0x10]
        0x0800633a:    0149        I.      LSLS     r1,r1,#5
        0x0800633c:    4a1a        .J      LDR      r2,[pc,#104] ; [0x80063a8] = 0x40012800
        0x0800633e:    5088        .P      STR      r0,[r1,r2]
        0x08006340:    188d        ..      ADDS     r5,r1,r2
        0x08006342:    0438        8.      LSLS     r0,r7,#16
        0x08006344:    4fb4        .O      LDR      r7,[pc,#720] ; [0x8006618] = 0xffff0000
        0x08006346:    19c0        ..      ADDS     r0,r0,r7
        0x08006348:    9905        ..      LDR      r1,[sp,#0x14]
        0x0800634a:    1e49        I.      SUBS     r1,r1,#1
        0x0800634c:    b289        ..      UXTH     r1,r1
        0x0800634e:    4301        .C      ORRS     r1,r1,r0
        0x08006350:    6069        i`      STR      r1,[r5,#4]
        0x08006352:    9806        ..      LDR      r0,[sp,#0x18]
        0x08006354:    0340        @.      LSLS     r0,r0,#13
        0x08006356:    9902        ..      LDR      r1,[sp,#8]
        0x08006358:    1840        @.      ADDS     r0,r0,r1
        0x0800635a:    4911        .I      LDR      r1,[pc,#68] ; [0x80063a0] = 0x2710
        0x0800635c:    f7fdfba7    ....    BL       __aeabi_uidiv ; 0x8003aae
        0x08006360:    9907        ..      LDR      r1,[sp,#0x1c]
        0x08006362:    0409        ..      LSLS     r1,r1,#16
        0x08006364:    19c9        ..      ADDS     r1,r1,r7
        0x08006366:    b280        ..      UXTH     r0,r0
        0x08006368:    4308        .C      ORRS     r0,r0,r1
        0x0800636a:    60a8        .`      STR      r0,[r5,#8]
        0x0800636c:    0420         .      LSLS     r0,r4,#16
        0x0800636e:    9908        ..      LDR      r1,[sp,#0x20]
        0x08006370:    1e49        I.      SUBS     r1,r1,#1
        0x08006372:    b289        ..      UXTH     r1,r1
        0x08006374:    1840        @.      ADDS     r0,r0,r1
        0x08006376:    60e8        .`      STR      r0,[r5,#0xc]
        0x08006378:    980a        ..      LDR      r0,[sp,#0x28]
        0x0800637a:    1e40        @.      SUBS     r0,r0,#1
        0x0800637c:    b280        ..      UXTH     r0,r0
        0x0800637e:    6128        (a      STR      r0,[r5,#0x10]
        0x08006380:    20ff        .       MOVS     r0,#0xff
        0x08006382:    0600        ..      LSLS     r0,r0,#24
        0x08006384:    990b        ..      LDR      r1,[sp,#0x2c]
        0x08006386:    4381        .C      BICS     r1,r1,r0
        0x08006388:    6169        ia      STR      r1,[r5,#0x14]
        0x0800638a:    61ae        .a      STR      r6,[r5,#0x18]
        0x0800638c:    9809        ..      LDR      r0,[sp,#0x24]
        0x0800638e:    b280        ..      UXTH     r0,r0
        0x08006390:    9903        ..      LDR      r1,[sp,#0xc]
        0x08006392:    4308        .C      ORRS     r0,r0,r1
        0x08006394:    61e8        .a      STR      r0,[r5,#0x1c]
        0x08006396:    b00d        ..      ADD      sp,sp,#0x34
        0x08006398:    bdf0        ..      POP      {r4-r7,pc}
        0x0800639a:    46c0        .F      MOV      r8,r8
    $d.1
    __arm_cp.0_0
        0x0800639c:    ffff0000    ....    DCD    4294901760
    __arm_cp.0_1
        0x080063a0:    00002710    .'..    DCD    10000
    __arm_cp.0_2
        0x080063a4:    0007fffe    ....    DCD    524286
    __arm_cp.0_3
        0x080063a8:    40012800    .(.@    DCD    1073817600
    $t.30
    radar_deinit
        0x080063ac:    b5f0        ..      PUSH     {r4-r7,lr}
        0x080063ae:    b082        ..      SUB      sp,sp,#8
        0x080063b0:    4936        6I      LDR      r1,[pc,#216] ; [0x800648c] = 0x40103021
        0x080063b2:    7a4a        Jz      LDRB     r2,[r1,#9]
        0x080063b4:    23bb        .#      MOVS     r3,#0xbb
        0x080063b6:    4013        .@      ANDS     r3,r3,r2
        0x080063b8:    724b        Kr      STRB     r3,[r1,#9]
        0x080063ba:    7bca        .{      LDRB     r2,[r1,#0xf]
        0x080063bc:    23ef        .#      MOVS     r3,#0xef
        0x080063be:    9300        ..      STR      r3,[sp,#0]
        0x080063c0:    401a        .@      ANDS     r2,r2,r3
        0x080063c2:    73ca        .s      STRB     r2,[r1,#0xf]
        0x080063c4:    7e8a        .~      LDRB     r2,[r1,#0x1a]
        0x080063c6:    25de        .%      MOVS     r5,#0xde
        0x080063c8:    402a        *@      ANDS     r2,r2,r5
        0x080063ca:    768a        .v      STRB     r2,[r1,#0x1a]
        0x080063cc:    7f0c        ..      LDRB     r4,[r1,#0x1c]
        0x080063ce:    22fe        ."      MOVS     r2,#0xfe
        0x080063d0:    4014        .@      ANDS     r4,r4,r2
        0x080063d2:    770c        .w      STRB     r4,[r1,#0x1c]
        0x080063d4:    7fcc        ..      LDRB     r4,[r1,#0x1f]
        0x080063d6:    267f        .&      MOVS     r6,#0x7f
        0x080063d8:    4026        &@      ANDS     r6,r6,r4
        0x080063da:    77ce        .w      STRB     r6,[r1,#0x1f]
        0x080063dc:    4c2c        ,L      LDR      r4,[pc,#176] ; [0x8006490] = 0x40103041
        0x080063de:    7826        &x      LDRB     r6,[r4,#0]
        0x080063e0:    4016        .@      ANDS     r6,r6,r2
        0x080063e2:    7026        &p      STRB     r6,[r4,#0]
        0x080063e4:    4c2b        +L      LDR      r4,[pc,#172] ; [0x8006494] = 0x40103000
        0x080063e6:    7ee6        .~      LDRB     r6,[r4,#0x1b]
        0x080063e8:    4016        .@      ANDS     r6,r6,r2
        0x080063ea:    76e6        .v      STRB     r6,[r4,#0x1b]
        0x080063ec:    7f26        &.      LDRB     r6,[r4,#0x1c]
        0x080063ee:    27df        .'      MOVS     r7,#0xdf
        0x080063f0:    4037        7@      ANDS     r7,r7,r6
        0x080063f2:    7727        'w      STRB     r7,[r4,#0x1c]
        0x080063f4:    7f67        g.      LDRB     r7,[r4,#0x1d]
        0x080063f6:    26bf        .&      MOVS     r6,#0xbf
        0x080063f8:    4037        7@      ANDS     r7,r7,r6
        0x080063fa:    7767        gw      STRB     r7,[r4,#0x1d]
        0x080063fc:    7e8f        .~      LDRB     r7,[r1,#0x1a]
        0x080063fe:    4037        7@      ANDS     r7,r7,r6
        0x08006400:    768f        .v      STRB     r7,[r1,#0x1a]
        0x08006402:    7823        #x      LDRB     r3,[r4,#0]
        0x08006404:    27f8        .'      MOVS     r7,#0xf8
        0x08006406:    403b        ;@      ANDS     r3,r3,r7
        0x08006408:    7023        #p      STRB     r3,[r4,#0]
        0x0800640a:    7a23        #z      LDRB     r3,[r4,#8]
        0x0800640c:    4013        .@      ANDS     r3,r3,r2
        0x0800640e:    7223        #r      STRB     r3,[r4,#8]
        0x08006410:    9001        ..      STR      r0,[sp,#4]
        0x08006412:    2801        .(      CMP      r0,#1
        0x08006414:    d105        ..      BNE      0x8006422 ; radar_deinit + 118
        0x08006416:    7923        #y      LDRB     r3,[r4,#4]
        0x08006418:    403b        ;@      ANDS     r3,r3,r7
        0x0800641a:    7123        #q      STRB     r3,[r4,#4]
        0x0800641c:    7b23        #{      LDRB     r3,[r4,#0xc]
        0x0800641e:    4013        .@      ANDS     r3,r3,r2
        0x08006420:    7323        #s      STRB     r3,[r4,#0xc]
        0x08006422:    7b0b        .{      LDRB     r3,[r1,#0xc]
        0x08006424:    4033        3@      ANDS     r3,r3,r6
        0x08006426:    730b        .s      STRB     r3,[r1,#0xc]
        0x08006428:    7b4b        K{      LDRB     r3,[r1,#0xd]
        0x0800642a:    26f7        .&      MOVS     r6,#0xf7
        0x0800642c:    4033        3@      ANDS     r3,r3,r6
        0x0800642e:    734b        Ks      STRB     r3,[r1,#0xd]
        0x08006430:    7b8b        .{      LDRB     r3,[r1,#0xe]
        0x08006432:    402b        +@      ANDS     r3,r3,r5
        0x08006434:    738b        .s      STRB     r3,[r1,#0xe]
        0x08006436:    7bcb        .{      LDRB     r3,[r1,#0xf]
        0x08006438:    4033        3@      ANDS     r3,r3,r6
        0x0800643a:    73cb        .s      STRB     r3,[r1,#0xf]
        0x0800643c:    7fa3        ..      LDRB     r3,[r4,#0x1e]
        0x0800643e:    261f        .&      MOVS     r6,#0x1f
        0x08006440:    401e        .@      ANDS     r6,r6,r3
        0x08006442:    77a6        .w      STRB     r6,[r4,#0x1e]
        0x08006444:    788b        .x      LDRB     r3,[r1,#2]
        0x08006446:    26fd        .&      MOVS     r6,#0xfd
        0x08006448:    401e        .@      ANDS     r6,r6,r3
        0x0800644a:    708e        .p      STRB     r6,[r1,#2]
        0x0800644c:    7ca6        .|      LDRB     r6,[r4,#0x12]
        0x0800644e:    9801        ..      LDR      r0,[sp,#4]
        0x08006450:    2800        .(      CMP      r0,#0
        0x08006452:    d006        ..      BEQ      0x8006462 ; radar_deinit + 182
        0x08006454:    402e        .@      ANDS     r6,r6,r5
        0x08006456:    74a6        .t      STRB     r6,[r4,#0x12]
        0x08006458:    7c63        c|      LDRB     r3,[r4,#0x11]
        0x0800645a:    9800        ..      LDR      r0,[sp,#0]
        0x0800645c:    4003        .@      ANDS     r3,r3,r0
        0x0800645e:    7463        ct      STRB     r3,[r4,#0x11]
        0x08006460:    e002        ..      B        0x8006468 ; radar_deinit + 188
        0x08006462:    4016        .@      ANDS     r6,r6,r2
        0x08006464:    74a6        .t      STRB     r6,[r4,#0x12]
        0x08006466:    9800        ..      LDR      r0,[sp,#0]
        0x08006468:    7c23        #|      LDRB     r3,[r4,#0x10]
        0x0800646a:    4003        .@      ANDS     r3,r3,r0
        0x0800646c:    7423        #t      STRB     r3,[r4,#0x10]
        0x0800646e:    7d20         }      LDRB     r0,[r4,#0x14]
        0x08006470:    23fb        .#      MOVS     r3,#0xfb
        0x08006472:    4003        .@      ANDS     r3,r3,r0
        0x08006474:    7523        #u      STRB     r3,[r4,#0x14]
        0x08006476:    7fe0        ..      LDRB     r0,[r4,#0x1f]
        0x08006478:    4010        .@      ANDS     r0,r0,r2
        0x0800647a:    77e0        .w      STRB     r0,[r4,#0x1f]
        0x0800647c:    7808        .x      LDRB     r0,[r1,#0]
        0x0800647e:    4010        .@      ANDS     r0,r0,r2
        0x08006480:    7008        .p      STRB     r0,[r1,#0]
        0x08006482:    7888        .x      LDRB     r0,[r1,#2]
        0x08006484:    4010        .@      ANDS     r0,r0,r2
        0x08006486:    7088        .p      STRB     r0,[r1,#2]
        0x08006488:    b002        ..      ADD      sp,sp,#8
        0x0800648a:    bdf0        ..      POP      {r4-r7,pc}
    $d.31
    __arm_cp.15_0
        0x0800648c:    40103021    !0.@    DCD    1074802721
    __arm_cp.15_1
        0x08006490:    40103041    A0.@    DCD    1074802753
    __arm_cp.15_2
        0x08006494:    40103000    .0.@    DCD    1074802688
    $t.16
    radar_faston_time_set
        0x08006498:    21ff        .!      MOVS     r1,#0xff
        0x0800649a:    0409        ..      LSLS     r1,r1,#16
        0x0800649c:    4a03        .J      LDR      r2,[pc,#12] ; [0x80064ac] = 0x40012060
        0x0800649e:    6813        .h      LDR      r3,[r2,#0]
        0x080064a0:    438b        .C      BICS     r3,r3,r1
        0x080064a2:    0400        ..      LSLS     r0,r0,#16
        0x080064a4:    1818        ..      ADDS     r0,r3,r0
        0x080064a6:    6010        .`      STR      r0,[r2,#0]
        0x080064a8:    4770        pG      BX       lr
        0x080064aa:    46c0        .F      MOV      r8,r8
    $d.17
    __arm_cp.8_0
        0x080064ac:    40012060    ` .@    DCD    1073815648
    $t.0
    radar_filter_cfg
        0x080064b0:    7802        .x      LDRB     r2,[r0,#0]
        0x080064b2:    2101        .!      MOVS     r1,#1
        0x080064b4:    400a        .@      ANDS     r2,r2,r1
        0x080064b6:    7843        Cx      LDRB     r3,[r0,#1]
        0x080064b8:    07db        ..      LSLS     r3,r3,#31
        0x080064ba:    0f9b        ..      LSRS     r3,r3,#30
        0x080064bc:    189a        ..      ADDS     r2,r3,r2
        0x080064be:    7883        .x      LDRB     r3,[r0,#2]
        0x080064c0:    079b        ..      LSLS     r3,r3,#30
        0x080064c2:    0f1b        ..      LSRS     r3,r3,#28
        0x080064c4:    18d2        ..      ADDS     r2,r2,r3
        0x080064c6:    78c3        .x      LDRB     r3,[r0,#3]
        0x080064c8:    011b        ..      LSLS     r3,r3,#4
        0x080064ca:    189a        ..      ADDS     r2,r3,r2
        0x080064cc:    7903        .y      LDRB     r3,[r0,#4]
        0x080064ce:    031b        ..      LSLS     r3,r3,#12
        0x080064d0:    18d2        ..      ADDS     r2,r2,r3
        0x080064d2:    88c3        ..      LDRH     r3,[r0,#6]
        0x080064d4:    1e5b        [.      SUBS     r3,r3,#1
        0x080064d6:    059b        ..      LSLS     r3,r3,#22
        0x080064d8:    089b        ..      LSRS     r3,r3,#2
        0x080064da:    18d2        ..      ADDS     r2,r2,r3
        0x080064dc:    7a03        .z      LDRB     r3,[r0,#8]
        0x080064de:    07db        ..      LSLS     r3,r3,#31
        0x080064e0:    085b        [.      LSRS     r3,r3,#1
        0x080064e2:    18d2        ..      ADDS     r2,r2,r3
        0x080064e4:    7a43        Cz      LDRB     r3,[r0,#9]
        0x080064e6:    07db        ..      LSLS     r3,r3,#31
        0x080064e8:    4313        .C      ORRS     r3,r3,r2
        0x080064ea:    4a0e        .J      LDR      r2,[pc,#56] ; [0x8006524] = 0x40013000
        0x080064ec:    6013        .`      STR      r3,[r2,#0]
        0x080064ee:    04c9        ..      LSLS     r1,r1,#19
        0x080064f0:    6913        .i      LDR      r3,[r2,#0x10]
        0x080064f2:    430b        .C      ORRS     r3,r3,r1
        0x080064f4:    6113        .a      STR      r3,[r2,#0x10]
        0x080064f6:    8941        A.      LDRH     r1,[r0,#0xa]
        0x080064f8:    8983        ..      LDRH     r3,[r0,#0xc]
        0x080064fa:    041b        ..      LSLS     r3,r3,#16
        0x080064fc:    1859        Y.      ADDS     r1,r3,r1
        0x080064fe:    6051        Q`      STR      r1,[r2,#4]
        0x08006500:    89c1        ..      LDRH     r1,[r0,#0xe]
        0x08006502:    8a03        ..      LDRH     r3,[r0,#0x10]
        0x08006504:    041b        ..      LSLS     r3,r3,#16
        0x08006506:    1859        Y.      ADDS     r1,r3,r1
        0x08006508:    6091        .`      STR      r1,[r2,#8]
        0x0800650a:    8a41        A.      LDRH     r1,[r0,#0x12]
        0x0800650c:    8a83        ..      LDRH     r3,[r0,#0x14]
        0x0800650e:    041b        ..      LSLS     r3,r3,#16
        0x08006510:    1859        Y.      ADDS     r1,r3,r1
        0x08006512:    60d1        .`      STR      r1,[r2,#0xc]
        0x08006514:    6911        .i      LDR      r1,[r2,#0x10]
        0x08006516:    4b40        @K      LDR      r3,[pc,#256] ; [0x8006618] = 0xffff0000
        0x08006518:    400b        .@      ANDS     r3,r3,r1
        0x0800651a:    8ac0        ..      LDRH     r0,[r0,#0x16]
        0x0800651c:    1818        ..      ADDS     r0,r3,r0
        0x0800651e:    6110        .a      STR      r0,[r2,#0x10]
        0x08006520:    4770        pG      BX       lr
        0x08006522:    46c0        .F      MOV      r8,r8
    $d.1
    __arm_cp.0_0
        0x08006524:    40013000    .0.@    DCD    1073819648
    $t.8
    radar_filter_dma_cfg
        0x08006528:    2107        .!      MOVS     r1,#7
        0x0800652a:    0409        ..      LSLS     r1,r1,#16
        0x0800652c:    4a08        .J      LDR      r2,[pc,#32] ; [0x8006550] = 0x40013010
        0x0800652e:    6813        .h      LDR      r3,[r2,#0]
        0x08006530:    438b        .C      BICS     r3,r3,r1
        0x08006532:    7801        .x      LDRB     r1,[r0,#0]
        0x08006534:    07c9        ..      LSLS     r1,r1,#31
        0x08006536:    0bc9        ..      LSRS     r1,r1,#15
        0x08006538:    18c9        ..      ADDS     r1,r1,r3
        0x0800653a:    7843        Cx      LDRB     r3,[r0,#1]
        0x0800653c:    07db        ..      LSLS     r3,r3,#31
        0x0800653e:    0b9b        ..      LSRS     r3,r3,#14
        0x08006540:    18c9        ..      ADDS     r1,r1,r3
        0x08006542:    7880        .x      LDRB     r0,[r0,#2]
        0x08006544:    07c0        ..      LSLS     r0,r0,#31
        0x08006546:    0b40        @.      LSRS     r0,r0,#13
        0x08006548:    1808        ..      ADDS     r0,r1,r0
        0x0800654a:    6010        .`      STR      r0,[r2,#0]
        0x0800654c:    4770        pG      BX       lr
        0x0800654e:    46c0        .F      MOV      r8,r8
    $d.9
    __arm_cp.4_0
        0x08006550:    40013010    .0.@    DCD    1073819664
    $t.6
    radar_frame_config
        0x08006554:    2105        .!      MOVS     r1,#5
        0x08006556:    0189        ..      LSLS     r1,r1,#6
        0x08006558:    6842        Bh      LDR      r2,[r0,#4]
        0x0800655a:    434a        JC      MULS     r2,r1,r2
        0x0800655c:    2101        .!      MOVS     r1,#1
        0x0800655e:    03c9        ..      LSLS     r1,r1,#15
        0x08006560:    1851        Q.      ADDS     r1,r2,r1
        0x08006562:    4a2d        -J      LDR      r2,[pc,#180] ; [0x8006618] = 0xffff0000
        0x08006564:    400a        .@      ANDS     r2,r2,r1
        0x08006566:    6801        .h      LDR      r1,[r0,#0]
        0x08006568:    1e49        I.      SUBS     r1,r1,#1
        0x0800656a:    b289        ..      UXTH     r1,r1
        0x0800656c:    188a        ..      ADDS     r2,r1,r2
        0x0800656e:    4929        )I      LDR      r1,[pc,#164] ; [0x8006614] = 0x40012000
        0x08006570:    600a        .`      STR      r2,[r1,#0]
        0x08006572:    7b02        .{      LDRB     r2,[r0,#0xc]
        0x08006574:    2307        .#      MOVS     r3,#7
        0x08006576:    4013        .@      ANDS     r3,r3,r2
        0x08006578:    7b42        B{      LDRB     r2,[r0,#0xd]
        0x0800657a:    0752        R.      LSLS     r2,r2,#29
        0x0800657c:    0e92        ..      LSRS     r2,r2,#26
        0x0800657e:    18d2        ..      ADDS     r2,r2,r3
        0x08006580:    7b83        .{      LDRB     r3,[r0,#0xe]
        0x08006582:    075b        [.      LSLS     r3,r3,#29
        0x08006584:    0ddb        ..      LSRS     r3,r3,#23
        0x08006586:    189a        ..      ADDS     r2,r3,r2
        0x08006588:    7bc3        .{      LDRB     r3,[r0,#0xf]
        0x0800658a:    075b        [.      LSLS     r3,r3,#29
        0x0800658c:    0d1b        ..      LSRS     r3,r3,#20
        0x0800658e:    18d2        ..      ADDS     r2,r2,r3
        0x08006590:    7c03        .|      LDRB     r3,[r0,#0x10]
        0x08006592:    075b        [.      LSLS     r3,r3,#29
        0x08006594:    0c5b        [.      LSRS     r3,r3,#17
        0x08006596:    18d2        ..      ADDS     r2,r2,r3
        0x08006598:    7c43        C|      LDRB     r3,[r0,#0x11]
        0x0800659a:    075b        [.      LSLS     r3,r3,#29
        0x0800659c:    0b9b        ..      LSRS     r3,r3,#14
        0x0800659e:    18d2        ..      ADDS     r2,r2,r3
        0x080065a0:    7c83        .|      LDRB     r3,[r0,#0x12]
        0x080065a2:    075b        [.      LSLS     r3,r3,#29
        0x080065a4:    0adb        ..      LSRS     r3,r3,#11
        0x080065a6:    18d2        ..      ADDS     r2,r2,r3
        0x080065a8:    7cc3        .|      LDRB     r3,[r0,#0x13]
        0x080065aa:    075b        [.      LSLS     r3,r3,#29
        0x080065ac:    0a1b        ..      LSRS     r3,r3,#8
        0x080065ae:    4313        .C      ORRS     r3,r3,r2
        0x080065b0:    7d02        .}      LDRB     r2,[r0,#0x14]
        0x080065b2:    1e52        R.      SUBS     r2,r2,#1
        0x080065b4:    0692        ..      LSLS     r2,r2,#26
        0x080065b6:    0892        ..      LSRS     r2,r2,#2
        0x080065b8:    431a        .C      ORRS     r2,r2,r3
        0x080065ba:    608a        .`      STR      r2,[r1,#8]
        0x080065bc:    6880        .h      LDR      r0,[r0,#8]
        0x080065be:    60c8        .`      STR      r0,[r1,#0xc]
        0x080065c0:    4770        pG      BX       lr
        0x080065c2:    46c0        .F      MOV      r8,r8
    radar_frame_interval_get
        0x080065c4:    b580        ..      PUSH     {r7,lr}
        0x080065c6:    4813        .H      LDR      r0,[pc,#76] ; [0x8006614] = 0x40012000
        0x080065c8:    6800        .h      LDR      r0,[r0,#0]
        0x080065ca:    0c00        ..      LSRS     r0,r0,#16
        0x080065cc:    02c0        ..      LSLS     r0,r0,#11
        0x080065ce:    1d00        ..      ADDS     r0,r0,#4
        0x080065d0:    210a        .!      MOVS     r1,#0xa
        0x080065d2:    f7fdfa6c    ..l.    BL       __aeabi_uidiv ; 0x8003aae
        0x080065d6:    bd80        ..      POP      {r7,pc}
    radar_frame_interval_set
        0x080065d8:    2105        .!      MOVS     r1,#5
        0x080065da:    0189        ..      LSLS     r1,r1,#6
        0x080065dc:    4341        AC      MULS     r1,r0,r1
        0x080065de:    2001        .       MOVS     r0,#1
        0x080065e0:    03c0        ..      LSLS     r0,r0,#15
        0x080065e2:    1808        ..      ADDS     r0,r1,r0
        0x080065e4:    490c        .I      LDR      r1,[pc,#48] ; [0x8006618] = 0xffff0000
        0x080065e6:    4001        .@      ANDS     r1,r1,r0
        0x080065e8:    480a        .H      LDR      r0,[pc,#40] ; [0x8006614] = 0x40012000
        0x080065ea:    6802        .h      LDR      r2,[r0,#0]
        0x080065ec:    b292        ..      UXTH     r2,r2
        0x080065ee:    1851        Q.      ADDS     r1,r2,r1
        0x080065f0:    6001        .`      STR      r1,[r0,#0]
        0x080065f2:    4770        pG      BX       lr
    radar_frame_repeat_times_get
        0x080065f4:    4807        .H      LDR      r0,[pc,#28] ; [0x8006614] = 0x40012000
        0x080065f6:    6800        .h      LDR      r0,[r0,#0]
        0x080065f8:    b280        ..      UXTH     r0,r0
        0x080065fa:    1c40        @.      ADDS     r0,r0,#1
        0x080065fc:    4770        pG      BX       lr
        0x080065fe:    46c0        .F      MOV      r8,r8
    radar_frame_repeat_times_set
        0x08006600:    4904        .I      LDR      r1,[pc,#16] ; [0x8006614] = 0x40012000
        0x08006602:    680a        .h      LDR      r2,[r1,#0]
        0x08006604:    4b04        .K      LDR      r3,[pc,#16] ; [0x8006618] = 0xffff0000
        0x08006606:    4013        .@      ANDS     r3,r3,r2
        0x08006608:    1e40        @.      SUBS     r0,r0,#1
        0x0800660a:    b280        ..      UXTH     r0,r0
        0x0800660c:    1818        ..      ADDS     r0,r3,r0
        0x0800660e:    6008        .`      STR      r0,[r1,#0]
        0x08006610:    4770        pG      BX       lr
        0x08006612:    46c0        .F      MOV      r8,r8
    $d.23
    __arm_cp.11_0
        0x08006614:    40012000    . .@    DCD    1073815552
    __arm_cp.11_1
        0x08006618:    ffff0000    ....    DCD    4294901760
    $t.12
    radar_frame_start
        0x0800661c:    480a        .H      LDR      r0,[pc,#40] ; [0x8006648] = 0x40012004
        0x0800661e:    6801        .h      LDR      r1,[r0,#0]
        0x08006620:    2205        ."      MOVS     r2,#5
        0x08006622:    430a        .C      ORRS     r2,r2,r1
        0x08006624:    6002        .`      STR      r2,[r0,#0]
        0x08006626:    4770        pG      BX       lr
    radar_frame_stop
        0x08006628:    4807        .H      LDR      r0,[pc,#28] ; [0x8006648] = 0x40012004
        0x0800662a:    6801        .h      LDR      r1,[r0,#0]
        0x0800662c:    2205        ."      MOVS     r2,#5
        0x0800662e:    4391        .C      BICS     r1,r1,r2
        0x08006630:    6001        .`      STR      r1,[r0,#0]
        0x08006632:    4770        pG      BX       lr
    radar_frame_trigger_mode_set
        0x08006634:    4904        .I      LDR      r1,[pc,#16] ; [0x8006648] = 0x40012004
        0x08006636:    680a        .h      LDR      r2,[r1,#0]
        0x08006638:    2302        .#      MOVS     r3,#2
        0x0800663a:    439a        .C      BICS     r2,r2,r3
        0x0800663c:    07c0        ..      LSLS     r0,r0,#31
        0x0800663e:    0f80        ..      LSRS     r0,r0,#30
        0x08006640:    1810        ..      ADDS     r0,r2,r0
        0x08006642:    6008        .`      STR      r0,[r1,#0]
        0x08006644:    4770        pG      BX       lr
        0x08006646:    46c0        .F      MOV      r8,r8
    $d.11
    __arm_cp.5_0
        0x08006648:    40012004    . .@    DCD    1073815556
    $t.34
    radar_init
        0x0800664c:    b5f0        ..      PUSH     {r4-r7,lr}
        0x0800664e:    b08f        ..      SUB      sp,sp,#0x3c
        0x08006650:    900b        ..      STR      r0,[sp,#0x2c]
        0x08006652:    2601        .&      MOVS     r6,#1
        0x08006654:    4630        0F      MOV      r0,r6
        0x08006656:    4631        1F      MOV      r1,r6
        0x08006658:    f7fcfa80    ....    BL       sys_clk_adc_sdm_inv_set ; 0x8002b5c
        0x0800665c:    f7fffdde    ....    BL       pmu_rf_pwr_on ; 0x800621c
        0x08006660:    f7fffdd4    ....    BL       pmu_por_osc_disable ; 0x800620c
        0x08006664:    48dc        .H      LDR      r0,[pc,#880] ; [0x80069d8] = 0x231860
        0x08006666:    f7fffdaf    ....    BL       pmu_clk_dcdc_set ; 0x80061c8
        0x0800666a:    4ddc        .M      LDR      r5,[pc,#880] ; [0x80069dc] = 0x4010344f
        0x0800666c:    7aa8        .z      LDRB     r0,[r5,#0xa]
        0x0800666e:    2118        .!      MOVS     r1,#0x18
        0x08006670:    9102        ..      STR      r1,[sp,#8]
        0x08006672:    4308        .C      ORRS     r0,r0,r1
        0x08006674:    72a8        .r      STRB     r0,[r5,#0xa]
        0x08006676:    7b68        h{      LDRB     r0,[r5,#0xd]
        0x08006678:    21e0        .!      MOVS     r1,#0xe0
        0x0800667a:    910d        ..      STR      r1,[sp,#0x34]
        0x0800667c:    4008        .@      ANDS     r0,r0,r1
        0x0800667e:    3008        .0      ADDS     r0,r0,#8
        0x08006680:    7368        hs      STRB     r0,[r5,#0xd]
        0x08006682:    4630        0F      MOV      r0,r6
        0x08006684:    f7f9fe6c    ..l.    BL       delay_us ; 0x8000360
        0x08006688:    f000fc54    ..T.    BL       $Ven$TT$L$$critical_section_start ; 0x8006f34
        0x0800668c:    7828        (x      LDRB     r0,[r5,#0]
        0x0800668e:    900e        ..      STR      r0,[sp,#0x38]
        0x08006690:    2007        .       MOVS     r0,#7
        0x08006692:    f7fffdcb    ....    BL       pmu_set_dig_vcore ; 0x800622c
        0x08006696:    4630        0F      MOV      r0,r6
        0x08006698:    f7f9fe62    ..b.    BL       delay_us ; 0x8000360
        0x0800669c:    49d0        .I      LDR      r1,[pc,#832] ; [0x80069e0] = 0x40103000
        0x0800669e:    7fc8        ..      LDRB     r0,[r1,#0x1f]
        0x080066a0:    4330        0C      ORRS     r0,r0,r6
        0x080066a2:    77c8        .w      STRB     r0,[r1,#0x1f]
        0x080066a4:    4fcf        .O      LDR      r7,[pc,#828] ; [0x80069e4] = 0x40103021
        0x080066a6:    7838        8x      LDRB     r0,[r7,#0]
        0x080066a8:    4330        0C      ORRS     r0,r0,r6
        0x080066aa:    7038        8p      STRB     r0,[r7,#0]
        0x080066ac:    78b8        .x      LDRB     r0,[r7,#2]
        0x080066ae:    4330        0C      ORRS     r0,r0,r6
        0x080066b0:    70b8        .p      STRB     r0,[r7,#2]
        0x080066b2:    2002        .       MOVS     r0,#2
        0x080066b4:    4604        .F      MOV      r4,r0
        0x080066b6:    900a        ..      STR      r0,[sp,#0x28]
        0x080066b8:    f7f9fe52    ..R.    BL       delay_us ; 0x8000360
        0x080066bc:    20f8        .       MOVS     r0,#0xf8
        0x080066be:    990e        ..      LDR      r1,[sp,#0x38]
        0x080066c0:    4008        .@      ANDS     r0,r0,r1
        0x080066c2:    1cc0        ..      ADDS     r0,r0,#3
        0x080066c4:    7028        (p      STRB     r0,[r5,#0]
        0x080066c6:    f000fc2f    ../.    BL       $Ven$TT$L$$critical_section_end ; 0x8006f28
        0x080066ca:    7b38        8{      LDRB     r0,[r7,#0xc]
        0x080066cc:    2140        @!      MOVS     r1,#0x40
        0x080066ce:    910e        ..      STR      r1,[sp,#0x38]
        0x080066d0:    4308        .C      ORRS     r0,r0,r1
        0x080066d2:    7338        8s      STRB     r0,[r7,#0xc]
        0x080066d4:    7b78        x{      LDRB     r0,[r7,#0xd]
        0x080066d6:    2108        .!      MOVS     r1,#8
        0x080066d8:    4308        .C      ORRS     r0,r0,r1
        0x080066da:    7378        xs      STRB     r0,[r7,#0xd]
        0x080066dc:    7bb8        .{      LDRB     r0,[r7,#0xe]
        0x080066de:    2221        !"      MOVS     r2,#0x21
        0x080066e0:    920c        ..      STR      r2,[sp,#0x30]
        0x080066e2:    4310        .C      ORRS     r0,r0,r2
        0x080066e4:    73b8        .s      STRB     r0,[r7,#0xe]
        0x080066e6:    7bf8        .{      LDRB     r0,[r7,#0xf]
        0x080066e8:    4308        .C      ORRS     r0,r0,r1
        0x080066ea:    73f8        .s      STRB     r0,[r7,#0xf]
        0x080066ec:    49bc        .I      LDR      r1,[pc,#752] ; [0x80069e0] = 0x40103000
        0x080066ee:    7f88        ..      LDRB     r0,[r1,#0x1e]
        0x080066f0:    9a0d        ..      LDR      r2,[sp,#0x34]
        0x080066f2:    4310        .C      ORRS     r0,r0,r2
        0x080066f4:    7788        .w      STRB     r0,[r1,#0x1e]
        0x080066f6:    78b8        .x      LDRB     r0,[r7,#2]
        0x080066f8:    4320         C      ORRS     r0,r0,r4
        0x080066fa:    70b8        .p      STRB     r0,[r7,#2]
        0x080066fc:    7b38        8{      LDRB     r0,[r7,#0xc]
        0x080066fe:    2580        .%      MOVS     r5,#0x80
        0x08006700:    4328        (C      ORRS     r0,r0,r5
        0x08006702:    7338        8s      STRB     r0,[r7,#0xc]
        0x08006704:    7b78        x{      LDRB     r0,[r7,#0xd]
        0x08006706:    2110        .!      MOVS     r1,#0x10
        0x08006708:    9109        ..      STR      r1,[sp,#0x24]
        0x0800670a:    4308        .C      ORRS     r0,r0,r1
        0x0800670c:    7378        xs      STRB     r0,[r7,#0xd]
        0x0800670e:    7bb8        .{      LDRB     r0,[r7,#0xe]
        0x08006710:    2142        B!      MOVS     r1,#0x42
        0x08006712:    9100        ..      STR      r1,[sp,#0]
        0x08006714:    4308        .C      ORRS     r0,r0,r1
        0x08006716:    73b8        .s      STRB     r0,[r7,#0xe]
        0x08006718:    2405        .$      MOVS     r4,#5
        0x0800671a:    4620         F      MOV      r0,r4
        0x0800671c:    f7f9fe20    .. .    BL       delay_us ; 0x8000360
        0x08006720:    7b38        8{      LDRB     r0,[r7,#0xc]
        0x08006722:    217f        .!      MOVS     r1,#0x7f
        0x08006724:    9107        ..      STR      r1,[sp,#0x1c]
        0x08006726:    4008        .@      ANDS     r0,r0,r1
        0x08006728:    7338        8s      STRB     r0,[r7,#0xc]
        0x0800672a:    7b78        x{      LDRB     r0,[r7,#0xd]
        0x0800672c:    21ef        .!      MOVS     r1,#0xef
        0x0800672e:    9106        ..      STR      r1,[sp,#0x18]
        0x08006730:    4008        .@      ANDS     r0,r0,r1
        0x08006732:    7378        xs      STRB     r0,[r7,#0xd]
        0x08006734:    7bb8        .{      LDRB     r0,[r7,#0xe]
        0x08006736:    21bd        .!      MOVS     r1,#0xbd
        0x08006738:    4001        .@      ANDS     r1,r1,r0
        0x0800673a:    73b9        .s      STRB     r1,[r7,#0xe]
        0x0800673c:    7a78        xz      LDRB     r0,[r7,#9]
        0x0800673e:    2144        D!      MOVS     r1,#0x44
        0x08006740:    9103        ..      STR      r1,[sp,#0xc]
        0x08006742:    4308        .C      ORRS     r0,r0,r1
        0x08006744:    7278        xr      STRB     r0,[r7,#9]
        0x08006746:    7bf8        .{      LDRB     r0,[r7,#0xf]
        0x08006748:    9b09        ..      LDR      r3,[sp,#0x24]
        0x0800674a:    4318        .C      ORRS     r0,r0,r3
        0x0800674c:    73f8        .s      STRB     r0,[r7,#0xf]
        0x0800674e:    7eb8        .~      LDRB     r0,[r7,#0x1a]
        0x08006750:    990c        ..      LDR      r1,[sp,#0x30]
        0x08006752:    4308        .C      ORRS     r0,r0,r1
        0x08006754:    76b8        .v      STRB     r0,[r7,#0x1a]
        0x08006756:    7f38        8.      LDRB     r0,[r7,#0x1c]
        0x08006758:    4330        0C      ORRS     r0,r0,r6
        0x0800675a:    7738        8w      STRB     r0,[r7,#0x1c]
        0x0800675c:    7ff8        ..      LDRB     r0,[r7,#0x1f]
        0x0800675e:    9508        ..      STR      r5,[sp,#0x20]
        0x08006760:    4328        (C      ORRS     r0,r0,r5
        0x08006762:    77f8        .w      STRB     r0,[r7,#0x1f]
        0x08006764:    4da0        .M      LDR      r5,[pc,#640] ; [0x80069e8] = 0x40103041
        0x08006766:    7828        (x      LDRB     r0,[r5,#0]
        0x08006768:    4330        0C      ORRS     r0,r0,r6
        0x0800676a:    7028        (p      STRB     r0,[r5,#0]
        0x0800676c:    4a9c        .J      LDR      r2,[pc,#624] ; [0x80069e0] = 0x40103000
        0x0800676e:    7ed0        .~      LDRB     r0,[r2,#0x1b]
        0x08006770:    9601        ..      STR      r6,[sp,#4]
        0x08006772:    4330        0C      ORRS     r0,r0,r6
        0x08006774:    76d0        .v      STRB     r0,[r2,#0x1b]
        0x08006776:    7f10        ..      LDRB     r0,[r2,#0x1c]
        0x08006778:    2120         !      MOVS     r1,#0x20
        0x0800677a:    4301        .C      ORRS     r1,r1,r0
        0x0800677c:    7711        .w      STRB     r1,[r2,#0x1c]
        0x0800677e:    7f50        P.      LDRB     r0,[r2,#0x1d]
        0x08006780:    990e        ..      LDR      r1,[sp,#0x38]
        0x08006782:    4308        .C      ORRS     r0,r0,r1
        0x08006784:    7750        Pw      STRB     r0,[r2,#0x1d]
        0x08006786:    7f38        8.      LDRB     r0,[r7,#0x1c]
        0x08006788:    990a        ..      LDR      r1,[sp,#0x28]
        0x0800678a:    4308        .C      ORRS     r0,r0,r1
        0x0800678c:    7738        8w      STRB     r0,[r7,#0x1c]
        0x0800678e:    78e8        .x      LDRB     r0,[r5,#3]
        0x08006790:    4308        .C      ORRS     r0,r0,r1
        0x08006792:    70e8        .p      STRB     r0,[r5,#3]
        0x08006794:    9404        ..      STR      r4,[sp,#0x10]
        0x08006796:    4620         F      MOV      r0,r4
        0x08006798:    461c        .F      MOV      r4,r3
        0x0800679a:    f7f9fde1    ....    BL       delay_us ; 0x8000360
        0x0800679e:    7f38        8.      LDRB     r0,[r7,#0x1c]
        0x080067a0:    21fd        .!      MOVS     r1,#0xfd
        0x080067a2:    4008        .@      ANDS     r0,r0,r1
        0x080067a4:    7738        8w      STRB     r0,[r7,#0x1c]
        0x080067a6:    78e8        .x      LDRB     r0,[r5,#3]
        0x080067a8:    910c        ..      STR      r1,[sp,#0x30]
        0x080067aa:    4008        .@      ANDS     r0,r0,r1
        0x080067ac:    70e8        .p      STRB     r0,[r5,#3]
        0x080067ae:    980b        ..      LDR      r0,[sp,#0x2c]
        0x080067b0:    4602        .F      MOV      r2,r0
        0x080067b2:    7800        .x      LDRB     r0,[r0,#0]
        0x080067b4:    2800        .(      CMP      r0,#0
        0x080067b6:    d000        ..      BEQ      0x80067ba ; radar_init + 366
        0x080067b8:    9c02        ..      LDR      r4,[sp,#8]
        0x080067ba:    7af9        .z      LDRB     r1,[r7,#0xb]
        0x080067bc:    2303        .#      MOVS     r3,#3
        0x080067be:    4019        .@      ANDS     r1,r1,r3
        0x080067c0:    1909        ..      ADDS     r1,r1,r4
        0x080067c2:    72f9        .r      STRB     r1,[r7,#0xb]
        0x080067c4:    2800        .(      CMP      r0,#0
        0x080067c6:    9309        ..      STR      r3,[sp,#0x24]
        0x080067c8:    d001        ..      BEQ      0x80067ce ; radar_init + 386
        0x080067ca:    2106        .!      MOVS     r1,#6
        0x080067cc:    e000        ..      B        0x80067d0 ; radar_init + 388
        0x080067ce:    2104        .!      MOVS     r1,#4
        0x080067d0:    4616        .F      MOV      r6,r2
        0x080067d2:    9d0d        ..      LDR      r5,[sp,#0x34]
        0x080067d4:    4c82        .L      LDR      r4,[pc,#520] ; [0x80069e0] = 0x40103000
        0x080067d6:    7b3a        :{      LDRB     r2,[r7,#0xc]
        0x080067d8:    23c0        .#      MOVS     r3,#0xc0
        0x080067da:    4013        .@      ANDS     r3,r3,r2
        0x080067dc:    1859        Y.      ADDS     r1,r3,r1
        0x080067de:    7339        9s      STRB     r1,[r7,#0xc]
        0x080067e0:    7c39        9|      LDRB     r1,[r7,#0x10]
        0x080067e2:    4029        )@      ANDS     r1,r1,r5
        0x080067e4:    311e        .1      ADDS     r1,r1,#0x1e
        0x080067e6:    7439        9t      STRB     r1,[r7,#0x10]
        0x080067e8:    7c79        y|      LDRB     r1,[r7,#0x11]
        0x080067ea:    221f        ."      MOVS     r2,#0x1f
        0x080067ec:    4311        .C      ORRS     r1,r1,r2
        0x080067ee:    7479        yt      STRB     r1,[r7,#0x11]
        0x080067f0:    7cb9        .|      LDRB     r1,[r7,#0x12]
        0x080067f2:    4029        )@      ANDS     r1,r1,r5
        0x080067f4:    3112        .1      ADDS     r1,r1,#0x12
        0x080067f6:    74b9        .t      STRB     r1,[r7,#0x12]
        0x080067f8:    7cf9        .|      LDRB     r1,[r7,#0x13]
        0x080067fa:    4311        .C      ORRS     r1,r1,r2
        0x080067fc:    74f9        .t      STRB     r1,[r7,#0x13]
        0x080067fe:    2800        .(      CMP      r0,#0
        0x08006800:    9205        ..      STR      r2,[sp,#0x14]
        0x08006802:    d002        ..      BEQ      0x800680a ; radar_init + 446
        0x08006804:    9b0a        ..      LDR      r3,[sp,#0x28]
        0x08006806:    9a02        ..      LDR      r2,[sp,#8]
        0x08006808:    e001        ..      B        0x800680e ; radar_init + 450
        0x0800680a:    220b        ."      MOVS     r2,#0xb
        0x0800680c:    9b0a        ..      LDR      r3,[sp,#0x28]
        0x0800680e:    7d39        9}      LDRB     r1,[r7,#0x14]
        0x08006810:    4029        )@      ANDS     r1,r1,r5
        0x08006812:    1889        ..      ADDS     r1,r1,r2
        0x08006814:    7539        9u      STRB     r1,[r7,#0x14]
        0x08006816:    7d79        y}      LDRB     r1,[r7,#0x15]
        0x08006818:    4029        )@      ANDS     r1,r1,r5
        0x0800681a:    3118        .1      ADDS     r1,r1,#0x18
        0x0800681c:    7579        yu      STRB     r1,[r7,#0x15]
        0x0800681e:    7db9        .}      LDRB     r1,[r7,#0x16]
        0x08006820:    2800        .(      CMP      r0,#0
        0x08006822:    9a03        ..      LDR      r2,[sp,#0xc]
        0x08006824:    d000        ..      BEQ      0x8006828 ; radar_init + 476
        0x08006826:    2211        ."      MOVS     r2,#0x11
        0x08006828:    75ba        .u      STRB     r2,[r7,#0x16]
        0x0800682a:    7df9        .}      LDRB     r1,[r7,#0x17]
        0x0800682c:    75fa        .u      STRB     r2,[r7,#0x17]
        0x0800682e:    7e39        9~      LDRB     r1,[r7,#0x18]
        0x08006830:    2800        .(      CMP      r0,#0
        0x08006832:    d001        ..      BEQ      0x8006838 ; radar_init + 492
        0x08006834:    210d        .!      MOVS     r1,#0xd
        0x08006836:    e000        ..      B        0x800683a ; radar_init + 494
        0x08006838:    2119        .!      MOVS     r1,#0x19
        0x0800683a:    7639        9v      STRB     r1,[r7,#0x18]
        0x0800683c:    7e7a        z~      LDRB     r2,[r7,#0x19]
        0x0800683e:    7679        yv      STRB     r1,[r7,#0x19]
        0x08006840:    2800        .(      CMP      r0,#0
        0x08006842:    d000        ..      BEQ      0x8006846 ; radar_init + 506
        0x08006844:    9b01        ..      LDR      r3,[sp,#4]
        0x08006846:    7fb8        ..      LDRB     r0,[r7,#0x1e]
        0x08006848:    21fc        .!      MOVS     r1,#0xfc
        0x0800684a:    4001        .@      ANDS     r1,r1,r0
        0x0800684c:    18c8        ..      ADDS     r0,r1,r3
        0x0800684e:    77b8        .w      STRB     r0,[r7,#0x1e]
        0x08006850:    9804        ..      LDR      r0,[sp,#0x10]
        0x08006852:    f7f9fd85    ....    BL       delay_us ; 0x8000360
        0x08006856:    7830        0x      LDRB     r0,[r6,#0]
        0x08006858:    f7fffc80    ....    BL       fmcw_afc_freq_set ; 0x800615c
        0x0800685c:    4963        cI      LDR      r1,[pc,#396] ; [0x80069ec] = 0x200012d3
        0x0800685e:    7008        .p      STRB     r0,[r1,#0]
        0x08006860:    7eb8        .~      LDRB     r0,[r7,#0x1a]
        0x08006862:    990e        ..      LDR      r1,[sp,#0x38]
        0x08006864:    4308        .C      ORRS     r0,r0,r1
        0x08006866:    76b8        .v      STRB     r0,[r7,#0x1a]
        0x08006868:    2032        2       MOVS     r0,#0x32
        0x0800686a:    f7f9fd79    ..y.    BL       delay_us ; 0x8000360
        0x0800686e:    1cb0        ..      ADDS     r0,r6,#2
        0x08006870:    900e        ..      STR      r0,[sp,#0x38]
        0x08006872:    7ca0        .|      LDRB     r0,[r4,#0x12]
        0x08006874:    78b1        .x      LDRB     r1,[r6,#2]
        0x08006876:    2900        .)      CMP      r1,#0
        0x08006878:    d006        ..      BEQ      0x8006888 ; radar_init + 572
        0x0800687a:    2163        c!      MOVS     r1,#0x63
        0x0800687c:    4308        .C      ORRS     r0,r0,r1
        0x0800687e:    74a0        .t      STRB     r0,[r4,#0x12]
        0x08006880:    7c61        a|      LDRB     r1,[r4,#0x11]
        0x08006882:    2050        P       MOVS     r0,#0x50
        0x08006884:    4308        .C      ORRS     r0,r0,r1
        0x08006886:    e009        ..      B        0x800689c ; radar_init + 592
        0x08006888:    9909        ..      LDR      r1,[sp,#0x24]
        0x0800688a:    4308        .C      ORRS     r0,r0,r1
        0x0800688c:    74a0        .t      STRB     r0,[r4,#0x12]
        0x0800688e:    7ca0        .|      LDRB     r0,[r4,#0x12]
        0x08006890:    219f        .!      MOVS     r1,#0x9f
        0x08006892:    4001        .@      ANDS     r1,r1,r0
        0x08006894:    74a1        .t      STRB     r1,[r4,#0x12]
        0x08006896:    7c60        `|      LDRB     r0,[r4,#0x11]
        0x08006898:    2150        P!      MOVS     r1,#0x50
        0x0800689a:    4388        .C      BICS     r0,r0,r1
        0x0800689c:    7460        `t      STRB     r0,[r4,#0x11]
        0x0800689e:    7c20         |      LDRB     r0,[r4,#0x10]
        0x080068a0:    2150        P!      MOVS     r1,#0x50
        0x080068a2:    4301        .C      ORRS     r1,r1,r0
        0x080068a4:    7421        !t      STRB     r1,[r4,#0x10]
        0x080068a6:    7d20         }      LDRB     r0,[r4,#0x14]
        0x080068a8:    210c        .!      MOVS     r1,#0xc
        0x080068aa:    4301        .C      ORRS     r1,r1,r0
        0x080068ac:    7521        !u      STRB     r1,[r4,#0x14]
        0x080068ae:    2005        .       MOVS     r0,#5
        0x080068b0:    f7f9fd56    ..V.    BL       delay_us ; 0x8000360
        0x080068b4:    980e        ..      LDR      r0,[sp,#0x38]
        0x080068b6:    7800        .x      LDRB     r0,[r0,#0]
        0x080068b8:    2801        .(      CMP      r0,#1
        0x080068ba:    d001        ..      BEQ      0x80068c0 ; radar_init + 628
        0x080068bc:    2002        .       MOVS     r0,#2
        0x080068be:    e000        ..      B        0x80068c2 ; radar_init + 630
        0x080068c0:    9800        ..      LDR      r0,[sp,#0]
        0x080068c2:    43c0        .C      MVNS     r0,r0
        0x080068c4:    7ca1        .|      LDRB     r1,[r4,#0x12]
        0x080068c6:    4001        .@      ANDS     r1,r1,r0
        0x080068c8:    74a1        .t      STRB     r1,[r4,#0x12]
        0x080068ca:    7d20         }      LDRB     r0,[r4,#0x14]
        0x080068cc:    21f7        .!      MOVS     r1,#0xf7
        0x080068ce:    4001        .@      ANDS     r1,r1,r0
        0x080068d0:    7521        !u      STRB     r1,[r4,#0x14]
        0x080068d2:    9d0e        ..      LDR      r5,[sp,#0x38]
        0x080068d4:    4628        (F      MOV      r0,r5
        0x080068d6:    f000fa95    ....    BL       radar_rx_pf_cfg ; 0x8006e04
        0x080068da:    7821        !x      LDRB     r1,[r4,#0]
        0x080068dc:    2017        .       MOVS     r0,#0x17
        0x080068de:    4301        .C      ORRS     r1,r1,r0
        0x080068e0:    7021        !p      STRB     r1,[r4,#0]
        0x080068e2:    7a21        !z      LDRB     r1,[r4,#8]
        0x080068e4:    9a09        ..      LDR      r2,[sp,#0x24]
        0x080068e6:    4311        .C      ORRS     r1,r1,r2
        0x080068e8:    7221        !r      STRB     r1,[r4,#8]
        0x080068ea:    7829        )x      LDRB     r1,[r5,#0]
        0x080068ec:    2901        .)      CMP      r1,#1
        0x080068ee:    d105        ..      BNE      0x80068fc ; radar_init + 688
        0x080068f0:    7921        !y      LDRB     r1,[r4,#4]
        0x080068f2:    4301        .C      ORRS     r1,r1,r0
        0x080068f4:    7121        !q      STRB     r1,[r4,#4]
        0x080068f6:    7b20         {      LDRB     r0,[r4,#0xc]
        0x080068f8:    4310        .C      ORRS     r0,r0,r2
        0x080068fa:    7320         s      STRB     r0,[r4,#0xc]
        0x080068fc:    7d20         }      LDRB     r0,[r4,#0x14]
        0x080068fe:    2101        .!      MOVS     r1,#1
        0x08006900:    910a        ..      STR      r1,[sp,#0x28]
        0x08006902:    4308        .C      ORRS     r0,r0,r1
        0x08006904:    7520         u      STRB     r0,[r4,#0x14]
        0x08006906:    7870        px      LDRB     r0,[r6,#1]
        0x08006908:    0040        @.      LSLS     r0,r0,#1
        0x0800690a:    4939        9I      LDR      r1,[pc,#228] ; [0x80069f0] = 0x8007410
        0x0800690c:    5c0a        .\      LDRB     r2,[r1,r0]
        0x0800690e:    9e05        ..      LDR      r6,[sp,#0x14]
        0x08006910:    4032        2@      ANDS     r2,r2,r6
        0x08006912:    7da3        .}      LDRB     r3,[r4,#0x16]
        0x08006914:    4625        %F      MOV      r5,r4
        0x08006916:    9c0d        ..      LDR      r4,[sp,#0x34]
        0x08006918:    4023        #@      ANDS     r3,r3,r4
        0x0800691a:    18d3        ..      ADDS     r3,r2,r3
        0x0800691c:    75ab        .u      STRB     r3,[r5,#0x16]
        0x0800691e:    7deb        .}      LDRB     r3,[r5,#0x17]
        0x08006920:    4023        #@      ANDS     r3,r3,r4
        0x08006922:    189a        ..      ADDS     r2,r3,r2
        0x08006924:    75ea        .u      STRB     r2,[r5,#0x17]
        0x08006926:    1808        ..      ADDS     r0,r1,r0
        0x08006928:    7840        @x      LDRB     r0,[r0,#1]
        0x0800692a:    4030        0@      ANDS     r0,r0,r6
        0x0800692c:    7e29        )~      LDRB     r1,[r5,#0x18]
        0x0800692e:    4021        !@      ANDS     r1,r1,r4
        0x08006930:    462c        ,F      MOV      r4,r5
        0x08006932:    1840        @.      ADDS     r0,r0,r1
        0x08006934:    7628        (v      STRB     r0,[r5,#0x18]
        0x08006936:    7d68        h}      LDRB     r0,[r5,#0x15]
        0x08006938:    26fe        .&      MOVS     r6,#0xfe
        0x0800693a:    4030        0@      ANDS     r0,r0,r6
        0x0800693c:    7568        hu      STRB     r0,[r5,#0x15]
        0x0800693e:    7da8        .}      LDRB     r0,[r5,#0x16]
        0x08006940:    25bf        .%      MOVS     r5,#0xbf
        0x08006942:    4028        (@      ANDS     r0,r0,r5
        0x08006944:    75a0        .u      STRB     r0,[r4,#0x16]
        0x08006946:    7de0        .}      LDRB     r0,[r4,#0x17]
        0x08006948:    4028        (@      ANDS     r0,r0,r5
        0x0800694a:    75e0        .u      STRB     r0,[r4,#0x17]
        0x0800694c:    2005        .       MOVS     r0,#5
        0x0800694e:    f7f9fd07    ....    BL       delay_us ; 0x8000360
        0x08006952:    7c20         |      LDRB     r0,[r4,#0x10]
        0x08006954:    4028        (@      ANDS     r0,r0,r5
        0x08006956:    7420         t      STRB     r0,[r4,#0x10]
        0x08006958:    7820         x      LDRB     r0,[r4,#0]
        0x0800695a:    9906        ..      LDR      r1,[sp,#0x18]
        0x0800695c:    4008        .@      ANDS     r0,r0,r1
        0x0800695e:    7020         p      STRB     r0,[r4,#0]
        0x08006960:    7a20         z      LDRB     r0,[r4,#8]
        0x08006962:    9a0c        ..      LDR      r2,[sp,#0x30]
        0x08006964:    4010        .@      ANDS     r0,r0,r2
        0x08006966:    7220         r      STRB     r0,[r4,#8]
        0x08006968:    980b        ..      LDR      r0,[sp,#0x2c]
        0x0800696a:    7880        .x      LDRB     r0,[r0,#2]
        0x0800696c:    2801        .(      CMP      r0,#1
        0x0800696e:    d109        ..      BNE      0x8006984 ; radar_init + 824
        0x08006970:    7c60        `|      LDRB     r0,[r4,#0x11]
        0x08006972:    4028        (@      ANDS     r0,r0,r5
        0x08006974:    7460        `t      STRB     r0,[r4,#0x11]
        0x08006976:    7920         y      LDRB     r0,[r4,#4]
        0x08006978:    4008        .@      ANDS     r0,r0,r1
        0x0800697a:    7120         q      STRB     r0,[r4,#4]
        0x0800697c:    7b20         {      LDRB     r0,[r4,#0xc]
        0x0800697e:    990c        ..      LDR      r1,[sp,#0x30]
        0x08006980:    4008        .@      ANDS     r0,r0,r1
        0x08006982:    7320         s      STRB     r0,[r4,#0xc]
        0x08006984:    7d20         }      LDRB     r0,[r4,#0x14]
        0x08006986:    4030        0@      ANDS     r0,r0,r6
        0x08006988:    7520         u      STRB     r0,[r4,#0x14]
        0x0800698a:    2005        .       MOVS     r0,#5
        0x0800698c:    f7f9fce8    ....    BL       delay_us ; 0x8000360
        0x08006990:    7a20         z      LDRB     r0,[r4,#8]
        0x08006992:    21fb        .!      MOVS     r1,#0xfb
        0x08006994:    4008        .@      ANDS     r0,r0,r1
        0x08006996:    7220         r      STRB     r0,[r4,#8]
        0x08006998:    980e        ..      LDR      r0,[sp,#0x38]
        0x0800699a:    7800        .x      LDRB     r0,[r0,#0]
        0x0800699c:    2801        .(      CMP      r0,#1
        0x0800699e:    d102        ..      BNE      0x80069a6 ; radar_init + 858
        0x080069a0:    7b22        "{      LDRB     r2,[r4,#0xc]
        0x080069a2:    400a        .@      ANDS     r2,r2,r1
        0x080069a4:    7322        "s      STRB     r2,[r4,#0xc]
        0x080069a6:    7d21        !}      LDRB     r1,[r4,#0x14]
        0x080069a8:    9a0c        ..      LDR      r2,[sp,#0x30]
        0x080069aa:    4011        .@      ANDS     r1,r1,r2
        0x080069ac:    7521        !u      STRB     r1,[r4,#0x14]
        0x080069ae:    4a0e        .J      LDR      r2,[pc,#56] ; [0x80069e8] = 0x40103041
        0x080069b0:    7891        .x      LDRB     r1,[r2,#2]
        0x080069b2:    9b07        ..      LDR      r3,[sp,#0x1c]
        0x080069b4:    4019        .@      ANDS     r1,r1,r3
        0x080069b6:    7091        .p      STRB     r1,[r2,#2]
        0x080069b8:    7ab9        .z      LDRB     r1,[r7,#0xa]
        0x080069ba:    9a0a        ..      LDR      r2,[sp,#0x28]
        0x080069bc:    4311        .C      ORRS     r1,r1,r2
        0x080069be:    72b9        .r      STRB     r1,[r7,#0xa]
        0x080069c0:    7a79        yz      LDRB     r1,[r7,#9]
        0x080069c2:    9a08        ..      LDR      r2,[sp,#0x20]
        0x080069c4:    4311        .C      ORRS     r1,r1,r2
        0x080069c6:    7279        yr      STRB     r1,[r7,#9]
        0x080069c8:    7e21        !~      LDRB     r1,[r4,#0x18]
        0x080069ca:    4019        .@      ANDS     r1,r1,r3
        0x080069cc:    7621        !v      STRB     r1,[r4,#0x18]
        0x080069ce:    498e        .I      LDR      r1,[pc,#568] ; [0x8006c08] = 0x20001278
        0x080069d0:    7008        .p      STRB     r0,[r1,#0]
        0x080069d2:    b00f        ..      ADD      sp,sp,#0x3c
        0x080069d4:    bdf0        ..      POP      {r4-r7,pc}
        0x080069d6:    46c0        .F      MOV      r8,r8
    $d.35
    __arm_cp.17_0
        0x080069d8:    00231860    `.#.    DCD    2300000
    __arm_cp.17_1
        0x080069dc:    4010344f    O4.@    DCD    1074803791
    __arm_cp.17_2
        0x080069e0:    40103000    .0.@    DCD    1074802688
    __arm_cp.17_3
        0x080069e4:    40103021    !0.@    DCD    1074802721
    __arm_cp.17_4
        0x080069e8:    40103041    A0.@    DCD    1074802753
    __arm_cp.17_5
        0x080069ec:    200012d3    ...     DCD    536875731
    __arm_cp.17_6
        0x080069f0:    08007410    .t..    DCD    134247440
    $t.4
    radar_isr
        0x080069f4:    b510        ..      PUSH     {r4,lr}
        0x080069f6:    4c0c        .L      LDR      r4,[pc,#48] ; [0x8006a28] = 0x40010034
        0x080069f8:    6860        `h      LDR      r0,[r4,#4]
        0x080069fa:    0701        ..      LSLS     r1,r0,#28
        0x080069fc:    d002        ..      BEQ      0x8006a04 ; radar_isr + 16
        0x080069fe:    f7fffb2f    ../.    BL       fft_isr ; 0x8006060
        0x08006a02:    bd10        ..      POP      {r4,pc}
        0x08006a04:    0681        ..      LSLS     r1,r0,#26
        0x08006a06:    d40c        ..      BMI      0x8006a22 ; radar_isr + 46
        0x08006a08:    0600        ..      LSLS     r0,r0,#24
        0x08006a0a:    d509        ..      BPL      0x8006a20 ; radar_isr + 44
        0x08006a0c:    4819        .H      LDR      r0,[pc,#100] ; [0x8006a74] = 0x20001274
        0x08006a0e:    6800        .h      LDR      r0,[r0,#0]
        0x08006a10:    2800        .(      CMP      r0,#0
        0x08006a12:    d000        ..      BEQ      0x8006a16 ; radar_isr + 34
        0x08006a14:    4780        .G      BLX      r0
        0x08006a16:    2001        .       MOVS     r0,#1
        0x08006a18:    03c0        ..      LSLS     r0,r0,#15
        0x08006a1a:    6821        !h      LDR      r1,[r4,#0]
        0x08006a1c:    4301        .C      ORRS     r1,r1,r0
        0x08006a1e:    6021        !`      STR      r1,[r4,#0]
        0x08006a20:    bd10        ..      POP      {r4,pc}
        0x08006a22:    f7fefd5f    .._.    BL       cfar_isr ; 0x80054e4
        0x08006a26:    bd10        ..      POP      {r4,pc}
    $d.5
    __arm_cp.2_0
        0x08006a28:    40010034    4..@    DCD    1073807412
    $t.8
    radar_lp_enter
        0x08006a2c:    b580        ..      PUSH     {r7,lr}
        0x08006a2e:    4825        %H      LDR      r0,[pc,#148] ; [0x8006ac4] = 0x20001270
        0x08006a30:    7800        .x      LDRB     r0,[r0,#0]
        0x08006a32:    2801        .(      CMP      r0,#1
        0x08006a34:    d107        ..      BNE      0x8006a46 ; radar_lp_enter + 26
        0x08006a36:    4827        'H      LDR      r0,[pc,#156] ; [0x8006ad4] = 0x20001060
        0x08006a38:    7800        .x      LDRB     r0,[r0,#0]
        0x08006a3a:    f7fcfcd9    ....    BL       timer_start ; 0x80033f0
        0x08006a3e:    4872        rH      LDR      r0,[pc,#456] ; [0x8006c08] = 0x20001278
        0x08006a40:    7800        .x      LDRB     r0,[r0,#0]
        0x08006a42:    f7fffcb3    ....    BL       radar_deinit ; 0x80063ac
        0x08006a46:    bd80        ..      POP      {r7,pc}
    radar_lp_exit
        0x08006a48:    b580        ..      PUSH     {r7,lr}
        0x08006a4a:    48e9        .H      LDR      r0,[pc,#932] ; [0x8006df0] = 0x20001278
        0x08006a4c:    7800        .x      LDRB     r0,[r0,#0]
        0x08006a4e:    f000f8dd    ....    BL       radar_rf_init ; 0x8006c0c
        0x08006a52:    4820         H      LDR      r0,[pc,#128] ; [0x8006ad4] = 0x20001060
        0x08006a54:    7800        .x      LDRB     r0,[r0,#0]
        0x08006a56:    f7fcfcd7    ....    BL       timer_stop ; 0x8003408
        0x08006a5a:    bd80        ..      POP      {r7,pc}
    radar_lp_init
        0x08006a5c:    b580        ..      PUSH     {r7,lr}
        0x08006a5e:    4905        .I      LDR      r1,[pc,#20] ; [0x8006a74] = 0x20001274
        0x08006a60:    4a05        .J      LDR      r2,[pc,#20] ; [0x8006a78] = 0x8006a2d
        0x08006a62:    600a        .`      STR      r2,[r1,#0]
        0x08006a64:    491b        .I      LDR      r1,[pc,#108] ; [0x8006ad4] = 0x20001060
        0x08006a66:    7008        .p      STRB     r0,[r1,#0]
        0x08006a68:    4904        .I      LDR      r1,[pc,#16] ; [0x8006a7c] = 0x8006a49
        0x08006a6a:    f7fcfd0b    ....    BL       timer_cb_set ; 0x8003484
        0x08006a6e:    f000f811    ....    BL       radar_lp_resume ; 0x8006a94
        0x08006a72:    bd80        ..      POP      {r7,pc}
    $d.7
    __arm_cp.3_0
        0x08006a74:    20001274    t..     DCD    536875636
    __arm_cp.3_1
        0x08006a78:    08006a2d    -j..    DCD    134244909
    __arm_cp.3_3
        0x08006a7c:    08006a49    Ij..    DCD    134244937
    $t.16
    radar_lp_pause
        0x08006a80:    b580        ..      PUSH     {r7,lr}
        0x08006a82:    4814        .H      LDR      r0,[pc,#80] ; [0x8006ad4] = 0x20001060
        0x08006a84:    7800        .x      LDRB     r0,[r0,#0]
        0x08006a86:    f7fcfcbf    ....    BL       timer_stop ; 0x8003408
        0x08006a8a:    480e        .H      LDR      r0,[pc,#56] ; [0x8006ac4] = 0x20001270
        0x08006a8c:    2100        .!      MOVS     r1,#0
        0x08006a8e:    7001        .p      STRB     r1,[r0,#0]
        0x08006a90:    bd80        ..      POP      {r7,pc}
        0x08006a92:    46c0        .F      MOV      r8,r8
    radar_lp_resume
        0x08006a94:    b5b0        ..      PUSH     {r4,r5,r7,lr}
        0x08006a96:    f7fffd95    ....    BL       radar_frame_interval_get ; 0x80065c4
        0x08006a9a:    4604        .F      MOV      r4,r0
        0x08006a9c:    f7fcf858    ..X.    BL       clk_mcu_get ; 0x8002b50
        0x08006aa0:    4908        .I      LDR      r1,[pc,#32] ; [0x8006ac4] = 0x20001270
        0x08006aa2:    2201        ."      MOVS     r2,#1
        0x08006aa4:    700a        .p      STRB     r2,[r1,#0]
        0x08006aa6:    4908        .I      LDR      r1,[pc,#32] ; [0x8006ac8] = 0xf4240
        0x08006aa8:    f7fdf801    ....    BL       __aeabi_uidiv ; 0x8003aae
        0x08006aac:    4605        .F      MOV      r5,r0
        0x08006aae:    4365        eC      MULS     r5,r4,r5
        0x08006ab0:    4c08        .L      LDR      r4,[pc,#32] ; [0x8006ad4] = 0x20001060
        0x08006ab2:    7820         x      LDRB     r0,[r4,#0]
        0x08006ab4:    4629        )F      MOV      r1,r5
        0x08006ab6:    f7fcfccb    ....    BL       timer_reload_set ; 0x8003450
        0x08006aba:    7820         x      LDRB     r0,[r4,#0]
        0x08006abc:    4629        )F      MOV      r1,r5
        0x08006abe:    f7fcfcb7    ....    BL       timer_value_set ; 0x8003430
        0x08006ac2:    bdb0        ..      POP      {r4,r5,r7,pc}
    $d.13
    __arm_cp.6_0
        0x08006ac4:    20001270    p..     DCD    536875632
    __arm_cp.6_1
        0x08006ac8:    000f4240    @B..    DCD    1000000
    $t.14
    radar_lp_timer_get
        0x08006acc:    4801        .H      LDR      r0,[pc,#4] ; [0x8006ad4] = 0x20001060
        0x08006ace:    7800        .x      LDRB     r0,[r0,#0]
        0x08006ad0:    4770        pG      BX       lr
        0x08006ad2:    46c0        .F      MOV      r8,r8
    $d.15
    __arm_cp.7_0
        0x08006ad4:    20001060    `..     DCD    536875104
    $t.56
    radar_param_hpf1_freq_get
        0x08006ad8:    4817        .H      LDR      r0,[pc,#92] ; [0x8006b38] = 0x40103002
        0x08006ada:    7800        .x      LDRB     r0,[r0,#0]
        0x08006adc:    0680        ..      LSLS     r0,r0,#26
        0x08006ade:    0f40        @.      LSRS     r0,r0,#29
        0x08006ae0:    4770        pG      BX       lr
        0x08006ae2:    46c0        .F      MOV      r8,r8
    radar_param_hpf1_freq_set
        0x08006ae4:    4914        .I      LDR      r1,[pc,#80] ; [0x8006b38] = 0x40103002
        0x08006ae6:    780b        .x      LDRB     r3,[r1,#0]
        0x08006ae8:    22c7        ."      MOVS     r2,#0xc7
        0x08006aea:    4013        .@      ANDS     r3,r3,r2
        0x08006aec:    0740        @.      LSLS     r0,r0,#29
        0x08006aee:    0e80        ..      LSRS     r0,r0,#26
        0x08006af0:    181b        ..      ADDS     r3,r3,r0
        0x08006af2:    700b        .p      STRB     r3,[r1,#0]
        0x08006af4:    4bc2        .K      LDR      r3,[pc,#776] ; [0x8006e00] = 0x20001278
        0x08006af6:    781b        .x      LDRB     r3,[r3,#0]
        0x08006af8:    2b01        .+      CMP      r3,#1
        0x08006afa:    d103        ..      BNE      0x8006b04 ; radar_param_hpf1_freq_set + 32
        0x08006afc:    790b        .y      LDRB     r3,[r1,#4]
        0x08006afe:    4013        .@      ANDS     r3,r3,r2
        0x08006b00:    4303        .C      ORRS     r3,r3,r0
        0x08006b02:    710b        .q      STRB     r3,[r1,#4]
        0x08006b04:    4770        pG      BX       lr
        0x08006b06:    46c0        .F      MOV      r8,r8
    radar_param_hpf1_gain_get
        0x08006b08:    480b        .H      LDR      r0,[pc,#44] ; [0x8006b38] = 0x40103002
        0x08006b0a:    7801        .x      LDRB     r1,[r0,#0]
        0x08006b0c:    2007        .       MOVS     r0,#7
        0x08006b0e:    4008        .@      ANDS     r0,r0,r1
        0x08006b10:    4770        pG      BX       lr
        0x08006b12:    46c0        .F      MOV      r8,r8
    radar_param_hpf1_gain_set
        0x08006b14:    2107        .!      MOVS     r1,#7
        0x08006b16:    4001        .@      ANDS     r1,r1,r0
        0x08006b18:    4807        .H      LDR      r0,[pc,#28] ; [0x8006b38] = 0x40103002
        0x08006b1a:    7803        .x      LDRB     r3,[r0,#0]
        0x08006b1c:    22f8        ."      MOVS     r2,#0xf8
        0x08006b1e:    4013        .@      ANDS     r3,r3,r2
        0x08006b20:    185b        [.      ADDS     r3,r3,r1
        0x08006b22:    7003        .p      STRB     r3,[r0,#0]
        0x08006b24:    4bb6        .K      LDR      r3,[pc,#728] ; [0x8006e00] = 0x20001278
        0x08006b26:    781b        .x      LDRB     r3,[r3,#0]
        0x08006b28:    2b01        .+      CMP      r3,#1
        0x08006b2a:    d103        ..      BNE      0x8006b34 ; radar_param_hpf1_gain_set + 32
        0x08006b2c:    7903        .y      LDRB     r3,[r0,#4]
        0x08006b2e:    4013        .@      ANDS     r3,r3,r2
        0x08006b30:    1859        Y.      ADDS     r1,r3,r1
        0x08006b32:    7101        .q      STRB     r1,[r0,#4]
        0x08006b34:    4770        pG      BX       lr
        0x08006b36:    46c0        .F      MOV      r8,r8
    $d.55
    __arm_cp.27_0
        0x08006b38:    40103002    .0.@    DCD    1074802690
    $t.64
    radar_param_hpf2_freq_get
        0x08006b3c:    4817        .H      LDR      r0,[pc,#92] ; [0x8006b9c] = 0x40103009
        0x08006b3e:    7801        .x      LDRB     r1,[r0,#0]
        0x08006b40:    2007        .       MOVS     r0,#7
        0x08006b42:    4008        .@      ANDS     r0,r0,r1
        0x08006b44:    4770        pG      BX       lr
        0x08006b46:    46c0        .F      MOV      r8,r8
    radar_param_hpf2_freq_set
        0x08006b48:    2107        .!      MOVS     r1,#7
        0x08006b4a:    4001        .@      ANDS     r1,r1,r0
        0x08006b4c:    4813        .H      LDR      r0,[pc,#76] ; [0x8006b9c] = 0x40103009
        0x08006b4e:    7803        .x      LDRB     r3,[r0,#0]
        0x08006b50:    22f8        ."      MOVS     r2,#0xf8
        0x08006b52:    4013        .@      ANDS     r3,r3,r2
        0x08006b54:    185b        [.      ADDS     r3,r3,r1
        0x08006b56:    7003        .p      STRB     r3,[r0,#0]
        0x08006b58:    4bee        .K      LDR      r3,[pc,#952] ; [0x8006f14] = 0x20001278
        0x08006b5a:    781b        .x      LDRB     r3,[r3,#0]
        0x08006b5c:    2b01        .+      CMP      r3,#1
        0x08006b5e:    d103        ..      BNE      0x8006b68 ; radar_param_hpf2_freq_set + 32
        0x08006b60:    7903        .y      LDRB     r3,[r0,#4]
        0x08006b62:    4013        .@      ANDS     r3,r3,r2
        0x08006b64:    1859        Y.      ADDS     r1,r3,r1
        0x08006b66:    7101        .q      STRB     r1,[r0,#4]
        0x08006b68:    4770        pG      BX       lr
        0x08006b6a:    46c0        .F      MOV      r8,r8
    radar_param_hpf2_gain_get
        0x08006b6c:    480b        .H      LDR      r0,[pc,#44] ; [0x8006b9c] = 0x40103009
        0x08006b6e:    7800        .x      LDRB     r0,[r0,#0]
        0x08006b70:    0680        ..      LSLS     r0,r0,#26
        0x08006b72:    0f40        @.      LSRS     r0,r0,#29
        0x08006b74:    4770        pG      BX       lr
        0x08006b76:    46c0        .F      MOV      r8,r8
    radar_param_hpf2_gain_set
        0x08006b78:    4908        .I      LDR      r1,[pc,#32] ; [0x8006b9c] = 0x40103009
        0x08006b7a:    780b        .x      LDRB     r3,[r1,#0]
        0x08006b7c:    22c7        ."      MOVS     r2,#0xc7
        0x08006b7e:    4013        .@      ANDS     r3,r3,r2
        0x08006b80:    0740        @.      LSLS     r0,r0,#29
        0x08006b82:    0e80        ..      LSRS     r0,r0,#26
        0x08006b84:    181b        ..      ADDS     r3,r3,r0
        0x08006b86:    700b        .p      STRB     r3,[r1,#0]
        0x08006b88:    4be2        .K      LDR      r3,[pc,#904] ; [0x8006f14] = 0x20001278
        0x08006b8a:    781b        .x      LDRB     r3,[r3,#0]
        0x08006b8c:    2b01        .+      CMP      r3,#1
        0x08006b8e:    d103        ..      BNE      0x8006b98 ; radar_param_hpf2_gain_set + 32
        0x08006b90:    790b        .y      LDRB     r3,[r1,#4]
        0x08006b92:    4013        .@      ANDS     r3,r3,r2
        0x08006b94:    4303        .C      ORRS     r3,r3,r0
        0x08006b96:    710b        .q      STRB     r3,[r1,#4]
        0x08006b98:    4770        pG      BX       lr
        0x08006b9a:    46c0        .F      MOV      r8,r8
    $d.63
    __arm_cp.31_0
        0x08006b9c:    40103009    .0.@    DCD    1074802697
    $t.72
    radar_param_lpf_freq_get
        0x08006ba0:    480b        .H      LDR      r0,[pc,#44] ; [0x8006bd0] = 0x4010300a
        0x08006ba2:    7800        .x      LDRB     r0,[r0,#0]
        0x08006ba4:    0680        ..      LSLS     r0,r0,#26
        0x08006ba6:    0fc0        ..      LSRS     r0,r0,#31
        0x08006ba8:    4770        pG      BX       lr
        0x08006baa:    46c0        .F      MOV      r8,r8
    radar_param_lpf_freq_set
        0x08006bac:    4908        .I      LDR      r1,[pc,#32] ; [0x8006bd0] = 0x4010300a
        0x08006bae:    780b        .x      LDRB     r3,[r1,#0]
        0x08006bb0:    22df        ."      MOVS     r2,#0xdf
        0x08006bb2:    4013        .@      ANDS     r3,r3,r2
        0x08006bb4:    07c0        ..      LSLS     r0,r0,#31
        0x08006bb6:    0e80        ..      LSRS     r0,r0,#26
        0x08006bb8:    181b        ..      ADDS     r3,r3,r0
        0x08006bba:    700b        .p      STRB     r3,[r1,#0]
        0x08006bbc:    4bd5        .K      LDR      r3,[pc,#852] ; [0x8006f14] = 0x20001278
        0x08006bbe:    781b        .x      LDRB     r3,[r3,#0]
        0x08006bc0:    2b01        .+      CMP      r3,#1
        0x08006bc2:    d103        ..      BNE      0x8006bcc ; radar_param_lpf_freq_set + 32
        0x08006bc4:    790b        .y      LDRB     r3,[r1,#4]
        0x08006bc6:    4013        .@      ANDS     r3,r3,r2
        0x08006bc8:    4303        .C      ORRS     r3,r3,r0
        0x08006bca:    710b        .q      STRB     r3,[r1,#4]
        0x08006bcc:    4770        pG      BX       lr
        0x08006bce:    46c0        .F      MOV      r8,r8
    $d.75
    __arm_cp.37_0
        0x08006bd0:    4010300a    .0.@    DCD    1074802698
    $t.68
    radar_param_lpf_gain_get
        0x08006bd4:    480b        .H      LDR      r0,[pc,#44] ; [0x8006c04] = 0x4010300b
        0x08006bd6:    7801        .x      LDRB     r1,[r0,#0]
        0x08006bd8:    2007        .       MOVS     r0,#7
        0x08006bda:    4008        .@      ANDS     r0,r0,r1
        0x08006bdc:    4770        pG      BX       lr
        0x08006bde:    46c0        .F      MOV      r8,r8
    radar_param_lpf_gain_set
        0x08006be0:    2107        .!      MOVS     r1,#7
        0x08006be2:    4001        .@      ANDS     r1,r1,r0
        0x08006be4:    4807        .H      LDR      r0,[pc,#28] ; [0x8006c04] = 0x4010300b
        0x08006be6:    7803        .x      LDRB     r3,[r0,#0]
        0x08006be8:    22f8        ."      MOVS     r2,#0xf8
        0x08006bea:    4013        .@      ANDS     r3,r3,r2
        0x08006bec:    185b        [.      ADDS     r3,r3,r1
        0x08006bee:    7003        .p      STRB     r3,[r0,#0]
        0x08006bf0:    4bc8        .K      LDR      r3,[pc,#800] ; [0x8006f14] = 0x20001278
        0x08006bf2:    781b        .x      LDRB     r3,[r3,#0]
        0x08006bf4:    2b01        .+      CMP      r3,#1
        0x08006bf6:    d103        ..      BNE      0x8006c00 ; radar_param_lpf_gain_set + 32
        0x08006bf8:    7903        .y      LDRB     r3,[r0,#4]
        0x08006bfa:    4013        .@      ANDS     r3,r3,r2
        0x08006bfc:    1859        Y.      ADDS     r1,r3,r1
        0x08006bfe:    7101        .q      STRB     r1,[r0,#4]
        0x08006c00:    4770        pG      BX       lr
        0x08006c02:    46c0        .F      MOV      r8,r8
    $d.71
    __arm_cp.35_0
        0x08006c04:    4010300b    .0.@    DCD    1074802699
    __arm_cp.35_1
        0x08006c08:    20001278    x..     DCD    536875640
    $t.26
    radar_rf_init
        0x08006c0c:    b5f0        ..      PUSH     {r4-r7,lr}
        0x08006c0e:    b083        ..      SUB      sp,sp,#0xc
        0x08006c10:    9002        ..      STR      r0,[sp,#8]
        0x08006c12:    f000f98f    ....    BL       $Ven$TT$L$$critical_section_start ; 0x8006f34
        0x08006c16:    486f        oH      LDR      r0,[pc,#444] ; [0x8006dd4] = 0x4010344f
        0x08006c18:    7800        .x      LDRB     r0,[r0,#0]
        0x08006c1a:    9000        ..      STR      r0,[sp,#0]
        0x08006c1c:    2007        .       MOVS     r0,#7
        0x08006c1e:    f7fffb05    ....    BL       pmu_set_dig_vcore ; 0x800622c
        0x08006c22:    2501        .%      MOVS     r5,#1
        0x08006c24:    9501        ..      STR      r5,[sp,#4]
        0x08006c26:    4628        (F      MOV      r0,r5
        0x08006c28:    f7f9fb9a    ....    BL       delay_us ; 0x8000360
        0x08006c2c:    4f6a        jO      LDR      r7,[pc,#424] ; [0x8006dd8] = 0x40103000
        0x08006c2e:    7ff8        ..      LDRB     r0,[r7,#0x1f]
        0x08006c30:    4328        (C      ORRS     r0,r0,r5
        0x08006c32:    77f8        .w      STRB     r0,[r7,#0x1f]
        0x08006c34:    4c69        iL      LDR      r4,[pc,#420] ; [0x8006ddc] = 0x40103021
        0x08006c36:    7820         x      LDRB     r0,[r4,#0]
        0x08006c38:    4328        (C      ORRS     r0,r0,r5
        0x08006c3a:    7020         p      STRB     r0,[r4,#0]
        0x08006c3c:    78a0        .x      LDRB     r0,[r4,#2]
        0x08006c3e:    4328        (C      ORRS     r0,r0,r5
        0x08006c40:    70a0        .p      STRB     r0,[r4,#2]
        0x08006c42:    2602        .&      MOVS     r6,#2
        0x08006c44:    4630        0F      MOV      r0,r6
        0x08006c46:    f7f9fb8b    ....    BL       delay_us ; 0x8000360
        0x08006c4a:    20f8        .       MOVS     r0,#0xf8
        0x08006c4c:    9900        ..      LDR      r1,[sp,#0]
        0x08006c4e:    4008        .@      ANDS     r0,r0,r1
        0x08006c50:    1cc0        ..      ADDS     r0,r0,#3
        0x08006c52:    4960        `I      LDR      r1,[pc,#384] ; [0x8006dd4] = 0x4010344f
        0x08006c54:    7008        .p      STRB     r0,[r1,#0]
        0x08006c56:    f000f967    ..g.    BL       $Ven$TT$L$$critical_section_end ; 0x8006f28
        0x08006c5a:    7b21        !{      LDRB     r1,[r4,#0xc]
        0x08006c5c:    2080        .       MOVS     r0,#0x80
        0x08006c5e:    9000        ..      STR      r0,[sp,#0]
        0x08006c60:    4301        .C      ORRS     r1,r1,r0
        0x08006c62:    7321        !s      STRB     r1,[r4,#0xc]
        0x08006c64:    7b61        a{      LDRB     r1,[r4,#0xd]
        0x08006c66:    2210        ."      MOVS     r2,#0x10
        0x08006c68:    4311        .C      ORRS     r1,r1,r2
        0x08006c6a:    7361        as      STRB     r1,[r4,#0xd]
        0x08006c6c:    7ba1        .{      LDRB     r1,[r4,#0xe]
        0x08006c6e:    2342        B#      MOVS     r3,#0x42
        0x08006c70:    430b        .C      ORRS     r3,r3,r1
        0x08006c72:    73a3        .s      STRB     r3,[r4,#0xe]
        0x08006c74:    7f21        !.      LDRB     r1,[r4,#0x1c]
        0x08006c76:    4331        1C      ORRS     r1,r1,r6
        0x08006c78:    7721        !w      STRB     r1,[r4,#0x1c]
        0x08006c7a:    4859        YH      LDR      r0,[pc,#356] ; [0x8006de0] = 0x40103041
        0x08006c7c:    78c1        .x      LDRB     r1,[r0,#3]
        0x08006c7e:    4331        1C      ORRS     r1,r1,r6
        0x08006c80:    70c1        .p      STRB     r1,[r0,#3]
        0x08006c82:    7b23        #{      LDRB     r3,[r4,#0xc]
        0x08006c84:    2140        @!      MOVS     r1,#0x40
        0x08006c86:    430b        .C      ORRS     r3,r3,r1
        0x08006c88:    7323        #s      STRB     r3,[r4,#0xc]
        0x08006c8a:    7b63        c{      LDRB     r3,[r4,#0xd]
        0x08006c8c:    2008        .       MOVS     r0,#8
        0x08006c8e:    4303        .C      ORRS     r3,r3,r0
        0x08006c90:    7363        cs      STRB     r3,[r4,#0xd]
        0x08006c92:    7ba5        .{      LDRB     r5,[r4,#0xe]
        0x08006c94:    2321        !#      MOVS     r3,#0x21
        0x08006c96:    431d        .C      ORRS     r5,r5,r3
        0x08006c98:    73a5        .s      STRB     r5,[r4,#0xe]
        0x08006c9a:    7be5        .{      LDRB     r5,[r4,#0xf]
        0x08006c9c:    4305        .C      ORRS     r5,r5,r0
        0x08006c9e:    73e5        .s      STRB     r5,[r4,#0xf]
        0x08006ca0:    7fb8        ..      LDRB     r0,[r7,#0x1e]
        0x08006ca2:    25e0        .%      MOVS     r5,#0xe0
        0x08006ca4:    4305        .C      ORRS     r5,r5,r0
        0x08006ca6:    77bd        .w      STRB     r5,[r7,#0x1e]
        0x08006ca8:    78a0        .x      LDRB     r0,[r4,#2]
        0x08006caa:    4330        0C      ORRS     r0,r0,r6
        0x08006cac:    70a0        .p      STRB     r0,[r4,#2]
        0x08006cae:    7a60        `z      LDRB     r0,[r4,#9]
        0x08006cb0:    2544        D%      MOVS     r5,#0x44
        0x08006cb2:    4305        .C      ORRS     r5,r5,r0
        0x08006cb4:    7265        er      STRB     r5,[r4,#9]
        0x08006cb6:    7be0        .{      LDRB     r0,[r4,#0xf]
        0x08006cb8:    4310        .C      ORRS     r0,r0,r2
        0x08006cba:    73e0        .s      STRB     r0,[r4,#0xf]
        0x08006cbc:    7ea0        .~      LDRB     r0,[r4,#0x1a]
        0x08006cbe:    4318        .C      ORRS     r0,r0,r3
        0x08006cc0:    9b01        ..      LDR      r3,[sp,#4]
        0x08006cc2:    76a0        .v      STRB     r0,[r4,#0x1a]
        0x08006cc4:    7f20         .      LDRB     r0,[r4,#0x1c]
        0x08006cc6:    4318        .C      ORRS     r0,r0,r3
        0x08006cc8:    7720         w      STRB     r0,[r4,#0x1c]
        0x08006cca:    7fe0        ..      LDRB     r0,[r4,#0x1f]
        0x08006ccc:    9a00        ..      LDR      r2,[sp,#0]
        0x08006cce:    4310        .C      ORRS     r0,r0,r2
        0x08006cd0:    77e0        .w      STRB     r0,[r4,#0x1f]
        0x08006cd2:    4a43        CJ      LDR      r2,[pc,#268] ; [0x8006de0] = 0x40103041
        0x08006cd4:    7810        .x      LDRB     r0,[r2,#0]
        0x08006cd6:    4318        .C      ORRS     r0,r0,r3
        0x08006cd8:    7010        .p      STRB     r0,[r2,#0]
        0x08006cda:    7ef8        .~      LDRB     r0,[r7,#0x1b]
        0x08006cdc:    4318        .C      ORRS     r0,r0,r3
        0x08006cde:    76f8        .v      STRB     r0,[r7,#0x1b]
        0x08006ce0:    7f38        8.      LDRB     r0,[r7,#0x1c]
        0x08006ce2:    2220         "      MOVS     r2,#0x20
        0x08006ce4:    4302        .C      ORRS     r2,r2,r0
        0x08006ce6:    773a        :w      STRB     r2,[r7,#0x1c]
        0x08006ce8:    7f78        x.      LDRB     r0,[r7,#0x1d]
        0x08006cea:    4308        .C      ORRS     r0,r0,r1
        0x08006cec:    7778        xw      STRB     r0,[r7,#0x1d]
        0x08006cee:    7ea0        .~      LDRB     r0,[r4,#0x1a]
        0x08006cf0:    4308        .C      ORRS     r0,r0,r1
        0x08006cf2:    76a0        .v      STRB     r0,[r4,#0x1a]
        0x08006cf4:    7cb8        .|      LDRB     r0,[r7,#0x12]
        0x08006cf6:    9902        ..      LDR      r1,[sp,#8]
        0x08006cf8:    2900        .)      CMP      r1,#0
        0x08006cfa:    d006        ..      BEQ      0x8006d0a ; radar_rf_init + 254
        0x08006cfc:    2163        c!      MOVS     r1,#0x63
        0x08006cfe:    4308        .C      ORRS     r0,r0,r1
        0x08006d00:    74b8        .t      STRB     r0,[r7,#0x12]
        0x08006d02:    7c79        y|      LDRB     r1,[r7,#0x11]
        0x08006d04:    2050        P       MOVS     r0,#0x50
        0x08006d06:    4308        .C      ORRS     r0,r0,r1
        0x08006d08:    e009        ..      B        0x8006d1e ; radar_rf_init + 274
        0x08006d0a:    2103        .!      MOVS     r1,#3
        0x08006d0c:    4308        .C      ORRS     r0,r0,r1
        0x08006d0e:    74b8        .t      STRB     r0,[r7,#0x12]
        0x08006d10:    7cb8        .|      LDRB     r0,[r7,#0x12]
        0x08006d12:    219f        .!      MOVS     r1,#0x9f
        0x08006d14:    4001        .@      ANDS     r1,r1,r0
        0x08006d16:    74b9        .t      STRB     r1,[r7,#0x12]
        0x08006d18:    7c78        x|      LDRB     r0,[r7,#0x11]
        0x08006d1a:    2150        P!      MOVS     r1,#0x50
        0x08006d1c:    4388        .C      BICS     r0,r0,r1
        0x08006d1e:    7478        xt      STRB     r0,[r7,#0x11]
        0x08006d20:    7c38        8|      LDRB     r0,[r7,#0x10]
        0x08006d22:    2150        P!      MOVS     r1,#0x50
        0x08006d24:    4301        .C      ORRS     r1,r1,r0
        0x08006d26:    7439        9t      STRB     r1,[r7,#0x10]
        0x08006d28:    7d38        8}      LDRB     r0,[r7,#0x14]
        0x08006d2a:    210c        .!      MOVS     r1,#0xc
        0x08006d2c:    4301        .C      ORRS     r1,r1,r0
        0x08006d2e:    7539        9u      STRB     r1,[r7,#0x14]
        0x08006d30:    7839        9x      LDRB     r1,[r7,#0]
        0x08006d32:    2017        .       MOVS     r0,#0x17
        0x08006d34:    4301        .C      ORRS     r1,r1,r0
        0x08006d36:    7039        9p      STRB     r1,[r7,#0]
        0x08006d38:    7a3a        :z      LDRB     r2,[r7,#8]
        0x08006d3a:    2103        .!      MOVS     r1,#3
        0x08006d3c:    430a        .C      ORRS     r2,r2,r1
        0x08006d3e:    723a        :r      STRB     r2,[r7,#8]
        0x08006d40:    26fd        .&      MOVS     r6,#0xfd
        0x08006d42:    9a02        ..      LDR      r2,[sp,#8]
        0x08006d44:    2a01        .*      CMP      r2,#1
        0x08006d46:    4635        5F      MOV      r5,r6
        0x08006d48:    d106        ..      BNE      0x8006d58 ; radar_rf_init + 332
        0x08006d4a:    793a        :y      LDRB     r2,[r7,#4]
        0x08006d4c:    4302        .C      ORRS     r2,r2,r0
        0x08006d4e:    713a        :q      STRB     r2,[r7,#4]
        0x08006d50:    7b38        8{      LDRB     r0,[r7,#0xc]
        0x08006d52:    4308        .C      ORRS     r0,r0,r1
        0x08006d54:    7338        8s      STRB     r0,[r7,#0xc]
        0x08006d56:    25bd        .%      MOVS     r5,#0xbd
        0x08006d58:    7d38        8}      LDRB     r0,[r7,#0x14]
        0x08006d5a:    4318        .C      ORRS     r0,r0,r3
        0x08006d5c:    7538        8u      STRB     r0,[r7,#0x14]
        0x08006d5e:    4618        .F      MOV      r0,r3
        0x08006d60:    f7f9fafe    ....    BL       delay_us ; 0x8000360
        0x08006d64:    7b20         {      LDRB     r0,[r4,#0xc]
        0x08006d66:    217f        .!      MOVS     r1,#0x7f
        0x08006d68:    4001        .@      ANDS     r1,r1,r0
        0x08006d6a:    7321        !s      STRB     r1,[r4,#0xc]
        0x08006d6c:    7b61        a{      LDRB     r1,[r4,#0xd]
        0x08006d6e:    20ef        .       MOVS     r0,#0xef
        0x08006d70:    4001        .@      ANDS     r1,r1,r0
        0x08006d72:    7361        as      STRB     r1,[r4,#0xd]
        0x08006d74:    7ba1        .{      LDRB     r1,[r4,#0xe]
        0x08006d76:    22bd        ."      MOVS     r2,#0xbd
        0x08006d78:    400a        .@      ANDS     r2,r2,r1
        0x08006d7a:    73a2        .s      STRB     r2,[r4,#0xe]
        0x08006d7c:    7f21        !.      LDRB     r1,[r4,#0x1c]
        0x08006d7e:    4031        1@      ANDS     r1,r1,r6
        0x08006d80:    7721        !w      STRB     r1,[r4,#0x1c]
        0x08006d82:    4a17        .J      LDR      r2,[pc,#92] ; [0x8006de0] = 0x40103041
        0x08006d84:    78d1        .x      LDRB     r1,[r2,#3]
        0x08006d86:    4031        1@      ANDS     r1,r1,r6
        0x08006d88:    70d1        .p      STRB     r1,[r2,#3]
        0x08006d8a:    7cb9        .|      LDRB     r1,[r7,#0x12]
        0x08006d8c:    4029        )@      ANDS     r1,r1,r5
        0x08006d8e:    74b9        .t      STRB     r1,[r7,#0x12]
        0x08006d90:    7d39        9}      LDRB     r1,[r7,#0x14]
        0x08006d92:    22f7        ."      MOVS     r2,#0xf7
        0x08006d94:    400a        .@      ANDS     r2,r2,r1
        0x08006d96:    753a        :u      STRB     r2,[r7,#0x14]
        0x08006d98:    7c3a        :|      LDRB     r2,[r7,#0x10]
        0x08006d9a:    21bf        .!      MOVS     r1,#0xbf
        0x08006d9c:    400a        .@      ANDS     r2,r2,r1
        0x08006d9e:    743a        :t      STRB     r2,[r7,#0x10]
        0x08006da0:    783a        :x      LDRB     r2,[r7,#0]
        0x08006da2:    4002        .@      ANDS     r2,r2,r0
        0x08006da4:    703a        :p      STRB     r2,[r7,#0]
        0x08006da6:    7a3a        :z      LDRB     r2,[r7,#8]
        0x08006da8:    4032        2@      ANDS     r2,r2,r6
        0x08006daa:    723a        :r      STRB     r2,[r7,#8]
        0x08006dac:    9a02        ..      LDR      r2,[sp,#8]
        0x08006dae:    2a01        .*      CMP      r2,#1
        0x08006db0:    d109        ..      BNE      0x8006dc6 ; radar_rf_init + 442
        0x08006db2:    7c7a        z|      LDRB     r2,[r7,#0x11]
        0x08006db4:    400a        .@      ANDS     r2,r2,r1
        0x08006db6:    747a        zt      STRB     r2,[r7,#0x11]
        0x08006db8:    7939        9y      LDRB     r1,[r7,#4]
        0x08006dba:    4001        .@      ANDS     r1,r1,r0
        0x08006dbc:    7139        9q      STRB     r1,[r7,#4]
        0x08006dbe:    7b38        8{      LDRB     r0,[r7,#0xc]
        0x08006dc0:    21fd        .!      MOVS     r1,#0xfd
        0x08006dc2:    4001        .@      ANDS     r1,r1,r0
        0x08006dc4:    7339        9s      STRB     r1,[r7,#0xc]
        0x08006dc6:    7d38        8}      LDRB     r0,[r7,#0x14]
        0x08006dc8:    21fe        .!      MOVS     r1,#0xfe
        0x08006dca:    4001        .@      ANDS     r1,r1,r0
        0x08006dcc:    7539        9u      STRB     r1,[r7,#0x14]
        0x08006dce:    b003        ..      ADD      sp,sp,#0xc
        0x08006dd0:    bdf0        ..      POP      {r4-r7,pc}
        0x08006dd2:    46c0        .F      MOV      r8,r8
    $d.27
    __arm_cp.13_0
        0x08006dd4:    4010344f    O4.@    DCD    1074803791
    __arm_cp.13_1
        0x08006dd8:    40103000    .0.@    DCD    1074802688
    __arm_cp.13_2
        0x08006ddc:    40103021    !0.@    DCD    1074802721
    __arm_cp.13_3
        0x08006de0:    40103041    A0.@    DCD    1074802753
    $t.28
    radar_rf_pwr_off
        0x08006de4:    b580        ..      PUSH     {r7,lr}
        0x08006de6:    484b        KH      LDR      r0,[pc,#300] ; [0x8006f14] = 0x20001278
        0x08006de8:    7800        .x      LDRB     r0,[r0,#0]
        0x08006dea:    f7fffadf    ....    BL       radar_deinit ; 0x80063ac
        0x08006dee:    bd80        ..      POP      {r7,pc}
    $d.29
    __arm_cp.14_0
        0x08006df0:    20001278    x..     DCD    536875640
    $t.24
    radar_rf_pwr_on
        0x08006df4:    b580        ..      PUSH     {r7,lr}
        0x08006df6:    4847        GH      LDR      r0,[pc,#284] ; [0x8006f14] = 0x20001278
        0x08006df8:    7800        .x      LDRB     r0,[r0,#0]
        0x08006dfa:    f7ffff07    ....    BL       radar_rf_init ; 0x8006c0c
        0x08006dfe:    bd80        ..      POP      {r7,pc}
    $d.25
    __arm_cp.12_0
        0x08006e00:    20001278    x..     DCD    536875640
    $t.38
    radar_rx_pf_cfg
        0x08006e04:    b5f0        ..      PUSH     {r4-r7,lr}
        0x08006e06:    b081        ..      SUB      sp,sp,#4
        0x08006e08:    4914        .I      LDR      r1,[pc,#80] ; [0x8006e5c] = 0x40103001
        0x08006e0a:    2284        ."      MOVS     r2,#0x84
        0x08006e0c:    9200        ..      STR      r2,[sp,#0]
        0x08006e0e:    700a        .p      STRB     r2,[r1,#0]
        0x08006e10:    7842        Bx      LDRB     r2,[r0,#1]
        0x08006e12:    2507        .%      MOVS     r5,#7
        0x08006e14:    402a        *@      ANDS     r2,r2,r5
        0x08006e16:    7883        .x      LDRB     r3,[r0,#2]
        0x08006e18:    075b        [.      LSLS     r3,r3,#29
        0x08006e1a:    0e9b        ..      LSRS     r3,r3,#26
        0x08006e1c:    189b        ..      ADDS     r3,r3,r2
        0x08006e1e:    704b        Kp      STRB     r3,[r1,#1]
        0x08006e20:    2410        .$      MOVS     r4,#0x10
        0x08006e22:    708c        .p      STRB     r4,[r1,#2]
        0x08006e24:    7902        .y      LDRB     r2,[r0,#4]
        0x08006e26:    402a        *@      ANDS     r2,r2,r5
        0x08006e28:    78c6        .x      LDRB     r6,[r0,#3]
        0x08006e2a:    0776        v.      LSLS     r6,r6,#29
        0x08006e2c:    0eb6        ..      LSRS     r6,r6,#26
        0x08006e2e:    18b6        ..      ADDS     r6,r6,r2
        0x08006e30:    720e        .r      STRB     r6,[r1,#8]
        0x08006e32:    7982        .y      LDRB     r2,[r0,#6]
        0x08006e34:    07d2        ..      LSLS     r2,r2,#31
        0x08006e36:    0e97        ..      LSRS     r7,r2,#26
        0x08006e38:    3710        .7      ADDS     r7,r7,#0x10
        0x08006e3a:    724f        Or      STRB     r7,[r1,#9]
        0x08006e3c:    7942        By      LDRB     r2,[r0,#5]
        0x08006e3e:    402a        *@      ANDS     r2,r2,r5
        0x08006e40:    728a        .r      STRB     r2,[r1,#0xa]
        0x08006e42:    7800        .x      LDRB     r0,[r0,#0]
        0x08006e44:    2801        .(      CMP      r0,#1
        0x08006e46:    d106        ..      BNE      0x8006e56 ; radar_rx_pf_cfg + 82
        0x08006e48:    9800        ..      LDR      r0,[sp,#0]
        0x08006e4a:    7108        .q      STRB     r0,[r1,#4]
        0x08006e4c:    714b        Kq      STRB     r3,[r1,#5]
        0x08006e4e:    718c        .q      STRB     r4,[r1,#6]
        0x08006e50:    730e        .s      STRB     r6,[r1,#0xc]
        0x08006e52:    734f        Os      STRB     r7,[r1,#0xd]
        0x08006e54:    738a        .s      STRB     r2,[r1,#0xe]
        0x08006e56:    b001        ..      ADD      sp,sp,#4
        0x08006e58:    bdf0        ..      POP      {r4-r7,pc}
        0x08006e5a:    46c0        .F      MOV      r8,r8
    $d.39
    __arm_cp.19_0
        0x08006e5c:    40103001    .0.@    DCD    1074802689
    $t.4
    radar_subframe_profile_config
        0x08006e60:    b510        ..      PUSH     {r4,lr}
        0x08006e62:    780a        .x      LDRB     r2,[r1,#0]
        0x08006e64:    231f        .#      MOVS     r3,#0x1f
        0x08006e66:    4013        .@      ANDS     r3,r3,r2
        0x08006e68:    784a        Jx      LDRB     r2,[r1,#1]
        0x08006e6a:    06d2        ..      LSLS     r2,r2,#27
        0x08006e6c:    0d92        ..      LSRS     r2,r2,#22
        0x08006e6e:    18d2        ..      ADDS     r2,r2,r3
        0x08006e70:    788b        .x      LDRB     r3,[r1,#2]
        0x08006e72:    06db        ..      LSLS     r3,r3,#27
        0x08006e74:    0c5b        [.      LSRS     r3,r3,#17
        0x08006e76:    18d2        ..      ADDS     r2,r2,r3
        0x08006e78:    78cb        .x      LDRB     r3,[r1,#3]
        0x08006e7a:    06db        ..      LSLS     r3,r3,#27
        0x08006e7c:    0b1b        ..      LSRS     r3,r3,#12
        0x08006e7e:    18d2        ..      ADDS     r2,r2,r3
        0x08006e80:    888b        ..      LDRH     r3,[r1,#4]
        0x08006e82:    1e5b        [.      SUBS     r3,r3,#1
        0x08006e84:    059b        ..      LSLS     r3,r3,#22
        0x08006e86:    089b        ..      LSRS     r3,r3,#2
        0x08006e88:    18d2        ..      ADDS     r2,r2,r3
        0x08006e8a:    798b        .y      LDRB     r3,[r1,#6]
        0x08006e8c:    07db        ..      LSLS     r3,r3,#31
        0x08006e8e:    085b        [.      LSRS     r3,r3,#1
        0x08006e90:    18d2        ..      ADDS     r2,r2,r3
        0x08006e92:    79cb        .y      LDRB     r3,[r1,#7]
        0x08006e94:    07db        ..      LSLS     r3,r3,#31
        0x08006e96:    18d3        ..      ADDS     r3,r2,r3
        0x08006e98:    00c4        ..      LSLS     r4,r0,#3
        0x08006e9a:    4a0e        .J      LDR      r2,[pc,#56] ; [0x8006ed4] = 0x40012010
        0x08006e9c:    50a3        .P      STR      r3,[r4,r2]
        0x08006e9e:    18a3        ..      ADDS     r3,r4,r2
        0x08006ea0:    688c        .h      LDR      r4,[r1,#8]
        0x08006ea2:    605c        \`      STR      r4,[r3,#4]
        0x08006ea4:    2301        .#      MOVS     r3,#1
        0x08006ea6:    4003        .@      ANDS     r3,r3,r0
        0x08006ea8:    68c9        .h      LDR      r1,[r1,#0xc]
        0x08006eaa:    240a        .$      MOVS     r4,#0xa
        0x08006eac:    434c        LC      MULS     r4,r1,r4
        0x08006eae:    3480        .4      ADDS     r4,r4,#0x80
        0x08006eb0:    0a21        !.      LSRS     r1,r4,#8
        0x08006eb2:    2b00        .+      CMP      r3,#0
        0x08006eb4:    d000        ..      BEQ      0x8006eb8 ; radar_subframe_profile_config + 88
        0x08006eb6:    0409        ..      LSLS     r1,r1,#16
        0x08006eb8:    2b00        .+      CMP      r3,#0
        0x08006eba:    d001        ..      BEQ      0x8006ec0 ; radar_subframe_profile_config + 96
        0x08006ebc:    4b07        .K      LDR      r3,[pc,#28] ; [0x8006edc] = 0xffff
        0x08006ebe:    e000        ..      B        0x8006ec2 ; radar_subframe_profile_config + 98
        0x08006ec0:    4b05        .K      LDR      r3,[pc,#20] ; [0x8006ed8] = 0xffff0000
        0x08006ec2:    0840        @.      LSRS     r0,r0,#1
        0x08006ec4:    0080        ..      LSLS     r0,r0,#2
        0x08006ec6:    1880        ..      ADDS     r0,r0,r2
        0x08006ec8:    6c02        .l      LDR      r2,[r0,#0x40]
        0x08006eca:    401a        .@      ANDS     r2,r2,r3
        0x08006ecc:    430a        .C      ORRS     r2,r2,r1
        0x08006ece:    6402        .d      STR      r2,[r0,#0x40]
        0x08006ed0:    bd10        ..      POP      {r4,pc}
        0x08006ed2:    46c0        .F      MOV      r8,r8
    $d.5
    __arm_cp.2_0
        0x08006ed4:    40012010    . .@    DCD    1073815568
    __arm_cp.2_1
        0x08006ed8:    ffff0000    ....    DCD    4294901760
    __arm_cp.2_2
        0x08006edc:    0000ffff    ....    DCD    65535
    $t.2
    radar_tx_profile_config
        0x08006ee0:    790a        .y      LDRB     r2,[r1,#4]
        0x08006ee2:    794b        Ky      LDRB     r3,[r1,#5]
        0x08006ee4:    009b        ..      LSLS     r3,r3,#2
        0x08006ee6:    b2db        ..      UXTB     r3,r3
        0x08006ee8:    4313        .C      ORRS     r3,r3,r2
        0x08006eea:    041a        ..      LSLS     r2,r3,#16
        0x08006eec:    6809        .h      LDR      r1,[r1,#0]
        0x08006eee:    1e49        I.      SUBS     r1,r1,#1
        0x08006ef0:    b289        ..      UXTH     r1,r1
        0x08006ef2:    1851        Q.      ADDS     r1,r2,r1
        0x08006ef4:    0080        ..      LSLS     r0,r0,#2
        0x08006ef6:    4a01        .J      LDR      r2,[pc,#4] ; [0x8006efc] = 0x40012900
        0x08006ef8:    5081        .P      STR      r1,[r0,r2]
        0x08006efa:    4770        pG      BX       lr
    $d.3
    __arm_cp.1_0
        0x08006efc:    40012900    .).@    DCD    1073817856
    $t.22
    radar_ulp_deinit
        0x08006f00:    4807        .H      LDR      r0,[pc,#28] ; [0x8006f20] = 0x20001274
        0x08006f02:    2100        .!      MOVS     r1,#0
        0x08006f04:    6001        .`      STR      r1,[r0,#0]
        0x08006f06:    4770        pG      BX       lr
    radar_ulp_enter
        0x08006f08:    b580        ..      PUSH     {r7,lr}
        0x08006f0a:    4802        .H      LDR      r0,[pc,#8] ; [0x8006f14] = 0x20001278
        0x08006f0c:    7800        .x      LDRB     r0,[r0,#0]
        0x08006f0e:    f7fffa4d    ..M.    BL       radar_deinit ; 0x80063ac
        0x08006f12:    bd80        ..      POP      {r7,pc}
    $d.21
    __arm_cp.10_0
        0x08006f14:    20001278    x..     DCD    536875640
    $t.18
    radar_ulp_init
        0x08006f18:    4801        .H      LDR      r0,[pc,#4] ; [0x8006f20] = 0x20001274
        0x08006f1a:    4902        .I      LDR      r1,[pc,#8] ; [0x8006f24] = 0x8006f09
        0x08006f1c:    6001        .`      STR      r1,[r0,#0]
        0x08006f1e:    4770        pG      BX       lr
    $d.19
    __arm_cp.9_0
        0x08006f20:    20001274    t..     DCD    536875636
    __arm_cp.9_1
        0x08006f24:    08006f09    .o..    DCD    134246153
    $t
    $Ven$TT$L$$critical_section_end
        0x08006f28:    b403        ..      PUSH     {r0,r1}
        0x08006f2a:    4801        .H      LDR      r0,[pc,#4] ; [0x8006f30] = 0x20001025
        0x08006f2c:    9001        ..      STR      r0,[sp,#4]
        0x08006f2e:    bd01        ..      POP      {r0,pc}
    $d
        0x08006f30:    20001025    %..     DCD    536875045
    $t
    $Ven$TT$L$$critical_section_start
        0x08006f34:    b403        ..      PUSH     {r0,r1}
        0x08006f36:    4801        .H      LDR      r0,[pc,#4] ; [0x8006f3c] = 0x20001001
        0x08006f38:    9001        ..      STR      r0,[sp,#4]
        0x08006f3a:    bd01        ..      POP      {r0,pc}
    $d
        0x08006f3c:    20001001    ...     DCD    536875009
    $t
    i.__ARM_common_ll_muluu
    __ARM_common_ll_muluu
        0x08006f40:    b5f8        ..      PUSH     {r3-r7,lr}
        0x08006f42:    0c04        ..      LSRS     r4,r0,#16
        0x08006f44:    b28b        ..      UXTH     r3,r1
        0x08006f46:    4626        &F      MOV      r6,r4
        0x08006f48:    b282        ..      UXTH     r2,r0
        0x08006f4a:    435e        ^C      MULS     r6,r3,r6
        0x08006f4c:    4610        .F      MOV      r0,r2
        0x08006f4e:    4358        XC      MULS     r0,r3,r0
        0x08006f50:    0c0d        ..      LSRS     r5,r1,#16
        0x08006f52:    0c37        7.      LSRS     r7,r6,#16
        0x08006f54:    0436        6.      LSLS     r6,r6,#16
        0x08006f56:    2100        .!      MOVS     r1,#0
        0x08006f58:    1980        ..      ADDS     r0,r0,r6
        0x08006f5a:    4616        .F      MOV      r6,r2
        0x08006f5c:    4179        yA      ADCS     r1,r1,r7
        0x08006f5e:    436e        nC      MULS     r6,r5,r6
        0x08006f60:    0c37        7.      LSRS     r7,r6,#16
        0x08006f62:    0436        6.      LSLS     r6,r6,#16
        0x08006f64:    1980        ..      ADDS     r0,r0,r6
        0x08006f66:    4626        &F      MOV      r6,r4
        0x08006f68:    4179        yA      ADCS     r1,r1,r7
        0x08006f6a:    436e        nC      MULS     r6,r5,r6
        0x08006f6c:    1989        ..      ADDS     r1,r1,r6
        0x08006f6e:    bdf8        ..      POP      {r3-r7,pc}
    i.__ARM_fpclassify
    __ARM_fpclassify
        0x08006f70:    0049        I.      LSLS     r1,r1,#1
        0x08006f72:    02ca        ..      LSLS     r2,r1,#11
        0x08006f74:    4302        .C      ORRS     r2,r2,r0
        0x08006f76:    0010        ..      MOVS     r0,r2
        0x08006f78:    d000        ..      BEQ      0x8006f7c ; __ARM_fpclassify + 12
        0x08006f7a:    2004        .       MOVS     r0,#4
        0x08006f7c:    0d4a        J.      LSRS     r2,r1,#21
        0x08006f7e:    d001        ..      BEQ      0x8006f84 ; __ARM_fpclassify + 20
        0x08006f80:    2201        ."      MOVS     r2,#1
        0x08006f82:    4310        .C      ORRS     r0,r0,r2
        0x08006f84:    4a04        .J      LDR      r2,[pc,#16] ; [0x8006f98] = 0x7ff
        0x08006f86:    0d49        I.      LSRS     r1,r1,#21
        0x08006f88:    4291        .B      CMP      r1,r2
        0x08006f8a:    d101        ..      BNE      0x8006f90 ; __ARM_fpclassify + 32
        0x08006f8c:    2102        .!      MOVS     r1,#2
        0x08006f8e:    4308        .C      ORRS     r0,r0,r1
        0x08006f90:    2801        .(      CMP      r0,#1
        0x08006f92:    d100        ..      BNE      0x8006f96 ; __ARM_fpclassify + 38
        0x08006f94:    2005        .       MOVS     r0,#5
        0x08006f96:    4770        pG      BX       lr
    $d
        0x08006f98:    000007ff    ....    DCD    2047
    $t
    i._dgr
    __aeabi_dcmpgt
    _dgr
        0x08006f9c:    b510        ..      PUSH     {r4,lr}
        0x08006f9e:    f000f85b    ..[.    BL       _dcmpge ; 0x8007058
        0x08006fa2:    f3ef8000    ....    MRS      r0,APSR ; formerly CPSR
        0x08006fa6:    0040        @.      LSLS     r0,r0,#1
        0x08006fa8:    0f80        ..      LSRS     r0,r0,#30
        0x08006faa:    2801        .(      CMP      r0,#1
        0x08006fac:    d000        ..      BEQ      0x8006fb0 ; __aeabi_dcmpgt + 20
        0x08006fae:    2000        .       MOVS     r0,#0
        0x08006fb0:    bd10        ..      POP      {r4,pc}
    i._dleq
    __aeabi_dcmple
    _dleq
        0x08006fb2:    b510        ..      PUSH     {r4,lr}
        0x08006fb4:    f000f882    ....    BL       __aeabi_cdcmple ; 0x80070bc
        0x08006fb8:    f3ef8000    ....    MRS      r0,APSR ; formerly CPSR
        0x08006fbc:    0040        @.      LSLS     r0,r0,#1
        0x08006fbe:    0f80        ..      LSRS     r0,r0,#30
        0x08006fc0:    2801        .(      CMP      r0,#1
        0x08006fc2:    d001        ..      BEQ      0x8006fc8 ; __aeabi_dcmple + 22
        0x08006fc4:    2001        .       MOVS     r0,#1
        0x08006fc6:    bd10        ..      POP      {r4,pc}
        0x08006fc8:    2000        .       MOVS     r0,#0
        0x08006fca:    bd10        ..      POP      {r4,pc}
    i._dls
    __aeabi_dcmplt
    _dls
        0x08006fcc:    b510        ..      PUSH     {r4,lr}
        0x08006fce:    f000f875    ..u.    BL       __aeabi_cdcmple ; 0x80070bc
        0x08006fd2:    f3ef8000    ....    MRS      r0,APSR ; formerly CPSR
        0x08006fd6:    0080        ..      LSLS     r0,r0,#2
        0x08006fd8:    d401        ..      BMI      0x8006fde ; __aeabi_dcmplt + 18
        0x08006fda:    2001        .       MOVS     r0,#1
        0x08006fdc:    bd10        ..      POP      {r4,pc}
        0x08006fde:    2000        .       MOVS     r0,#0
        0x08006fe0:    bd10        ..      POP      {r4,pc}
        0x08006fe2:    0000        ..      MOVS     r0,r0
    i.sqrt
    sqrt
        0x08006fe4:    b5f8        ..      PUSH     {r3-r7,lr}
        0x08006fe6:    4606        .F      MOV      r6,r0
        0x08006fe8:    460c        .F      MOV      r4,r1
        0x08006fea:    f7fdfce9    ....    BL       _dsqrt ; 0x80049c0
        0x08006fee:    1e05        ..      SUBS     r5,r0,#0
        0x08006ff0:    460f        .F      MOV      r7,r1
        0x08006ff2:    d000        ..      BEQ      0x8006ff6 ; sqrt + 18
        0x08006ff4:    2001        .       MOVS     r0,#1
        0x08006ff6:    4301        .C      ORRS     r1,r1,r0
        0x08006ff8:    0049        I.      LSLS     r1,r1,#1
        0x08006ffa:    480b        .H      LDR      r0,[pc,#44] ; [0x8007028] = 0x7ff00000
        0x08006ffc:    0849        I.      LSRS     r1,r1,#1
        0x08006ffe:    1a41        A.      SUBS     r1,r0,r1
        0x08007000:    0fc9        ..      LSRS     r1,r1,#31
        0x08007002:    d00d        ..      BEQ      0x8007020 ; sqrt + 60
        0x08007004:    2e00        ..      CMP      r6,#0
        0x08007006:    d001        ..      BEQ      0x800700c ; sqrt + 40
        0x08007008:    2101        .!      MOVS     r1,#1
        0x0800700a:    e000        ..      B        0x800700e ; sqrt + 42
        0x0800700c:    2100        .!      MOVS     r1,#0
        0x0800700e:    430c        .C      ORRS     r4,r4,r1
        0x08007010:    0061        a.      LSLS     r1,r4,#1
        0x08007012:    0849        I.      LSRS     r1,r1,#1
        0x08007014:    1a40        @.      SUBS     r0,r0,r1
        0x08007016:    0fc0        ..      LSRS     r0,r0,#31
        0x08007018:    d102        ..      BNE      0x8007020 ; sqrt + 60
        0x0800701a:    2001        .       MOVS     r0,#1
        0x0800701c:    f7fdfa27    ..'.    BL       __set_errno ; 0x800446e
        0x08007020:    4628        (F      MOV      r0,r5
        0x08007022:    4639        9F      MOV      r1,r7
        0x08007024:    bdf8        ..      POP      {r3-r7,pc}
    $d
        0x08007026:    0000        ..      DCW    0
        0x08007028:    7ff00000    ....    DCD    2146435072
    $t
    locale$$code
    _get_lc_numeric
        0x0800702c:    b510        ..      PUSH     {r4,lr}
        0x0800702e:    2900        .)      CMP      r1,#0
        0x08007030:    d00a        ..      BEQ      0x8007048 ; _get_lc_numeric + 28
        0x08007032:    7808        .x      LDRB     r0,[r1,#0]
        0x08007034:    2800        .(      CMP      r0,#0
        0x08007036:    d007        ..      BEQ      0x8007048 ; _get_lc_numeric + 28
        0x08007038:    4805        .H      LDR      r0,[pc,#20] ; [0x8007050] = 0x696
        0x0800703a:    4478        xD      ADD      r0,r0,pc
        0x0800703c:    f7fef966    ..f.    BL       strcmp ; 0x800530c
        0x08007040:    2800        .(      CMP      r0,#0
        0x08007042:    d001        ..      BEQ      0x8007048 ; _get_lc_numeric + 28
        0x08007044:    2000        .       MOVS     r0,#0
        0x08007046:    bd10        ..      POP      {r4,pc}
        0x08007048:    4802        .H      LDR      r0,[pc,#8] ; [0x8007054] = 0x68e
        0x0800704a:    4478        xD      ADD      r0,r0,pc
        0x0800704c:    bd10        ..      POP      {r4,pc}
    $d
        0x0800704e:    0000        ..      DCW    0
        0x08007050:    00000696    ....    DCD    1686
        0x08007054:    0000068e    ....    DCD    1678
    $t
    x$fpl$dgeqf
    _dcmpge
        0x08007058:    b570        p.      PUSH     {r4-r6,lr}
        0x0800705a:    2501        .%      MOVS     r5,#1
        0x0800705c:    052d        -.      LSLS     r5,r5,#20
        0x0800705e:    000c        ..      MOVS     r4,r1
        0x08007060:    431c        .C      ORRS     r4,r4,r3
        0x08007062:    d410        ..      BMI      0x8007086 ; _dcmpge + 46
        0x08007064:    42ec        .B      CMN      r4,r5
        0x08007066:    d406        ..      BMI      0x8007076 ; _dcmpge + 30
        0x08007068:    42ac        .B      CMP      r4,r5
        0x0800706a:    d40a        ..      BMI      0x8007082 ; _dcmpge + 42
        0x0800706c:    4299        .B      CMP      r1,r3
        0x0800706e:    d000        ..      BEQ      0x8007072 ; _dcmpge + 26
        0x08007070:    bd70        p.      POP      {r4-r6,pc}
        0x08007072:    4290        .B      CMP      r0,r2
        0x08007074:    bd70        p.      POP      {r4-r6,pc}
        0x08007076:    42e9        .B      CMN      r1,r5
        0x08007078:    d417        ..      BMI      0x80070aa ; _dcmpge + 82
        0x0800707a:    42eb        .B      CMN      r3,r5
        0x0800707c:    d415        ..      BMI      0x80070aa ; _dcmpge + 82
        0x0800707e:    4299        .B      CMP      r1,r3
        0x08007080:    bd70        p.      POP      {r4-r6,pc}
        0x08007082:    4289        .B      CMP      r1,r1
        0x08007084:    bd70        p.      POP      {r4-r6,pc}
        0x08007086:    42ec        .B      CMN      r4,r5
        0x08007088:    d506        ..      BPL      0x8007098 ; _dcmpge + 64
        0x0800708a:    42ac        .B      CMP      r4,r5
        0x0800708c:    d5f9        ..      BPL      0x8007082 ; _dcmpge + 42
        0x0800708e:    428b        .B      CMP      r3,r1
        0x08007090:    d000        ..      BEQ      0x8007094 ; _dcmpge + 60
        0x08007092:    bd70        p.      POP      {r4-r6,pc}
        0x08007094:    4282        .B      CMP      r2,r0
        0x08007096:    bd70        p.      POP      {r4-r6,pc}
        0x08007098:    006d        m.      LSLS     r5,r5,#1
        0x0800709a:    004c        L.      LSLS     r4,r1,#1
        0x0800709c:    42ec        .B      CMN      r4,r5
        0x0800709e:    d204        ..      BCS      0x80070aa ; _dcmpge + 82
        0x080070a0:    005c        \.      LSLS     r4,r3,#1
        0x080070a2:    42ec        .B      CMN      r4,r5
        0x080070a4:    d201        ..      BCS      0x80070aa ; _dcmpge + 82
        0x080070a6:    428b        .B      CMP      r3,r1
        0x080070a8:    bd70        p.      POP      {r4-r6,pc}
        0x080070aa:    4c03        .L      LDR      r4,[pc,#12] ; [0x80070b8] = 0x4130019
        0x080070ac:    b430        0.      PUSH     {r4,r5}
        0x080070ae:    f7fef8d5    ....    BL       __fpl_dcmp_InfNaN ; 0x800525c
        0x080070b2:    bc30        0.      POP      {r4,r5}
        0x080070b4:    bd70        p.      POP      {r4-r6,pc}
        0x080070b6:    bf00        ..      NOP      
    $d
        0x080070b8:    04130019    ....    DCD    68354073
    $t
    x$fpl$dleqf
    __aeabi_cdcmple
    _dcmple
        0x080070bc:    b570        p.      PUSH     {r4-r6,lr}
        0x080070be:    2501        .%      MOVS     r5,#1
        0x080070c0:    052d        -.      LSLS     r5,r5,#20
        0x080070c2:    000c        ..      MOVS     r4,r1
        0x080070c4:    431c        .C      ORRS     r4,r4,r3
        0x080070c6:    d410        ..      BMI      0x80070ea ; __aeabi_cdcmple + 46
        0x080070c8:    42ec        .B      CMN      r4,r5
        0x080070ca:    d406        ..      BMI      0x80070da ; __aeabi_cdcmple + 30
        0x080070cc:    42ac        .B      CMP      r4,r5
        0x080070ce:    d40a        ..      BMI      0x80070e6 ; __aeabi_cdcmple + 42
        0x080070d0:    4299        .B      CMP      r1,r3
        0x080070d2:    d000        ..      BEQ      0x80070d6 ; __aeabi_cdcmple + 26
        0x080070d4:    bd70        p.      POP      {r4-r6,pc}
        0x080070d6:    4290        .B      CMP      r0,r2
        0x080070d8:    bd70        p.      POP      {r4-r6,pc}
        0x080070da:    42e9        .B      CMN      r1,r5
        0x080070dc:    d417        ..      BMI      0x800710e ; __aeabi_cdcmple + 82
        0x080070de:    42eb        .B      CMN      r3,r5
        0x080070e0:    d415        ..      BMI      0x800710e ; __aeabi_cdcmple + 82
        0x080070e2:    4299        .B      CMP      r1,r3
        0x080070e4:    bd70        p.      POP      {r4-r6,pc}
        0x080070e6:    4289        .B      CMP      r1,r1
        0x080070e8:    bd70        p.      POP      {r4-r6,pc}
        0x080070ea:    42ec        .B      CMN      r4,r5
        0x080070ec:    d506        ..      BPL      0x80070fc ; __aeabi_cdcmple + 64
        0x080070ee:    42ac        .B      CMP      r4,r5
        0x080070f0:    d5f9        ..      BPL      0x80070e6 ; __aeabi_cdcmple + 42
        0x080070f2:    428b        .B      CMP      r3,r1
        0x080070f4:    d000        ..      BEQ      0x80070f8 ; __aeabi_cdcmple + 60
        0x080070f6:    bd70        p.      POP      {r4-r6,pc}
        0x080070f8:    4282        .B      CMP      r2,r0
        0x080070fa:    bd70        p.      POP      {r4-r6,pc}
        0x080070fc:    006d        m.      LSLS     r5,r5,#1
        0x080070fe:    004c        L.      LSLS     r4,r1,#1
        0x08007100:    42ec        .B      CMN      r4,r5
        0x08007102:    d204        ..      BCS      0x800710e ; __aeabi_cdcmple + 82
        0x08007104:    005c        \.      LSLS     r4,r3,#1
        0x08007106:    42ec        .B      CMN      r4,r5
        0x08007108:    d201        ..      BCS      0x800710e ; __aeabi_cdcmple + 82
        0x0800710a:    428b        .B      CMP      r3,r1
        0x0800710c:    bd70        p.      POP      {r4-r6,pc}
        0x0800710e:    4c03        .L      LDR      r4,[pc,#12] ; [0x800711c] = 0x4160019
        0x08007110:    b430        0.      PUSH     {r4,r5}
        0x08007112:    f7fef8a3    ....    BL       __fpl_dcmp_InfNaN ; 0x800525c
        0x08007116:    bc30        0.      POP      {r4,r5}
        0x08007118:    bd70        p.      POP      {r4-r6,pc}
        0x0800711a:    bf00        ..      NOP      
    $d
        0x0800711c:    04160019    ....    DCD    68550681
    $t
    x$fpl$fmul
    __aeabi_fmul
    _fmul
        0x08007120:    b570        p.      PUSH     {r4-r6,lr}
        0x08007122:    0042        B.      LSLS     r2,r0,#1
        0x08007124:    4164        dA      ADCS     r4,r4,r4
        0x08007126:    004b        K.      LSLS     r3,r1,#1
        0x08007128:    415c        \A      ADCS     r4,r4,r3
        0x0800712a:    0e12        ..      LSRS     r2,r2,#24
        0x0800712c:    d039        9.      BEQ      0x80071a2 ; __aeabi_fmul + 130
        0x0800712e:    0e1b        ..      LSRS     r3,r3,#24
        0x08007130:    d038        8.      BEQ      0x80071a4 ; __aeabi_fmul + 132
        0x08007132:    2aff        .*      CMP      r2,#0xff
        0x08007134:    d03c        <.      BEQ      0x80071b0 ; __aeabi_fmul + 144
        0x08007136:    2bff        .+      CMP      r3,#0xff
        0x08007138:    d03a        :.      BEQ      0x80071b0 ; __aeabi_fmul + 144
        0x0800713a:    18d2        ..      ADDS     r2,r2,r3
        0x0800713c:    3a7f        .:      SUBS     r2,r2,#0x7f
        0x0800713e:    0240        @.      LSLS     r0,r0,#9
        0x08007140:    0249        I.      LSLS     r1,r1,#9
        0x08007142:    0a40        @.      LSRS     r0,r0,#9
        0x08007144:    0a49        I.      LSRS     r1,r1,#9
        0x08007146:    1845        E.      ADDS     r5,r0,r1
        0x08007148:    01ed        ..      LSLS     r5,r5,#7
        0x0800714a:    0006        ..      MOVS     r6,r0
        0x0800714c:    434e        NC      MULS     r6,r1,r6
        0x0800714e:    0a00        ..      LSRS     r0,r0,#8
        0x08007150:    0a09        ..      LSRS     r1,r1,#8
        0x08007152:    4348        HC      MULS     r0,r1,r0
        0x08007154:    0401        ..      LSLS     r1,r0,#16
        0x08007156:    1a73        s.      SUBS     r3,r6,r1
        0x08007158:    1940        @.      ADDS     r0,r0,r5
        0x0800715a:    0c19        ..      LSRS     r1,r3,#16
        0x0800715c:    1843        C.      ADDS     r3,r0,r1
        0x0800715e:    0f99        ..      LSRS     r1,r3,#30
        0x08007160:    d004        ..      BEQ      0x800716c ; __aeabi_fmul + 76
        0x08007162:    085b        [.      LSRS     r3,r3,#1
        0x08007164:    2101        .!      MOVS     r1,#1
        0x08007166:    0749        I.      LSLS     r1,r1,#29
        0x08007168:    1a5b        [.      SUBS     r3,r3,r1
        0x0800716a:    1c52        R.      ADDS     r2,r2,#1
        0x0800716c:    09d8        ..      LSRS     r0,r3,#7
        0x0800716e:    d304        ..      BCC      0x800717a ; __aeabi_fmul + 90
        0x08007170:    1c40        @.      ADDS     r0,r0,#1
        0x08007172:    03f5        ..      LSLS     r5,r6,#15
        0x08007174:    d101        ..      BNE      0x800717a ; __aeabi_fmul + 90
        0x08007176:    069d        ..      LSLS     r5,r3,#26
        0x08007178:    d007        ..      BEQ      0x800718a ; __aeabi_fmul + 106
        0x0800717a:    2aff        .*      CMP      r2,#0xff
        0x0800717c:    d208        ..      BCS      0x8007190 ; __aeabi_fmul + 112
        0x0800717e:    05d5        ..      LSLS     r5,r2,#23
        0x08007180:    d006        ..      BEQ      0x8007190 ; __aeabi_fmul + 112
        0x08007182:    07e4        ..      LSLS     r4,r4,#31
        0x08007184:    4320         C      ORRS     r0,r0,r4
        0x08007186:    1940        @.      ADDS     r0,r0,r5
        0x08007188:    bd70        p.      POP      {r4-r6,pc}
        0x0800718a:    2501        .%      MOVS     r5,#1
        0x0800718c:    43a8        .C      BICS     r0,r0,r5
        0x0800718e:    e7f4        ..      B        0x800717a ; __aeabi_fmul + 90
        0x08007190:    2a00        .*      CMP      r2,#0
        0x08007192:    dc01        ..      BGT      0x8007198 ; __aeabi_fmul + 120
        0x08007194:    07e0        ..      LSLS     r0,r4,#31
        0x08007196:    bd70        p.      POP      {r4-r6,pc}
        0x08007198:    0224        $.      LSLS     r4,r4,#8
        0x0800719a:    20ff        .       MOVS     r0,#0xff
        0x0800719c:    4320         C      ORRS     r0,r0,r4
        0x0800719e:    05c0        ..      LSLS     r0,r0,#23
        0x080071a0:    bd70        p.      POP      {r4-r6,pc}
        0x080071a2:    0e1b        ..      LSRS     r3,r3,#24
        0x080071a4:    2aff        .*      CMP      r2,#0xff
        0x080071a6:    d003        ..      BEQ      0x80071b0 ; __aeabi_fmul + 144
        0x080071a8:    2bff        .+      CMP      r3,#0xff
        0x080071aa:    d001        ..      BEQ      0x80071b0 ; __aeabi_fmul + 144
        0x080071ac:    07e0        ..      LSLS     r0,r4,#31
        0x080071ae:    bd70        p.      POP      {r4-r6,pc}
        0x080071b0:    26ff        .&      MOVS     r6,#0xff
        0x080071b2:    0636        6.      LSLS     r6,r6,#24
        0x080071b4:    0045        E.      LSLS     r5,r0,#1
        0x080071b6:    42b5        .B      CMP      r5,r6
        0x080071b8:    d806        ..      BHI      0x80071c8 ; __aeabi_fmul + 168
        0x080071ba:    004d        M.      LSLS     r5,r1,#1
        0x080071bc:    42b5        .B      CMP      r5,r6
        0x080071be:    d803        ..      BHI      0x80071c8 ; __aeabi_fmul + 168
        0x080071c0:    18d2        ..      ADDS     r2,r2,r3
        0x080071c2:    2aff        .*      CMP      r2,#0xff
        0x080071c4:    d000        ..      BEQ      0x80071c8 ; __aeabi_fmul + 168
        0x080071c6:    e7e7        ..      B        0x8007198 ; __aeabi_fmul + 120
        0x080071c8:    4800        .H      LDR      r0,[pc,#0] ; [0x80071cc] = 0x7fc00000
        0x080071ca:    bd70        p.      POP      {r4-r6,pc}
    $d
        0x080071cc:    7fc00000    ....    DCD    2143289344
    $t
    x$fpl$printf1
    _printf_fp_dec
        0x080071d0:    b403        ..      PUSH     {r0,r1}
        0x080071d2:    4802        .H      LDR      r0,[pc,#8] ; [0x80071dc] = 0xffffd4f1
        0x080071d4:    4478        xD      ADD      r0,r0,pc
        0x080071d6:    4684        .F      MOV      r12,r0
        0x080071d8:    bc03        ..      POP      {r0,r1}
        0x080071da:    4760        `G      BX       r12
    $d
        0x080071dc:    ffffd4f1    ....    DCD    4294956273
    $d.realdata
    .constdata
    fdiv_tab
    x$fpl$usenofp
    __I$use$fp
        0x080071e0:    84838281    ....    DCD    2223211137
        0x080071e4:    88878685    ....    DCD    2290583173
        0x080071e8:    8d8c8b89    ....    DCD    2374798217
        0x080071ec:    92918f8e    ....    DCD    2459013006
        0x080071f0:    97969593    ....    DCD    2543228307
        0x080071f4:    9d9c9a99    ....    DCD    2644286105
        0x080071f8:    a3a2a09f    ....    DCD    2745344159
        0x080071fc:    aaa8a7a5    ....    DCD    2863179685
        0x08007200:    b2b0aeac    ....    DCD    2997923500
        0x08007204:    b9b7b5b3    ....    DCD    3115824563
        0x08007208:    c2c0bebc    ....    DCD    3267411644
        0x0800720c:    ccc9c7c5    ....    DCD    3435775941
        0x08007210:    d7d4d1ce    ....    DCD    3621048782
        0x08007214:    e2dfdcd9    ....    DCD    3806321881
        0x08007218:    f0ece9e6    ....    DCD    4042058214
        0x0800721c:    fefaf7f3    ....    DCD    4277860339
    .constdata
    tenpwrs_x
        0x08007220:    00004002    .@..    DCD    16386
        0x08007224:    a0000000    ....    DCD    2684354560
        0x08007228:    00000000    ....    DCD    0
        0x0800722c:    00004005    .@..    DCD    16389
        0x08007230:    c8000000    ....    DCD    3355443200
        0x08007234:    00000000    ....    DCD    0
        0x08007238:    0000400c    .@..    DCD    16396
        0x0800723c:    9c400000    ..@.    DCD    2621440000
        0x08007240:    00000000    ....    DCD    0
        0x08007244:    00004019    .@..    DCD    16409
        0x08007248:    bebc2000    . ..    DCD    3200000000
        0x0800724c:    00000000    ....    DCD    0
        0x08007250:    00004034    4@..    DCD    16436
        0x08007254:    8e1bc9bf    ....    DCD    2384185791
        0x08007258:    04000000    ....    DCD    67108864
    tenpwrs_i
        0x0800725c:    000040b5    .@..    DCD    16565
        0x08007260:    d0cf4b50    PK..    DCD    3503246160
        0x08007264:    cfe20766    f...    DCD    3487696742
        0x08007268:    00000001    ....    DCD    1
        0x0800726c:    0000416c    lA..    DCD    16748
        0x08007270:    aa51823e    >.Q.    DCD    2857468478
        0x08007274:    34a7eedf    ...4    DCD    883420895
        0x08007278:    00000001    ....    DCD    1
        0x0800727c:    000042d9    .B..    DCD    17113
        0x08007280:    e2a0b5dc    ....    DCD    3802183132
        0x08007284:    971f303a    :0..    DCD    2535403578
        0x08007288:    ffffffff    ....    DCD    4294967295
        0x0800728c:    000045b4    .E..    DCD    17844
        0x08007290:    c8a025fd    .%..    DCD    3365938685
        0x08007294:    4fc1a3e9    ...O    DCD    1338090473
        0x08007298:    ffffffff    ....    DCD    4294967295
        0x0800729c:    00003fff    .?..    DCD    16383
        0x080072a0:    80000000    ....    DCD    2147483648
        0x080072a4:    00000000    ....    DCD    0
        0x080072a8:    00003fff    .?..    DCD    16383
        0x080072ac:    80000000    ....    DCD    2147483648
        0x080072b0:    00000000    ....    DCD    0
        0x080072b4:    00000000    ....    DCD    0
        0x080072b8:    00000101    ....    DCD    257
        0x080072bc:    40011000    ...@    DCD    1073811456
        0x080072c0:    03050103    ....    DCD    50659587
        0x080072c4:    00040206    ....    DCD    262662
        0x080072c8:    00000000    ....    DCD    0
        0x080072cc:    00000000    ....    DCD    0
        0x080072d0:    00000000    ....    DCD    0
        0x080072d4:    00000000    ....    DCD    0
        0x080072d8:    00000000    ....    DCD    0
        0x080072dc:    00000000    ....    DCD    0
        0x080072e0:    00000000    ....    DCD    0
        0x080072e4:    00000000    ....    DCD    0
        0x080072e8:    00000000    ....    DCD    0
        0x080072ec:    00000000    ....    DCD    0
        0x080072f0:    00000000    ....    DCD    0
        0x080072f4:    00000000    ....    DCD    0
        0x080072f8:    00000000    ....    DCD    0
        0x080072fc:    00000000    ....    DCD    0
        0x08007300:    00000000    ....    DCD    0
        0x08007304:    00000000    ....    DCD    0
        0x08007308:    00000000    ....    DCD    0
        0x0800730c:    00000000    ....    DCD    0
        0x08007310:    00000000    ....    DCD    0
        0x08007314:    00000000    ....    DCD    0
        0x08007318:    00000000    ....    DCD    0
        0x0800731c:    00000000    ....    DCD    0
        0x08007320:    00000000    ....    DCD    0
        0x08007324:    00000000    ....    DCD    0
        0x08007328:    00000000    ....    DCD    0
        0x0800732c:    00000000    ....    DCD    0
        0x08007330:    00000000    ....    DCD    0
        0x08007334:    00000000    ....    DCD    0
        0x08007338:    00000000    ....    DCD    0
        0x0800733c:    00000000    ....    DCD    0
        0x08007340:    00000000    ....    DCD    0
        0x08007344:    00000000    ....    DCD    0
        0x08007348:    00000000    ....    DCD    0
        0x0800734c:    00000000    ....    DCD    0
        0x08007350:    00000000    ....    DCD    0
        0x08007354:    00000000    ....    DCD    0
        0x08007358:    00000000    ....    DCD    0
        0x0800735c:    00000000    ....    DCD    0
        0x08007360:    00000000    ....    DCD    0
        0x08007364:    00000000    ....    DCD    0
        0x08007368:    00000000    ....    DCD    0
        0x0800736c:    00000000    ....    DCD    0
        0x08007370:    0000e678    x...    DCD    59000
        0x08007374:    00000010    ....    DCD    16
        0x08007378:    00000001    ....    DCD    1
        0x0800737c:    00000470    p...    DCD    1136
        0x08007380:    00001130    0...    DCD    4400
        0x08007384:    000003f2    ....    DCD    1010
        0x08007388:    00000000    ....    DCD    0
        0x0800738c:    00000000    ....    DCD    0
        0x08007390:    00000000    ....    DCD    0
        0x08007394:    02020707    ....    DCD    33687303
        0x08007398:    00000001    ....    DCD    1
        0x0800739c:    00000064    d...    DCD    100
        0x080073a0:    00000000    ....    DCD    0
        0x080073a4:    00000000    ....    DCD    0
        0x080073a8:    00000000    ....    DCD    0
        0x080073ac:    00000000    ....    DCD    0
        0x080073b0:    00000000    ....    DCD    0
        0x080073b4:    00000000    ....    DCD    0
        0x080073b8:    00000000    ....    DCD    0
        0x080073bc:    00000000    ....    DCD    0
        0x080073c0:    00000000    ....    DCD    0
        0x080073c4:    00000000    ....    DCD    0
        0x080073c8:    00000000    ....    DCD    0
        0x080073cc:    00000000    ....    DCD    0
        0x080073d0:    00000000    ....    DCD    0
        0x080073d4:    00000000    ....    DCD    0
        0x080073d8:    00000000    ....    DCD    0
        0x080073dc:    00000000    ....    DCD    0
        0x080073e0:    00000000    ....    DCD    0
        0x080073e4:    00000000    ....    DCD    0
        0x080073e8:    00000001    ....    DCD    1
        0x080073ec:    00000001    ....    DCD    1
        0x080073f0:    00000001    ....    DCD    1
        0x080073f4:    00000000    ....    DCD    0
        0x080073f8:    00000001    ....    DCD    1
        0x080073fc:    02000001    ....    DCD    33554433
        0x08007400:    00009801    ....    DCD    38913
    M_CHANNEL_BIT_SHIFT
        0x08007404:    08040201    ....    DCD    134480385
    CHANNEL_OFFSET_TAB
        0x08007408:    00580000    ..X.    DCD    5767168
        0x0800740c:    010800b0    ....    DCD    17301680
        0x08007410:    1001100a    ....    DCD    268505098
        0x08007414:    01010801    ....    DCD    16844801
    m_uart_hwd
        0x08007418:    40006000    .`.@    DCD    1073766400
        0x0800741c:    40007000    .p.@    DCD    1073770496
        0x08007420:    40008000    ...@    DCD    1073774592
    radar_param_func
        0x08007424:    0800624d    Mb..    DCD    134242893
        0x08007428:    08006245    Eb..    DCD    134242885
        0x0800742c:    08006b15    .k..    DCD    134245141
        0x08007430:    08006b09    .k..    DCD    134245129
        0x08007434:    08006ae5    .j..    DCD    134245093
        0x08007438:    08006ad9    .j..    DCD    134245081
        0x0800743c:    08006b79    yk..    DCD    134245241
        0x08007440:    08006b6d    mk..    DCD    134245229
        0x08007444:    08006b49    Ik..    DCD    134245193
        0x08007448:    08006b3d    =k..    DCD    134245181
        0x0800744c:    08006be1    .k..    DCD    134245345
        0x08007450:    08006bd5    .k..    DCD    134245333
        0x08007454:    08006bad    .k..    DCD    134245293
        0x08007458:    08006ba1    .k..    DCD    134245281
        0x0800745c:    08006601    .f..    DCD    134243841
        0x08007460:    080065f5    .e..    DCD    134243829
        0x08007464:    080065d9    .e..    DCD    134243801
        0x08007468:    080065c5    .e..    DCD    134243781
    .L.str.2
        0x0800746c:    72696843    Chir    DCD    1919510595
        0x08007470:    64252070    p %d    DCD    1680154736
        0x08007474:    5852202c    , RX    DCD    1481777196
        0x08007478:    20642520     %d     DCD    543434016
        0x0800747c:    74616944    Diat    DCD    1952540996
        0x08007480:    65636e61    ance    DCD    1701015137
        0x08007484:    3a206425    %d :    DCD    975201317
        0x08007488:    78614d20     Max    DCD    2019642656
        0x0800748c:    67614d20     Mag    DCD    1734429984
        0x08007490:    7574696e    nitu    DCD    1970563438
        0x08007494:    49206564    de I    DCD    1226859876
        0x08007498:    7865646e    ndex    DCD    2019910766
        0x0800749c:    25203d20     = %    DCD    622869792
        0x080074a0:    4d202c64    d, M    DCD    1293954148
        0x080074a4:    4d207861    ax M    DCD    1293973601
        0x080074a8:    696e6761    agni    DCD    1768843105
        0x080074ac:    65647574    tude    DCD    1701082484
        0x080074b0:    25203d20     = %    DCD    622869792
        0x080074b4:    69642c66    f,di    DCD    1768172646
        0x080074b8:    6e617473    stan    DCD    1851880563
        0x080074bc:    3d206563    ce =    DCD    1025533283
        0x080074c0:    20662520     %f     DCD    543565088
        0x080074c4:    000a6d63    cm..    DCD    683363
    .L.str.6
        0x080074c8:    445f5349    IS_D    DCD    1147097929
        0x080074cc:    415f414d    MA_A    DCD    1096761677
        0x080074d0:    5f524444    DDR_    DCD    1599226948
        0x080074d4:    5f434e49    INC_    DCD    1598246473
        0x080074d8:    45505954    TYPE    DCD    1162893652
        0x080074dc:    6d646828    (hdm    DCD    1835296808
        0x080074e0:    693e2d61    a->i    DCD    1765682529
        0x080074e4:    2e74696e    nit.    DCD    779381102
        0x080074e8:    746e6f63    cont    DCD    1953394531
        0x080074ec:    2e6c6f72    rol.    DCD    778858354
        0x080074f0:    5f637273    src_    DCD    1600352883
        0x080074f4:    72646461    addr    DCD    1919181921
        0x080074f8:    636e695f    _inc    DCD    1668180319
        0x080074fc:    0029        ).      DCW    41
    .L.str.5
        0x080074fe:    5349        IS      DCW    21321
        0x08007500:    414d445f    _DMA    DCD    1095582815
        0x08007504:    4444415f    _ADD    DCD    1145323871
        0x08007508:    4e495f52    R_IN    DCD    1313431378
        0x0800750c:    59545f43    C_TY    DCD    1498701635
        0x08007510:    68284550    PE(h    DCD    1747469648
        0x08007514:    2d616d64    dma-    DCD    761359716
        0x08007518:    696e693e    >ini    DCD    1768843582
        0x0800751c:    6f632e74    t.co    DCD    1868770932
        0x08007520:    6f72746e    ntro    DCD    1869771886
        0x08007524:    73642e6c    l.ds    DCD    1935945324
        0x08007528:    64615f74    t_ad    DCD    1684103028
        0x0800752c:    695f7264    dr_i    DCD    1767862884
        0x08007530:    0029636e    nc).    DCD    2712430
    .L.str.4
        0x08007534:    445f5349    IS_D    DCD    1147097929
        0x08007538:    545f414d    MA_T    DCD    1415528781
        0x0800753c:    49575f52    R_WI    DCD    1230462802
        0x08007540:    28485444    DTH(    DCD    675828804
        0x08007544:    616d6468    hdma    DCD    1634559080
        0x08007548:    6e693e2d    ->in    DCD    1852390957
        0x0800754c:    632e7469    it.c    DCD    1663988841
        0x08007550:    72746e6f    ontr    DCD    1920233071
        0x08007554:    732e6c6f    ol.s    DCD    1932422255
        0x08007558:    745f6372    rc_t    DCD    1952408434
        0x0800755c:    69775f72    r_wi    DCD    1769430898
        0x08007560:    29687464    dth)    DCD    694711396
        0x08007564:    00          .       DCB    0
    .L.str.3
        0x08007565:    49535f      IS_     DCB    73,83,95
        0x08007568:    5f414d44    DMA_    DCD    1598115140
        0x0800756c:    575f5254    TR_W    DCD    1465864788
        0x08007570:    48544449    IDTH    DCD    1213482057
        0x08007574:    6d646828    (hdm    DCD    1835296808
        0x08007578:    693e2d61    a->i    DCD    1765682529
        0x0800757c:    2e74696e    nit.    DCD    779381102
        0x08007580:    746e6f63    cont    DCD    1953394531
        0x08007584:    2e6c6f72    rol.    DCD    778858354
        0x08007588:    5f747364    dst_    DCD    1601467236
        0x0800758c:    775f7274    tr_w    DCD    2002743924
        0x08007590:    68746469    idth    DCD    1752458345
        0x08007594:    0029        ).      DCW    41
    .L.str.17
        0x08007596:    5349        IS      DCW    21321
        0x08007598:    414d445f    _DMA    DCD    1095582815
        0x0800759c:    4352535f    _SRC    DCD    1129468767
        0x080075a0:    5441475f    _GAT    DCD    1413564255
        0x080075a4:    5f524548    HER_    DCD    1599227208
        0x080075a8:    45544e49    INTE    DCD    1163152969
        0x080075ac:    4c415652    RVAL    DCD    1279350354
        0x080075b0:    6d646828    (hdm    DCD    1835296808
        0x080075b4:    693e2d61    a->i    DCD    1765682529
        0x080075b8:    2e74696e    nit.    DCD    779381102
        0x080075bc:    5f637273    src_    DCD    1600352883
        0x080075c0:    68746167    gath    DCD    1752457575
        0x080075c4:    695f7265    er_i    DCD    1767862885
        0x080075c8:    7265746e    nter    DCD    1919251566
        0x080075cc:    296c6176    val)    DCD    694968694
        0x080075d0:    00          .       DCB    0
    .L.str.19
        0x080075d1:    49535f      IS_     DCB    73,83,95
        0x080075d4:    5f414d44    DMA_    DCD    1598115140
        0x080075d8:    5f545344    DST_    DCD    1599361860
        0x080075dc:    54414353    SCAT    DCD    1413563219
        0x080075e0:    5f524554    TER_    DCD    1599227220
        0x080075e4:    45544e49    INTE    DCD    1163152969
        0x080075e8:    4c415652    RVAL    DCD    1279350354
        0x080075ec:    6d646828    (hdm    DCD    1835296808
        0x080075f0:    693e2d61    a->i    DCD    1765682529
        0x080075f4:    2e74696e    nit.    DCD    779381102
        0x080075f8:    5f747364    dst_    DCD    1601467236
        0x080075fc:    74616373    scat    DCD    1952539507
        0x08007600:    5f726574    ter_    DCD    1601332596
        0x08007604:    65746e69    inte    DCD    1702129257
        0x08007608:    6c617672    rval    DCD    1818326642
        0x0800760c:    0029        ).      DCW    41
    .L.str.16
        0x0800760e:    5349        IS      DCW    21321
        0x08007610:    414d445f    _DMA    DCD    1095582815
        0x08007614:    4352535f    _SRC    DCD    1129468767
        0x08007618:    5441475f    _GAT    DCD    1413564255
        0x0800761c:    5f524548    HER_    DCD    1599227208
        0x08007620:    28544e43    CNT(    DCD    676613699
        0x08007624:    616d6468    hdma    DCD    1634559080
        0x08007628:    6e693e2d    ->in    DCD    1852390957
        0x0800762c:    732e7469    it.s    DCD    1932424297
        0x08007630:    675f6372    rc_g    DCD    1734304626
        0x08007634:    65687461    athe    DCD    1701344353
        0x08007638:    6e635f72    r_cn    DCD    1852006258
        0x0800763c:    2974        t)      DCW    10612
        0x0800763e:    00          .       DCB    0
    .L.str.18
        0x0800763f:    49          I       DCB    73
        0x08007640:    4d445f53    S_DM    DCD    1296326483
        0x08007644:    53445f41    A_DS    DCD    1396989761
        0x08007648:    43535f54    T_SC    DCD    1129537364
        0x0800764c:    45545441    ATTE    DCD    1163154497
        0x08007650:    4e435f52    R_CN    DCD    1313038162
        0x08007654:    64682854    T(hd    DCD    1684547668
        0x08007658:    3e2d616d    ma->    DCD    1043161453
        0x0800765c:    74696e69    init    DCD    1953066601
        0x08007660:    7473642e    .dst    DCD    1953719342
        0x08007664:    6163735f    _sca    DCD    1633907551
        0x08007668:    72657474    tter    DCD    1919251572
        0x0800766c:    746e635f    _cnt    DCD    1953391455
        0x08007670:    0029        ).      DCW    41
    .L__func__.hal_dma_init
        0x08007672:    6168        ha      DCW    24936
        0x08007674:    6d645f6c    l_dm    DCD    1835294572
        0x08007678:    6e695f61    a_in    DCD    1852399457
        0x0800767c:    00007469    it..    DCD    29801
    Region$$Table$$Base
        0x08007680:    080076f0    .v..    DCD    134248176
        0x08007684:    20001000    ...     DCD    536875008
        0x08007688:    00000044    D...    DCD    68
        0x0800768c:    08000204    ....    DCD    134218244
        0x08007690:    08007734    4w..    DCD    134248244
        0x08007694:    20001044    D..     DCD    536875076
        0x08007698:    00000044    D...    DCD    68
        0x0800769c:    08000204    ....    DCD    134218244
        0x080076a0:    08007780    .w..    DCD    134248320
        0x080076a4:    20010000    ...     DCD    536936448
        0x080076a8:    00000518    ....    DCD    1304
        0x080076ac:    08005436    6T..    DCD    134239286
        0x080076b0:    08007794    .w..    DCD    134248340
        0x080076b4:    40011000    ...@    DCD    1073811456
        0x080076b8:    00000400    ....    DCD    1024
        0x080076bc:    08000204    ....    DCD    134218244
        0x080076c0:    08007778    xw..    DCD    134248312
        0x080076c4:    20001088    ...     DCD    536875144
        0x080076c8:    00000268    h...    DCD    616
        0x080076cc:    08000220     ...    DCD    134218272
    locale$$data
    Region$$Table$$Limit
        0x080076d0:    0000001c    ....    DCD    28
    __lcnum_c_name
        0x080076d4:    00000043    C...    DCD    67
        0x080076d8:    fffffff8    ....    DCD    4294967288
    __lcnum_c_start
        0x080076dc:    0000000c    ....    DCD    12
        0x080076e0:    0000000e    ....    DCD    14
        0x080076e4:    0000000f    ....    DCD    15
    __lcnum_c_point
        0x080076e8:    002e        ..      DCW    46
    __lcnum_c_thousands
        0x080076ea:    00          .       DCB    0
    __lcnum_c_grouping
        0x080076eb:    00          .       DCB    0
    __lcnum_c_end

** Section #2 'ARM_LIB_STACK' (SHT_NOBITS) [SHF_ALLOC + SHF_WRITE]
    Size   : 4096 bytes (alignment 8)
    Address: 0x20000000


** Section #3 'RW_RAM' (SHT_PROGBITS) [SHF_ALLOC + SHF_EXECINSTR]
    Size   : 68 bytes (alignment 8)
    Address: 0x20001000

    $t.0
    critical_section_start
        0x20001000:    4806        .H      LDR      r0,[pc,#24] ; [0x2000101c] = 0x200011ac
        0x20001002:    6801        .h      LDR      r1,[r0,#0]
        0x20001004:    2900        .)      CMP      r1,#0
        0x20001006:    d105        ..      BNE      0x20001014 ; critical_section_start + 20
        0x20001008:    f3ef8110    ....    MRS      r1,PRIMASK
        0x2000100c:    b672        r.      CPSID    i
        0x2000100e:    4a04        .J      LDR      r2,[pc,#16] ; [0x20001020] = 0x200011b0
        0x20001010:    6011        .`      STR      r1,[r2,#0]
        0x20001012:    6801        .h      LDR      r1,[r0,#0]
        0x20001014:    1c49        I.      ADDS     r1,r1,#1
        0x20001016:    6001        .`      STR      r1,[r0,#0]
        0x20001018:    4770        pG      BX       lr
        0x2000101a:    46c0        .F      MOV      r8,r8
    $d.1
    __arm_cp.0_0
        0x2000101c:    200011ac    ...     DCD    536875436
    __arm_cp.0_1
        0x20001020:    200011b0    ...     DCD    536875440
    $t.2
    critical_section_end
        0x20001024:    4805        .H      LDR      r0,[pc,#20] ; [0x2000103c] = 0x200011ac
        0x20001026:    6801        .h      LDR      r1,[r0,#0]
        0x20001028:    1e49        I.      SUBS     r1,r1,#1
        0x2000102a:    6001        .`      STR      r1,[r0,#0]
        0x2000102c:    d000        ..      BEQ      0x20001030 ; critical_section_end + 12
        0x2000102e:    4770        pG      BX       lr
        0x20001030:    4803        .H      LDR      r0,[pc,#12] ; [0x20001040] = 0x200011b0
        0x20001032:    6800        .h      LDR      r0,[r0,#0]
        0x20001034:    f3808810    ....    MSR      PRIMASK,r0
        0x20001038:    4770        pG      BX       lr
        0x2000103a:    46c0        .F      MOV      r8,r8
    $d.3
    __arm_cp.1_0
        0x2000103c:    200011ac    ...     DCD    536875436
    __arm_cp.1_1
        0x20001040:    200011b0    ...     DCD    536875440

** Section #4 'RW_RAM' (SHT_PROGBITS) [SHF_ALLOC + SHF_WRITE]
    Size   : 68 bytes (alignment 4)
    Address: 0x20001044


** Section #5 'RW_RAM' (SHT_NOBITS) [SHF_ALLOC + SHF_WRITE]
    Size   : 616 bytes (alignment 8)
    Address: 0x20001088


** Section #6 'ARM_LIB_HEAP' (SHT_NOBITS) [SHF_ALLOC + SHF_WRITE]
    Size   : 4096 bytes (alignment 8)
    Address: 0x2000f000


** Section #7 'RADAR_RAM' (SHT_PROGBITS) [SHF_ALLOC + SHF_WRITE]
    Size   : 12 bytes (alignment 32)
    Address: 0x20010000


** Section #8 'FFT_WIN_RAM' (SHT_PROGBITS) [SHF_ALLOC + SHF_WRITE]
    Size   : 1024 bytes (alignment 32)
    Address: 0x40011000


** Section #9 '.debug_abbrev' (SHT_PROGBITS)
    Size   : 11401 bytes


** Section #10 '.debug_frame' (SHT_PROGBITS)
    Size   : 12136 bytes


** Section #11 '.debug_info' (SHT_PROGBITS)
    Size   : 70168 bytes


** Section #12 '.debug_line' (SHT_PROGBITS)
    Size   : 32062 bytes


** Section #13 '.debug_loc' (SHT_PROGBITS)
    Size   : 32009 bytes


** Section #14 '.debug_str' (SHT_PROGBITS)
    Size   : 58774 bytes


** Section #15 '.debug_ranges' (SHT_PROGBITS)
    Size   : 2688 bytes


** Section #16 '.symtab' (SHT_SYMTAB)
    Size   : 29120 bytes (alignment 4)
    String table #17 '.strtab'
    Last local symbol no. 1253


** Section #17 '.strtab' (SHT_STRTAB)
    Size   : 17268 bytes


** Section #18 '.note' (SHT_NOTE)
    Size   : 48 bytes (alignment 4)


** Section #19 '.comment' (SHT_PROGBITS)
    Size   : 1640 bytes


** Section #20 '.shstrtab' (SHT_STRTAB)
    Size   : 196 bytes


address     size       variable name                            type
0x20001060  0x1        m_lp_timer_id                            timer_id_t

address     size       variable name                            type
0x20001274  0x4        m_radar_cb                               radar_cb_t

address     size       variable name                            type
0x20001278  0x1        m_rx_num                                 radar_rx_num_t

address     size       variable name                            type
0x200012d3  0x1        m_vco_cap                                u8

address     size       variable name                            type
0x200011b8  0x4        fft_dev_irq_cb                           irq_trg_callback

address     size       variable name                            type
0x200011b4  0x4        cfar_dev_irq_cb                          cfar_irq_callback

address     size       variable name                            type
0x08007408  0x8        CHANNEL_OFFSET_TAB                       array[4] of const uint16_t

address     size       variable name                            type
0x08007404  0x4        M_CHANNEL_BIT_SHIFT                      array[4] of const uint8_t

address     size       variable name                            type
0x200011c0  0x64       hdmax                                    dma_handle_t
0x200011c0  0x4        hdmax.instance                           dma_base_t
0x200011c4  0x34       hdmax.init                               dma_init_t
0x200011c4  0x4        hdmax.init.channel                       uint32_t
0x200011c8  0x4        hdmax.init.transfer_type                 uint32_t
0x200011cc  0x8        hdmax.init.control                       dma_ctrl_t
0x200011cc  0x4(31:1)  hdmax.init.control.int_en                u32
0x200011cc  0x4(28:3)  hdmax.init.control.dst_tr_width          u32
0x200011cc  0x4(25:3)  hdmax.init.control.src_tr_width          u32
0x200011cc  0x4(23:2)  hdmax.init.control.dst_addr_inc          u32
0x200011cc  0x4(21:2)  hdmax.init.control.src_addr_inc          u32
0x200011cc  0x4(18:3)  hdmax.init.control.dst_burst_size        u32
0x200011cc  0x4(15:3)  hdmax.init.control.src_burst_size        u32
0x200011cc  0x4(14:1)  hdmax.init.control.src_gather_en         u32
0x200011cc  0x4(13:1)  hdmax.init.control.dst_scatter_en        u32
0x200011cc  0x4(12:1)  hdmax.init.control.rsvd1                 u32
0x200011cc  0x4(9:3)   hdmax.init.control.tt_fc                 u32
0x200011cc  0x4(5:4)   hdmax.init.control.rsvd2                 u32
0x200011cc  0x4(4:1)   hdmax.init.control.dst_llp_en            u32
0x200011cc  0x4(3:1)   hdmax.init.control.src_llp_en            u32
0x200011cc  0x4(0:3)   hdmax.init.control.rsvd3                 u32
0x200011d0  0x4(20:12) hdmax.init.control.block_size            u32
0x200011d0  0x4(19:1)  hdmax.init.control.done                  u32
0x200011d0  0x4(0:19)  hdmax.init.control.rsvd4                 u32
0x200011d4  0x8        hdmax.init.config                        dma_cfg_t
0x200011d4  0x4(29:3)  hdmax.init.config.channel_priority       uint32_t
0x200011d4  0x4(28:1)  hdmax.init.config.src_handshake_type     uint32_t
0x200011d4  0x4(27:1)  hdmax.init.config.dst_handshake_type     uint32_t
0x200011d4  0x4(16:11) hdmax.init.config.reserved1              uint32_t
0x200011d4  0x4(0:16)  hdmax.init.config.src_handshake_interface uint32_t
0x200011d8  0x4(16:16) hdmax.init.config.dst_handshake_interface uint32_t
0x200011d8  0x4(15:1)  hdmax.init.config.src_handshake_polarity uint32_t
0x200011d8  0x4(14:1)  hdmax.init.config.dst_handshake_polarity uint32_t
0x200011d8  0x4(13:1)  hdmax.init.config.src_reload_en          uint32_t
0x200011d8  0x4(12:1)  hdmax.init.config.dst_realod_en          uint32_t
0x200011d8  0x4(11:1)  hdmax.init.config.src_status_update_enable uint32_t
0x200011d8  0x4(10:1)  hdmax.init.config.dst_status_update_enable uint32_t
0x200011d8  0x4(9:1)   hdmax.init.config.fifo_mode              uint32_t
0x200011d8  0x4(8:1)   hdmax.init.config.fcmode                 uint32_t
0x200011d8  0x4(7:1)   hdmax.init.config.rsvd_lock_bus          uint32_t
0x200011d8  0x4(6:1)   hdmax.init.config.rsvd_lock_chan         uint32_t
0x200011d8  0x4(4:2)   hdmax.init.config.rsvd_lock_bus_level    uint32_t
0x200011d8  0x4(2:2)   hdmax.init.config.rsvd_lock_chan_level   uint32_t
0x200011d8  0x4(0:2)   hdmax.init.config.reserved2              uint32_t
0x200011dc  0x4        hdmax.init.llp_loc                       uint32_t
0x200011e0  0x4        hdmax.init.src_gather_cnt                uint32_t
0x200011e4  0x4        hdmax.init.src_gather_interval           uint32_t
0x200011e8  0x4        hdmax.init.dst_scatter_cnt               uint32_t
0x200011ec  0x4        hdmax.init.dst_scatter_interval          uint32_t
0x200011f0  0x4        hdmax.init.src_status_addr               uint32_t
0x200011f4  0x4        hdmax.init.dst_status_addr               uint32_t
0x200011f8  0x4        hdmax.block_total                        uint32_t
0x200011fc  0x4        hdmax.block_cnt                          uint32_t
0x20001200  0x1        hdmax.lock                               hal_lock_t
0x20001201  0x1      * hdmax.state                              volatile hal_dma_state_t
0x20001204  0x4        hdmax.parent                             pointer to unknown Type 
0x20001208  0x4        hdmax.xfer_cplt_callback                 pointer to function 
0x2000120c  0x4        hdmax.xfer_error_callback                pointer to function 
0x20001210  0x4        hdmax.xfer_block_callback                pointer to function 
0x20001214  0x4        hdmax.xfer_srctran_callback              pointer to function 
0x20001218  0x4        hdmax.xfer_dsttran_callback              pointer to function 
0x2000121c  0x4        hdmax.xfer_abort_callback                pointer to function 
0x20001220  0x4        hdmax.error_code                         volatile uint32_t

address     size       variable name                            type
0x200012d8  0x18       uart_handle                              uart_handle_t
0x200012d8  0x1        uart_handle.id                           uart_id_t
0x200012d9  0x3        uart_handle.padding                      array[3] of u8
0x200012dc  0xc        uart_handle.cfg                          uart_cfg_t
0x200012dc  0x4        uart_handle.cfg.baud_rate                uart_baud_rate_t
0x200012e0  0x1        uart_handle.cfg.data_width               uart_data_width_t
0x200012e1  0x1        uart_handle.cfg.parity                   uart_parity_t
0x200012e2  0x1        uart_handle.cfg.stop_bits                uart_stop_bits_t
0x200012e3  0x1        uart_handle.cfg.dma_mode                 u8
0x200012e4  0x1        uart_handle.cfg.irq_enable               u8
0x200012e5  0x2        uart_handle.cfg.padding                  array[2] of u8
0x200012e7  0x1        uart_handle.cfg.fifo_cfg                 uart_fifo_cfg_t
0x200012e7  0x1(7:1)   uart_handle.cfg.fifo_cfg.fifo_en         u8
0x200012e7  0x1(5:2)   uart_handle.cfg.fifo_cfg.tx_fifo_level   uart_tx_fifo_level_t
0x200012e7  0x1(3:2)   uart_handle.cfg.fifo_cfg.rx_fifo_level   uart_rx_fifo_level_t
0x200012e7  0x1(0:3)   uart_handle.cfg.fifo_cfg.reserved        u8
0x200012e8  0x4        uart_handle.hdmatx                       pointer to dma_handle_t
0x200012ec  0x4        uart_handle.hdmarx                       pointer to dma_handle_t

address     size       variable name                            type
0x20001050  0x10       m_dualtimer_dev                          array[2] of dual_timer_dev_t

address     size       variable name                            type
0x20001064  0x20       m_timer_dev                              array[4] of timer_dev_t

address     size       variable name                            type
0x200011ac  0x4        _irqs_disabled_counter                   size_t

address     size       variable name                            type
0x200011b0  0x4        _irqs_disabled_flag                      size_t

address     size       variable name                            type
0x20001230  0x40       m_gpio_hdl                               array[16] of gpio_hdl_t

address     size       variable name                            type
0x2000122c  0x4        m_clk_mcu                                u32

address     size       variable name                            type
0x20001288  0x18       m_uart_hdl                               array[6] of uart_hdl_t

address     size       variable name                            type
0x08007418  0xc        m_uart_hwd                               array[3] of const pointer to HWP_UART_T

address     size       variable name                            type
0x20001279  0xc        m_timer_cfg                              array[4] of timer_cfg_info_t

address     size       variable name                            type
0x08007424  0x48       radar_param_func                         array[9] of const radar_param_func_t

address     size       variable name                            type
0x2000113c  0x70       _fft_handle                              fft_handle
0x2000113c  0x70       _fft_handle.fft_inst                     array[4] of fft_instance

address     size       variable name                            type
0x08000a10  0xc        m_uart_disable                           array[3] of const uart_clk_func_t

address     size       variable name                            type
0x080009e0  0xc        m_uart_enable                            array[3] of const uart_clk_func_t

address     size       variable name                            type
0x080009ec  0x3        m_uart_nvic                              array[3] of const IRQn_Type

address     size       variable name                            type
0x200012d0  0x3        m_uart_state                             array[3] of hal_uart_state_t

address     size       variable name                            type
0x20001044  0x4        SystemCoreClock                          uint32_t

address     size       variable name                            type
0x00000000  0x4        SystemFrequency                          uint32_t

address     size       variable name                            type
0x20010000  0x518      fft_out_buf                              array[326] of u32

address     size       variable name                            type
0x200011bc  0x4        fifo_state                               volatile unsigned int

address     size       variable name                            type
0x00000000  0x100      fileData_temp                            array[128] of int16

address     size       variable name                            type
0x200012d4  0x4        range_fft_buffer                         pointer to u32

address     size       variable name                            type
0x40011000  0x400      win                                      array[512] of u16

address     size       variable name                            type
0x00000000  0x54       __stderr                                 FILE
0x00000000  0x54       __stderr.__FILE_opaque                   anonymous
0x00000000  0x4        __stderr.__FILE_opaque.__FILE_alignment  long int
0x00000000  0x54       __stderr.__FILE_opaque.__FILE_size       array[84] of char

address     size       variable name                            type
0x00000000  0x54       __stdin                                  FILE
0x00000000  0x54       __stdin.__FILE_opaque                    anonymous
0x00000000  0x4        __stdin.__FILE_opaque.__FILE_alignment   long int
0x00000000  0x54       __stdin.__FILE_opaque.__FILE_size        array[84] of char

address     size       variable name                            type
0x200010e8  0x54       __stdout                                 FILE
0x200010e8  0x54       __stdout.__FILE_opaque                   anonymous
0x200010e8  0x4        __stdout.__FILE_opaque.__FILE_alignment  long int
0x200010e8  0x54       __stdout.__FILE_opaque.__FILE_size       array[84] of char

